
main.elf:     file format elf32-littleriscv


Disassembly of section .text:

00000000 <_isr_handler>:
       0:	0080006f          	j	8 <_isr_routine>
       4:	1440006f          	j	148 <_start>

00000008 <_isr_routine>:
       8:	f8010113          	addi	sp,sp,-128
       c:	00112023          	sw	ra,0(sp)
      10:	00312423          	sw	gp,8(sp)
      14:	00412623          	sw	tp,12(sp)
      18:	00512823          	sw	t0,16(sp)
      1c:	00612a23          	sw	t1,20(sp)
      20:	00712c23          	sw	t2,24(sp)
      24:	00812e23          	sw	s0,28(sp)
      28:	02912023          	sw	s1,32(sp)
      2c:	02a12223          	sw	a0,36(sp)
      30:	02b12423          	sw	a1,40(sp)
      34:	02c12623          	sw	a2,44(sp)
      38:	02d12823          	sw	a3,48(sp)
      3c:	02e12a23          	sw	a4,52(sp)
      40:	02f12c23          	sw	a5,56(sp)
      44:	03012e23          	sw	a6,60(sp)
      48:	05112023          	sw	a7,64(sp)
      4c:	05212223          	sw	s2,68(sp)
      50:	05312423          	sw	s3,72(sp)
      54:	05412623          	sw	s4,76(sp)
      58:	05512823          	sw	s5,80(sp)
      5c:	05612a23          	sw	s6,84(sp)
      60:	05712c23          	sw	s7,88(sp)
      64:	05812e23          	sw	s8,92(sp)
      68:	07912023          	sw	s9,96(sp)
      6c:	07a12223          	sw	s10,100(sp)
      70:	07b12423          	sw	s11,104(sp)
      74:	07c12623          	sw	t3,108(sp)
      78:	07d12823          	sw	t4,112(sp)
      7c:	07e12a23          	sw	t5,116(sp)
      80:	07f12c23          	sw	t6,120(sp)
      84:	342022f3          	csrr	t0,mcause
      88:	80000337          	lui	t1,0x80000
      8c:	02536463          	bltu	t1,t0,b4 <external_irq>
      90:	00028833          	add	a6,t0,zero
      94:	00b00313          	li	t1,11
      98:	00628463          	beq	t0,t1,a0 <skip_init_args>
      9c:	34102573          	csrr	a0,mepc

000000a0 <skip_init_args>:
      a0:	2a8020ef          	jal	2348 <handle_exception>
      a4:	341022f3          	csrr	t0,mepc
      a8:	00428293          	addi	t0,t0,4
      ac:	34129073          	csrw	mepc,t0
      b0:	0180006f          	j	c8 <restore>

000000b4 <external_irq>:
      b4:	800002b7          	lui	t0,0x80000
      b8:	fff28293          	addi	t0,t0,-1 # 7fffffff <_stack_end+0x7fef278f>
      bc:	34202373          	csrr	t1,mcause
      c0:	0062f533          	and	a0,t0,t1
      c4:	30c010ef          	jal	13d0 <handle_interrupt>

000000c8 <restore>:
      c8:	00012083          	lw	ra,0(sp)
      cc:	00812183          	lw	gp,8(sp)
      d0:	00c12203          	lw	tp,12(sp)
      d4:	01012283          	lw	t0,16(sp)
      d8:	01412303          	lw	t1,20(sp)
      dc:	01812383          	lw	t2,24(sp)
      e0:	01c12403          	lw	s0,28(sp)
      e4:	02012483          	lw	s1,32(sp)
      e8:	02412503          	lw	a0,36(sp)
      ec:	02812583          	lw	a1,40(sp)
      f0:	02c12603          	lw	a2,44(sp)
      f4:	03012683          	lw	a3,48(sp)
      f8:	03412703          	lw	a4,52(sp)
      fc:	03812783          	lw	a5,56(sp)
     100:	03c12803          	lw	a6,60(sp)
     104:	04012883          	lw	a7,64(sp)
     108:	04412903          	lw	s2,68(sp)
     10c:	04812983          	lw	s3,72(sp)
     110:	04c12a03          	lw	s4,76(sp)
     114:	05012a83          	lw	s5,80(sp)
     118:	05412b03          	lw	s6,84(sp)
     11c:	05812b83          	lw	s7,88(sp)
     120:	05c12c03          	lw	s8,92(sp)
     124:	06012c83          	lw	s9,96(sp)
     128:	06412d03          	lw	s10,100(sp)
     12c:	06812d83          	lw	s11,104(sp)
     130:	06c12e03          	lw	t3,108(sp)
     134:	07012e83          	lw	t4,112(sp)
     138:	07412f03          	lw	t5,116(sp)
     13c:	07812f83          	lw	t6,120(sp)
     140:	08010113          	addi	sp,sp,128
     144:	30200073          	mret

00000148 <_start>:
     148:	30401073          	csrw	mie,zero
     14c:	0010d117          	auipc	sp,0x10d
     150:	72410113          	addi	sp,sp,1828 # 10d870 <_stack_end>
     154:	00003197          	auipc	gp,0x3
     158:	7fc18193          	addi	gp,gp,2044 # 3950 <__global_pointer>
     15c:	00003517          	auipc	a0,0x3
     160:	f6050513          	addi	a0,a0,-160 # 30bc <welcome_msg>
     164:	00400893          	li	a7,4
     168:	00000073          	ecall
     16c:	5a0020ef          	jal	270c <main>

00000170 <loop>:
     170:	0000006f          	j	170 <loop>

00000174 <enable_interrupt>:
     174:	30486073          	csrsi	mie,16
     178:	3001e073          	csrsi	mstatus,3

0000017c <drawLetter.constprop.0>:
     17c:	fe010113          	addi	sp,sp,-32
     180:	00812c23          	sw	s0,24(sp)
     184:	00c10613          	addi	a2,sp,12
     188:	00058413          	mv	s0,a1
     18c:	00810593          	addi	a1,sp,8
     190:	00112e23          	sw	ra,28(sp)
     194:	00012423          	sw	zero,8(sp)
     198:	00012623          	sw	zero,12(sp)
     19c:	428010ef          	jal	15c4 <getLetterFromArray>
     1a0:	00812703          	lw	a4,8(sp)
     1a4:	00c12783          	lw	a5,12(sp)
     1a8:	01500593          	li	a1,21
     1ac:	01400693          	li	a3,20
     1b0:	40e787b3          	sub	a5,a5,a4
     1b4:	02b7c5b3          	div	a1,a5,a1
     1b8:	06f6d663          	bge	a3,a5,224 <drawLetter.constprop.0+0xa8>
     1bc:	080027b7          	lui	a5,0x8002
     1c0:	000068b7          	lui	a7,0x6
     1c4:	44078793          	addi	a5,a5,1088 # 8002440 <_stack_end+0x7ef4bd0>
     1c8:	ffffe337          	lui	t1,0xffffe
     1cc:	b6088893          	addi	a7,a7,-1184 # 5b60 <letter_images>
     1d0:	00f40633          	add	a2,s0,a5
     1d4:	00000813          	li	a6,0
     1d8:	00e888b3          	add	a7,a7,a4
     1dc:	5c030313          	addi	t1,t1,1472 # ffffe5c0 <_stack_end+0xffef0d50>
     1e0:	fff00513          	li	a0,-1
     1e4:	01088733          	add	a4,a7,a6
     1e8:	006607b3          	add	a5,a2,t1
     1ec:	0140006f          	j	200 <drawLetter.constprop.0+0x84>
     1f0:	00a78023          	sb	a0,0(a5)
     1f4:	14078793          	addi	a5,a5,320
     1f8:	00b70733          	add	a4,a4,a1
     1fc:	00c78e63          	beq	a5,a2,218 <drawLetter.constprop.0+0x9c>
     200:	00074683          	lbu	a3,0(a4)
     204:	fe0696e3          	bnez	a3,1f0 <drawLetter.constprop.0+0x74>
     208:	00078023          	sb	zero,0(a5)
     20c:	14078793          	addi	a5,a5,320
     210:	00b70733          	add	a4,a4,a1
     214:	fec796e3          	bne	a5,a2,200 <drawLetter.constprop.0+0x84>
     218:	00180813          	addi	a6,a6,1
     21c:	00160613          	addi	a2,a2,1
     220:	fcb842e3          	blt	a6,a1,1e4 <drawLetter.constprop.0+0x68>
     224:	01c12083          	lw	ra,28(sp)
     228:	01812403          	lw	s0,24(sp)
     22c:	02010113          	addi	sp,sp,32
     230:	00008067          	ret

00000234 <drawNumber.constprop.0>:
     234:	00800793          	li	a5,8
     238:	06a7e263          	bltu	a5,a0,29c <drawNumber.constprop.0+0x68>
     23c:	000057b7          	lui	a5,0x5
     240:	ac078793          	addi	a5,a5,-1344 # 4ac0 <player_button+0x4>
     244:	00251513          	slli	a0,a0,0x2
     248:	00f50533          	add	a0,a0,a5
     24c:	00052783          	lw	a5,0(a0)
     250:	00078067          	jr	a5
     254:	03700513          	li	a0,55
     258:	f25ff06f          	j	17c <drawLetter.constprop.0>
     25c:	03800513          	li	a0,56
     260:	f1dff06f          	j	17c <drawLetter.constprop.0>
     264:	03000513          	li	a0,48
     268:	f15ff06f          	j	17c <drawLetter.constprop.0>
     26c:	03100513          	li	a0,49
     270:	f0dff06f          	j	17c <drawLetter.constprop.0>
     274:	03200513          	li	a0,50
     278:	f05ff06f          	j	17c <drawLetter.constprop.0>
     27c:	03300513          	li	a0,51
     280:	efdff06f          	j	17c <drawLetter.constprop.0>
     284:	03400513          	li	a0,52
     288:	ef5ff06f          	j	17c <drawLetter.constprop.0>
     28c:	03500513          	li	a0,53
     290:	eedff06f          	j	17c <drawLetter.constprop.0>
     294:	03600513          	li	a0,54
     298:	ee5ff06f          	j	17c <drawLetter.constprop.0>
     29c:	03900513          	li	a0,57
     2a0:	eddff06f          	j	17c <drawLetter.constprop.0>

000002a4 <drawNumber.constprop.1>:
     2a4:	fe010113          	addi	sp,sp,-32
     2a8:	00812c23          	sw	s0,24(sp)
     2ac:	00112e23          	sw	ra,28(sp)
     2b0:	00800793          	li	a5,8
     2b4:	00058413          	mv	s0,a1
     2b8:	2ca7ee63          	bltu	a5,a0,594 <drawNumber.constprop.1+0x2f0>
     2bc:	000057b7          	lui	a5,0x5
     2c0:	ae478793          	addi	a5,a5,-1308 # 4ae4 <player_button+0x28>
     2c4:	00251513          	slli	a0,a0,0x2
     2c8:	00f50533          	add	a0,a0,a5
     2cc:	00052783          	lw	a5,0(a0)
     2d0:	00c10613          	addi	a2,sp,12
     2d4:	00810593          	addi	a1,sp,8
     2d8:	00078067          	jr	a5
     2dc:	03700513          	li	a0,55
     2e0:	00012423          	sw	zero,8(sp)
     2e4:	00012623          	sw	zero,12(sp)
     2e8:	2dc010ef          	jal	15c4 <getLetterFromArray>
     2ec:	08002737          	lui	a4,0x8002
     2f0:	080026b7          	lui	a3,0x8002
     2f4:	44070713          	addi	a4,a4,1088 # 8002440 <_stack_end+0x7ef4bd0>
     2f8:	45268693          	addi	a3,a3,1106 # 8002452 <_stack_end+0x7ef4be2>
     2fc:	ffffe637          	lui	a2,0xffffe
     300:	00e40733          	add	a4,s0,a4
     304:	00d406b3          	add	a3,s0,a3
     308:	5c060613          	addi	a2,a2,1472 # ffffe5c0 <_stack_end+0xffef0d50>
     30c:	00c707b3          	add	a5,a4,a2
     310:	00078023          	sb	zero,0(a5)
     314:	14078793          	addi	a5,a5,320
     318:	fef71ce3          	bne	a4,a5,310 <drawNumber.constprop.1+0x6c>
     31c:	00170713          	addi	a4,a4,1
     320:	fee696e3          	bne	a3,a4,30c <drawNumber.constprop.1+0x68>
     324:	01c12083          	lw	ra,28(sp)
     328:	01812403          	lw	s0,24(sp)
     32c:	02010113          	addi	sp,sp,32
     330:	00008067          	ret
     334:	03800513          	li	a0,56
     338:	00012423          	sw	zero,8(sp)
     33c:	00012623          	sw	zero,12(sp)
     340:	284010ef          	jal	15c4 <getLetterFromArray>
     344:	08002737          	lui	a4,0x8002
     348:	080026b7          	lui	a3,0x8002
     34c:	44070713          	addi	a4,a4,1088 # 8002440 <_stack_end+0x7ef4bd0>
     350:	45268693          	addi	a3,a3,1106 # 8002452 <_stack_end+0x7ef4be2>
     354:	ffffe637          	lui	a2,0xffffe
     358:	00e40733          	add	a4,s0,a4
     35c:	00d406b3          	add	a3,s0,a3
     360:	5c060613          	addi	a2,a2,1472 # ffffe5c0 <_stack_end+0xffef0d50>
     364:	00c707b3          	add	a5,a4,a2
     368:	00078023          	sb	zero,0(a5)
     36c:	14078793          	addi	a5,a5,320
     370:	fef71ce3          	bne	a4,a5,368 <drawNumber.constprop.1+0xc4>
     374:	00170713          	addi	a4,a4,1
     378:	fee696e3          	bne	a3,a4,364 <drawNumber.constprop.1+0xc0>
     37c:	fa9ff06f          	j	324 <drawNumber.constprop.1+0x80>
     380:	03000513          	li	a0,48
     384:	00012423          	sw	zero,8(sp)
     388:	00012623          	sw	zero,12(sp)
     38c:	238010ef          	jal	15c4 <getLetterFromArray>
     390:	08002737          	lui	a4,0x8002
     394:	080026b7          	lui	a3,0x8002
     398:	44070713          	addi	a4,a4,1088 # 8002440 <_stack_end+0x7ef4bd0>
     39c:	45268693          	addi	a3,a3,1106 # 8002452 <_stack_end+0x7ef4be2>
     3a0:	ffffe637          	lui	a2,0xffffe
     3a4:	00e40733          	add	a4,s0,a4
     3a8:	00d406b3          	add	a3,s0,a3
     3ac:	5c060613          	addi	a2,a2,1472 # ffffe5c0 <_stack_end+0xffef0d50>
     3b0:	00c707b3          	add	a5,a4,a2
     3b4:	00078023          	sb	zero,0(a5)
     3b8:	14078793          	addi	a5,a5,320
     3bc:	fef71ce3          	bne	a4,a5,3b4 <drawNumber.constprop.1+0x110>
     3c0:	00170713          	addi	a4,a4,1
     3c4:	fee696e3          	bne	a3,a4,3b0 <drawNumber.constprop.1+0x10c>
     3c8:	f5dff06f          	j	324 <drawNumber.constprop.1+0x80>
     3cc:	03100513          	li	a0,49
     3d0:	00012423          	sw	zero,8(sp)
     3d4:	00012623          	sw	zero,12(sp)
     3d8:	1ec010ef          	jal	15c4 <getLetterFromArray>
     3dc:	08002737          	lui	a4,0x8002
     3e0:	080026b7          	lui	a3,0x8002
     3e4:	44070713          	addi	a4,a4,1088 # 8002440 <_stack_end+0x7ef4bd0>
     3e8:	45268693          	addi	a3,a3,1106 # 8002452 <_stack_end+0x7ef4be2>
     3ec:	ffffe637          	lui	a2,0xffffe
     3f0:	00e40733          	add	a4,s0,a4
     3f4:	00d406b3          	add	a3,s0,a3
     3f8:	5c060613          	addi	a2,a2,1472 # ffffe5c0 <_stack_end+0xffef0d50>
     3fc:	00c707b3          	add	a5,a4,a2
     400:	00078023          	sb	zero,0(a5)
     404:	14078793          	addi	a5,a5,320
     408:	fef71ce3          	bne	a4,a5,400 <drawNumber.constprop.1+0x15c>
     40c:	00170713          	addi	a4,a4,1
     410:	fee696e3          	bne	a3,a4,3fc <drawNumber.constprop.1+0x158>
     414:	f11ff06f          	j	324 <drawNumber.constprop.1+0x80>
     418:	03200513          	li	a0,50
     41c:	00012423          	sw	zero,8(sp)
     420:	00012623          	sw	zero,12(sp)
     424:	1a0010ef          	jal	15c4 <getLetterFromArray>
     428:	08002737          	lui	a4,0x8002
     42c:	080026b7          	lui	a3,0x8002
     430:	44070713          	addi	a4,a4,1088 # 8002440 <_stack_end+0x7ef4bd0>
     434:	45268693          	addi	a3,a3,1106 # 8002452 <_stack_end+0x7ef4be2>
     438:	ffffe637          	lui	a2,0xffffe
     43c:	00e40733          	add	a4,s0,a4
     440:	00d406b3          	add	a3,s0,a3
     444:	5c060613          	addi	a2,a2,1472 # ffffe5c0 <_stack_end+0xffef0d50>
     448:	00c707b3          	add	a5,a4,a2
     44c:	00078023          	sb	zero,0(a5)
     450:	14078793          	addi	a5,a5,320
     454:	fef71ce3          	bne	a4,a5,44c <drawNumber.constprop.1+0x1a8>
     458:	00170713          	addi	a4,a4,1
     45c:	fee696e3          	bne	a3,a4,448 <drawNumber.constprop.1+0x1a4>
     460:	ec5ff06f          	j	324 <drawNumber.constprop.1+0x80>
     464:	03300513          	li	a0,51
     468:	00012423          	sw	zero,8(sp)
     46c:	00012623          	sw	zero,12(sp)
     470:	154010ef          	jal	15c4 <getLetterFromArray>
     474:	08002737          	lui	a4,0x8002
     478:	080026b7          	lui	a3,0x8002
     47c:	44070713          	addi	a4,a4,1088 # 8002440 <_stack_end+0x7ef4bd0>
     480:	45268693          	addi	a3,a3,1106 # 8002452 <_stack_end+0x7ef4be2>
     484:	ffffe637          	lui	a2,0xffffe
     488:	00e40733          	add	a4,s0,a4
     48c:	00d406b3          	add	a3,s0,a3
     490:	5c060613          	addi	a2,a2,1472 # ffffe5c0 <_stack_end+0xffef0d50>
     494:	00c707b3          	add	a5,a4,a2
     498:	00078023          	sb	zero,0(a5)
     49c:	14078793          	addi	a5,a5,320
     4a0:	fef71ce3          	bne	a4,a5,498 <drawNumber.constprop.1+0x1f4>
     4a4:	00170713          	addi	a4,a4,1
     4a8:	fee696e3          	bne	a3,a4,494 <drawNumber.constprop.1+0x1f0>
     4ac:	e79ff06f          	j	324 <drawNumber.constprop.1+0x80>
     4b0:	03400513          	li	a0,52
     4b4:	00012423          	sw	zero,8(sp)
     4b8:	00012623          	sw	zero,12(sp)
     4bc:	108010ef          	jal	15c4 <getLetterFromArray>
     4c0:	08002737          	lui	a4,0x8002
     4c4:	080026b7          	lui	a3,0x8002
     4c8:	44070713          	addi	a4,a4,1088 # 8002440 <_stack_end+0x7ef4bd0>
     4cc:	45268693          	addi	a3,a3,1106 # 8002452 <_stack_end+0x7ef4be2>
     4d0:	ffffe637          	lui	a2,0xffffe
     4d4:	00e40733          	add	a4,s0,a4
     4d8:	00d406b3          	add	a3,s0,a3
     4dc:	5c060613          	addi	a2,a2,1472 # ffffe5c0 <_stack_end+0xffef0d50>
     4e0:	00c707b3          	add	a5,a4,a2
     4e4:	00078023          	sb	zero,0(a5)
     4e8:	14078793          	addi	a5,a5,320
     4ec:	fee79ce3          	bne	a5,a4,4e4 <drawNumber.constprop.1+0x240>
     4f0:	00170713          	addi	a4,a4,1
     4f4:	fed716e3          	bne	a4,a3,4e0 <drawNumber.constprop.1+0x23c>
     4f8:	e2dff06f          	j	324 <drawNumber.constprop.1+0x80>
     4fc:	03500513          	li	a0,53
     500:	00012423          	sw	zero,8(sp)
     504:	00012623          	sw	zero,12(sp)
     508:	0bc010ef          	jal	15c4 <getLetterFromArray>
     50c:	08002737          	lui	a4,0x8002
     510:	080026b7          	lui	a3,0x8002
     514:	44070713          	addi	a4,a4,1088 # 8002440 <_stack_end+0x7ef4bd0>
     518:	45268693          	addi	a3,a3,1106 # 8002452 <_stack_end+0x7ef4be2>
     51c:	ffffe637          	lui	a2,0xffffe
     520:	00e40733          	add	a4,s0,a4
     524:	00d406b3          	add	a3,s0,a3
     528:	5c060613          	addi	a2,a2,1472 # ffffe5c0 <_stack_end+0xffef0d50>
     52c:	00c707b3          	add	a5,a4,a2
     530:	00078023          	sb	zero,0(a5)
     534:	14078793          	addi	a5,a5,320
     538:	fef71ce3          	bne	a4,a5,530 <drawNumber.constprop.1+0x28c>
     53c:	00170713          	addi	a4,a4,1
     540:	fee696e3          	bne	a3,a4,52c <drawNumber.constprop.1+0x288>
     544:	de1ff06f          	j	324 <drawNumber.constprop.1+0x80>
     548:	03600513          	li	a0,54
     54c:	00012423          	sw	zero,8(sp)
     550:	00012623          	sw	zero,12(sp)
     554:	070010ef          	jal	15c4 <getLetterFromArray>
     558:	08002737          	lui	a4,0x8002
     55c:	080026b7          	lui	a3,0x8002
     560:	44070713          	addi	a4,a4,1088 # 8002440 <_stack_end+0x7ef4bd0>
     564:	45268693          	addi	a3,a3,1106 # 8002452 <_stack_end+0x7ef4be2>
     568:	ffffe637          	lui	a2,0xffffe
     56c:	00e40733          	add	a4,s0,a4
     570:	00d406b3          	add	a3,s0,a3
     574:	5c060613          	addi	a2,a2,1472 # ffffe5c0 <_stack_end+0xffef0d50>
     578:	00c707b3          	add	a5,a4,a2
     57c:	00078023          	sb	zero,0(a5)
     580:	14078793          	addi	a5,a5,320
     584:	fef71ce3          	bne	a4,a5,57c <drawNumber.constprop.1+0x2d8>
     588:	00170713          	addi	a4,a4,1
     58c:	fee696e3          	bne	a3,a4,578 <drawNumber.constprop.1+0x2d4>
     590:	d95ff06f          	j	324 <drawNumber.constprop.1+0x80>
     594:	00c10613          	addi	a2,sp,12
     598:	00810593          	addi	a1,sp,8
     59c:	03900513          	li	a0,57
     5a0:	00012423          	sw	zero,8(sp)
     5a4:	00012623          	sw	zero,12(sp)
     5a8:	01c010ef          	jal	15c4 <getLetterFromArray>
     5ac:	08002737          	lui	a4,0x8002
     5b0:	080027b7          	lui	a5,0x8002
     5b4:	44070713          	addi	a4,a4,1088 # 8002440 <_stack_end+0x7ef4bd0>
     5b8:	45278793          	addi	a5,a5,1106 # 8002452 <_stack_end+0x7ef4be2>
     5bc:	ffffe6b7          	lui	a3,0xffffe
     5c0:	00e40733          	add	a4,s0,a4
     5c4:	5c068693          	addi	a3,a3,1472 # ffffe5c0 <_stack_end+0xffef0d50>
     5c8:	00f40433          	add	s0,s0,a5
     5cc:	00d707b3          	add	a5,a4,a3
     5d0:	00078023          	sb	zero,0(a5)
     5d4:	14078793          	addi	a5,a5,320
     5d8:	fef71ce3          	bne	a4,a5,5d0 <drawNumber.constprop.1+0x32c>
     5dc:	00170713          	addi	a4,a4,1
     5e0:	fee416e3          	bne	s0,a4,5cc <drawNumber.constprop.1+0x328>
     5e4:	d41ff06f          	j	324 <drawNumber.constprop.1+0x80>

000005e8 <drawPixel>:
     5e8:	00259793          	slli	a5,a1,0x2
     5ec:	00b785b3          	add	a1,a5,a1
     5f0:	00659593          	slli	a1,a1,0x6
     5f4:	00a585b3          	add	a1,a1,a0
     5f8:	080007b7          	lui	a5,0x8000
     5fc:	00b787b3          	add	a5,a5,a1
     600:	0ff67613          	zext.b	a2,a2
     604:	00c78023          	sb	a2,0(a5) # 8000000 <_stack_end+0x7ef2790>
     608:	00008067          	ret

0000060c <drawCell>:
     60c:	00052783          	lw	a5,0(a0)
     610:	00400713          	li	a4,4
     614:	00000813          	li	a6,0
     618:	fff78793          	addi	a5,a5,-1
     61c:	00f76c63          	bltu	a4,a5,634 <drawCell+0x28>
     620:	00005737          	lui	a4,0x5
     624:	00279793          	slli	a5,a5,0x2
     628:	b2c70713          	addi	a4,a4,-1236 # 4b2c <CSWTCH.8>
     62c:	00f707b3          	add	a5,a4,a5
     630:	0007c803          	lbu	a6,0(a5)
     634:	00452783          	lw	a5,4(a0)
     638:	00852603          	lw	a2,8(a0)
     63c:	08000337          	lui	t1,0x8000
     640:	00379893          	slli	a7,a5,0x3
     644:	00f888b3          	add	a7,a7,a5
     648:	04688893          	addi	a7,a7,70
     64c:	00361593          	slli	a1,a2,0x3
     650:	00c585b3          	add	a1,a1,a2
     654:	01e58693          	addi	a3,a1,30
     658:	00269793          	slli	a5,a3,0x2
     65c:	00d787b3          	add	a5,a5,a3
     660:	00679793          	slli	a5,a5,0x6
     664:	011787b3          	add	a5,a5,a7
     668:	00f307b3          	add	a5,t1,a5
     66c:	01078023          	sb	a6,0(a5)
     670:	00852603          	lw	a2,8(a0)
     674:	00168693          	addi	a3,a3,1
     678:	14078793          	addi	a5,a5,320
     67c:	00361593          	slli	a1,a2,0x3
     680:	00c58733          	add	a4,a1,a2
     684:	02670713          	addi	a4,a4,38
     688:	fed752e3          	bge	a4,a3,66c <drawCell+0x60>
     68c:	00452703          	lw	a4,4(a0)
     690:	00188893          	addi	a7,a7,1
     694:	00371793          	slli	a5,a4,0x3
     698:	00e787b3          	add	a5,a5,a4
     69c:	04e78793          	addi	a5,a5,78
     6a0:	fb17d8e3          	bge	a5,a7,650 <drawCell+0x44>
     6a4:	00008067          	ret

000006a8 <drawBoard>:
     6a8:	00052783          	lw	a5,0(a0)
     6ac:	00050e93          	mv	t4,a0
     6b0:	0cf05c63          	blez	a5,788 <drawBoard+0xe0>
     6b4:	00452783          	lw	a5,4(a0)
     6b8:	00005fb7          	lui	t6,0x5
     6bc:	00050393          	mv	t2,a0
     6c0:	00000293          	li	t0,0
     6c4:	00400f13          	li	t5,4
     6c8:	b2cf8f93          	addi	t6,t6,-1236 # 4b2c <CSWTCH.8>
     6cc:	08000337          	lui	t1,0x8000
     6d0:	0af05c63          	blez	a5,788 <drawBoard+0xe0>
     6d4:	00038513          	mv	a0,t2
     6d8:	00000e13          	li	t3,0
     6dc:	00852783          	lw	a5,8(a0)
     6e0:	00000813          	li	a6,0
     6e4:	fff78793          	addi	a5,a5,-1
     6e8:	00ff6863          	bltu	t5,a5,6f8 <drawBoard+0x50>
     6ec:	00279793          	slli	a5,a5,0x2
     6f0:	00ff87b3          	add	a5,t6,a5
     6f4:	0007c803          	lbu	a6,0(a5)
     6f8:	00c52783          	lw	a5,12(a0)
     6fc:	01052603          	lw	a2,16(a0)
     700:	00379893          	slli	a7,a5,0x3
     704:	00f888b3          	add	a7,a7,a5
     708:	04688893          	addi	a7,a7,70
     70c:	00361593          	slli	a1,a2,0x3
     710:	00c585b3          	add	a1,a1,a2
     714:	01e58693          	addi	a3,a1,30
     718:	00269793          	slli	a5,a3,0x2
     71c:	00d787b3          	add	a5,a5,a3
     720:	00679793          	slli	a5,a5,0x6
     724:	011787b3          	add	a5,a5,a7
     728:	00f307b3          	add	a5,t1,a5
     72c:	01078023          	sb	a6,0(a5)
     730:	01052603          	lw	a2,16(a0)
     734:	00168693          	addi	a3,a3,1
     738:	14078793          	addi	a5,a5,320
     73c:	00361593          	slli	a1,a2,0x3
     740:	00c58733          	add	a4,a1,a2
     744:	02670713          	addi	a4,a4,38
     748:	fed752e3          	bge	a4,a3,72c <drawBoard+0x84>
     74c:	00c52703          	lw	a4,12(a0)
     750:	00188893          	addi	a7,a7,1
     754:	00371793          	slli	a5,a4,0x3
     758:	00e787b3          	add	a5,a5,a4
     75c:	04e78793          	addi	a5,a5,78
     760:	fb17d8e3          	bge	a5,a7,710 <drawBoard+0x68>
     764:	004ea783          	lw	a5,4(t4)
     768:	001e0e13          	addi	t3,t3,1
     76c:	01050513          	addi	a0,a0,16
     770:	f6fe46e3          	blt	t3,a5,6dc <drawBoard+0x34>
     774:	000ea703          	lw	a4,0(t4)
     778:	00128293          	addi	t0,t0,1
     77c:	00e2d663          	bge	t0,a4,788 <drawBoard+0xe0>
     780:	14038393          	addi	t2,t2,320
     784:	f4f048e3          	bgtz	a5,6d4 <drawBoard+0x2c>
     788:	00008067          	ret

0000078c <clearScreen>:
     78c:	08013737          	lui	a4,0x8013
     790:	080007b7          	lui	a5,0x8000
     794:	c0070713          	addi	a4,a4,-1024 # 8012c00 <_stack_end+0x7f05390>
     798:	00078023          	sb	zero,0(a5) # 8000000 <_stack_end+0x7ef2790>
     79c:	00178793          	addi	a5,a5,1
     7a0:	fee79ce3          	bne	a5,a4,798 <clearScreen+0xc>
     7a4:	00008067          	ret

000007a8 <drawMenuHighlight>:
     7a8:	00259793          	slli	a5,a1,0x2
     7ac:	fe010113          	addi	sp,sp,-32
     7b0:	00b787b3          	add	a5,a5,a1
     7b4:	00812c23          	sw	s0,24(sp)
     7b8:	00050413          	mv	s0,a0
     7bc:	00179513          	slli	a0,a5,0x1
     7c0:	00112e23          	sw	ra,28(sp)
     7c4:	00912a23          	sw	s1,20(sp)
     7c8:	01212823          	sw	s2,16(sp)
     7cc:	01312623          	sw	s3,12(sp)
     7d0:	01412423          	sw	s4,8(sp)
     7d4:	01512223          	sw	s5,4(sp)
     7d8:	6ac020ef          	jal	2e84 <__floatsidf>
     7dc:	0000dab7          	lui	s5,0xd
     7e0:	7b0aa603          	lw	a2,1968(s5) # d7b0 <image_data+0x6db4>
     7e4:	7b4aa683          	lw	a3,1972(s5)
     7e8:	0000da37          	lui	s4,0xd
     7ec:	0000d9b7          	lui	s3,0xd
     7f0:	084020ef          	jal	2874 <__adddf3>
     7f4:	7b8a2603          	lw	a2,1976(s4) # d7b8 <image_data+0x6dbc>
     7f8:	7bca2683          	lw	a3,1980(s4)
     7fc:	0000d937          	lui	s2,0xd
     800:	0000d4b7          	lui	s1,0xd
     804:	380020ef          	jal	2b84 <__divdf3>
     808:	7c09a603          	lw	a2,1984(s3) # d7c0 <image_data+0x6dc4>
     80c:	7c49a683          	lw	a3,1988(s3)
     810:	6b4020ef          	jal	2ec4 <__muldf3>
     814:	7c892603          	lw	a2,1992(s2) # d7c8 <image_data+0x6dcc>
     818:	7cc92683          	lw	a3,1996(s2)
     81c:	058020ef          	jal	2874 <__adddf3>
     820:	7d44a683          	lw	a3,2004(s1) # d7d4 <image_data+0x6dd8>
     824:	7d04a603          	lw	a2,2000(s1)
     828:	04c020ef          	jal	2874 <__adddf3>
     82c:	011020ef          	jal	303c <__truncdfsf2>
     830:	604020ef          	jal	2e34 <__fixsfsi>
     834:	00251793          	slli	a5,a0,0x2
     838:	00a78733          	add	a4,a5,a0
     83c:	080006b7          	lui	a3,0x8000
     840:	080007b7          	lui	a5,0x8000
     844:	00671713          	slli	a4,a4,0x6
     848:	06078793          	addi	a5,a5,96 # 8000060 <_stack_end+0x7ef27f0>
     84c:	0e068693          	addi	a3,a3,224 # 80000e0 <_stack_end+0x7ef2870>
     850:	00f707b3          	add	a5,a4,a5
     854:	00d70733          	add	a4,a4,a3
     858:	00078023          	sb	zero,0(a5)
     85c:	14078023          	sb	zero,320(a5)
     860:	28078023          	sb	zero,640(a5)
     864:	00178793          	addi	a5,a5,1
     868:	fef718e3          	bne	a4,a5,858 <__heap_size+0x58>
     86c:	00241513          	slli	a0,s0,0x2
     870:	00850533          	add	a0,a0,s0
     874:	00151513          	slli	a0,a0,0x1
     878:	60c020ef          	jal	2e84 <__floatsidf>
     87c:	7b0aa603          	lw	a2,1968(s5)
     880:	7b4aa683          	lw	a3,1972(s5)
     884:	7f1010ef          	jal	2874 <__adddf3>
     888:	7b8a2603          	lw	a2,1976(s4)
     88c:	7bca2683          	lw	a3,1980(s4)
     890:	2f4020ef          	jal	2b84 <__divdf3>
     894:	7c09a603          	lw	a2,1984(s3)
     898:	7c49a683          	lw	a3,1988(s3)
     89c:	628020ef          	jal	2ec4 <__muldf3>
     8a0:	7c892603          	lw	a2,1992(s2)
     8a4:	7cc92683          	lw	a3,1996(s2)
     8a8:	7cd010ef          	jal	2874 <__adddf3>
     8ac:	7d44a683          	lw	a3,2004(s1)
     8b0:	7d04a603          	lw	a2,2000(s1)
     8b4:	7c1010ef          	jal	2874 <__adddf3>
     8b8:	784020ef          	jal	303c <__truncdfsf2>
     8bc:	578020ef          	jal	2e34 <__fixsfsi>
     8c0:	00251793          	slli	a5,a0,0x2
     8c4:	00a786b3          	add	a3,a5,a0
     8c8:	08000737          	lui	a4,0x8000
     8cc:	080007b7          	lui	a5,0x8000
     8d0:	00669693          	slli	a3,a3,0x6
     8d4:	0e070713          	addi	a4,a4,224 # 80000e0 <_stack_end+0x7ef2870>
     8d8:	06078793          	addi	a5,a5,96 # 8000060 <_stack_end+0x7ef27f0>
     8dc:	00f687b3          	add	a5,a3,a5
     8e0:	00e686b3          	add	a3,a3,a4
     8e4:	01c00713          	li	a4,28
     8e8:	00e78023          	sb	a4,0(a5)
     8ec:	14e78023          	sb	a4,320(a5)
     8f0:	28e78023          	sb	a4,640(a5)
     8f4:	00178793          	addi	a5,a5,1
     8f8:	fef698e3          	bne	a3,a5,8e8 <__heap_size+0xe8>
     8fc:	01c12083          	lw	ra,28(sp)
     900:	01812403          	lw	s0,24(sp)
     904:	01412483          	lw	s1,20(sp)
     908:	01012903          	lw	s2,16(sp)
     90c:	00c12983          	lw	s3,12(sp)
     910:	00812a03          	lw	s4,8(sp)
     914:	00412a83          	lw	s5,4(sp)
     918:	02010113          	addi	sp,sp,32
     91c:	00008067          	ret

00000920 <drawMainMenu>:
     920:	ffff98b7          	lui	a7,0xffff9
     924:	08002837          	lui	a6,0x8002
     928:	0000d637          	lui	a2,0xd
     92c:	75c60613          	addi	a2,a2,1884 # d75c <image_data+0x6d60>
     930:	00000513          	li	a0,0
     934:	2a088893          	addi	a7,a7,672 # ffff92a0 <_stack_end+0xffeeba30>
     938:	5d080813          	addi	a6,a6,1488 # 80025d0 <_stack_end+0x7ef4d60>
     93c:	fff00593          	li	a1,-1
     940:	0a000313          	li	t1,160
     944:	011607b3          	add	a5,a2,a7
     948:	01050733          	add	a4,a0,a6
     94c:	0140006f          	j	960 <drawMainMenu+0x40>
     950:	00b70023          	sb	a1,0(a4)
     954:	0a078793          	addi	a5,a5,160
     958:	14070713          	addi	a4,a4,320
     95c:	00f60e63          	beq	a2,a5,978 <drawMainMenu+0x58>
     960:	0007c683          	lbu	a3,0(a5)
     964:	fe0696e3          	bnez	a3,950 <drawMainMenu+0x30>
     968:	00070023          	sb	zero,0(a4)
     96c:	0a078793          	addi	a5,a5,160
     970:	14070713          	addi	a4,a4,320
     974:	fef616e3          	bne	a2,a5,960 <drawMainMenu+0x40>
     978:	00150513          	addi	a0,a0,1
     97c:	00160613          	addi	a2,a2,1
     980:	fc6512e3          	bne	a0,t1,944 <drawMainMenu+0x24>
     984:	00008067          	ret

00000988 <drawHighscoreHighlight>:
     988:	00261713          	slli	a4,a2,0x2
     98c:	00c70733          	add	a4,a4,a2
     990:	080097b7          	lui	a5,0x8009
     994:	080096b7          	lui	a3,0x8009
     998:	00271713          	slli	a4,a4,0x2
     99c:	65078793          	addi	a5,a5,1616 # 8009650 <_stack_end+0x7efbde0>
     9a0:	66268693          	addi	a3,a3,1634 # 8009662 <_stack_end+0x7efbdf2>
     9a4:	00f707b3          	add	a5,a4,a5
     9a8:	00d70733          	add	a4,a4,a3
     9ac:	00078023          	sb	zero,0(a5)
     9b0:	14078023          	sb	zero,320(a5)
     9b4:	00178793          	addi	a5,a5,1
     9b8:	fef71ae3          	bne	a4,a5,9ac <drawHighscoreHighlight+0x24>
     9bc:	00259693          	slli	a3,a1,0x2
     9c0:	00b686b3          	add	a3,a3,a1
     9c4:	080097b7          	lui	a5,0x8009
     9c8:	08009637          	lui	a2,0x8009
     9cc:	00269693          	slli	a3,a3,0x2
     9d0:	65078793          	addi	a5,a5,1616 # 8009650 <_stack_end+0x7efbde0>
     9d4:	66260613          	addi	a2,a2,1634 # 8009662 <_stack_end+0x7efbdf2>
     9d8:	00f687b3          	add	a5,a3,a5
     9dc:	0ff57713          	zext.b	a4,a0
     9e0:	00c686b3          	add	a3,a3,a2
     9e4:	00e78023          	sb	a4,0(a5)
     9e8:	14e78023          	sb	a4,320(a5)
     9ec:	00178793          	addi	a5,a5,1
     9f0:	fef69ae3          	bne	a3,a5,9e4 <drawHighscoreHighlight+0x5c>
     9f4:	00008067          	ret

000009f8 <drawLetter>:
     9f8:	fe010113          	addi	sp,sp,-32
     9fc:	00812c23          	sw	s0,24(sp)
     a00:	00912a23          	sw	s1,20(sp)
     a04:	00058413          	mv	s0,a1
     a08:	00060493          	mv	s1,a2
     a0c:	00810593          	addi	a1,sp,8
     a10:	00c10613          	addi	a2,sp,12
     a14:	01212823          	sw	s2,16(sp)
     a18:	00112e23          	sw	ra,28(sp)
     a1c:	00068913          	mv	s2,a3
     a20:	00012423          	sw	zero,8(sp)
     a24:	00012623          	sw	zero,12(sp)
     a28:	39d000ef          	jal	15c4 <getLetterFromArray>
     a2c:	00100793          	li	a5,1
     a30:	0af90863          	beq	s2,a5,ae0 <drawLetter+0xe8>
     a34:	00812703          	lw	a4,8(sp)
     a38:	00c12783          	lw	a5,12(sp)
     a3c:	01500513          	li	a0,21
     a40:	01400693          	li	a3,20
     a44:	40e787b3          	sub	a5,a5,a4
     a48:	02a7c533          	div	a0,a5,a0
     a4c:	06f6de63          	bge	a3,a5,ac8 <drawLetter+0xd0>
     a50:	00249613          	slli	a2,s1,0x2
     a54:	00960633          	add	a2,a2,s1
     a58:	00661613          	slli	a2,a2,0x6
     a5c:	080027b7          	lui	a5,0x8002
     a60:	000068b7          	lui	a7,0x6
     a64:	00860633          	add	a2,a2,s0
     a68:	a4078793          	addi	a5,a5,-1472 # 8001a40 <_stack_end+0x7ef41d0>
     a6c:	ffffe337          	lui	t1,0xffffe
     a70:	b6088893          	addi	a7,a7,-1184 # 5b60 <letter_images>
     a74:	00f60633          	add	a2,a2,a5
     a78:	00000813          	li	a6,0
     a7c:	00e888b3          	add	a7,a7,a4
     a80:	5c030313          	addi	t1,t1,1472 # ffffe5c0 <_stack_end+0xffef0d50>
     a84:	fff00593          	li	a1,-1
     a88:	01088733          	add	a4,a7,a6
     a8c:	006607b3          	add	a5,a2,t1
     a90:	0140006f          	j	aa4 <drawLetter+0xac>
     a94:	00078023          	sb	zero,0(a5)
     a98:	14078793          	addi	a5,a5,320
     a9c:	00a70733          	add	a4,a4,a0
     aa0:	00c78e63          	beq	a5,a2,abc <drawLetter+0xc4>
     aa4:	00074683          	lbu	a3,0(a4)
     aa8:	fe0686e3          	beqz	a3,a94 <drawLetter+0x9c>
     aac:	00b78023          	sb	a1,0(a5)
     ab0:	14078793          	addi	a5,a5,320
     ab4:	00a70733          	add	a4,a4,a0
     ab8:	fec796e3          	bne	a5,a2,aa4 <drawLetter+0xac>
     abc:	00180813          	addi	a6,a6,1
     ac0:	00160613          	addi	a2,a2,1
     ac4:	fd0512e3          	bne	a0,a6,a88 <drawLetter+0x90>
     ac8:	01c12083          	lw	ra,28(sp)
     acc:	01812403          	lw	s0,24(sp)
     ad0:	01412483          	lw	s1,20(sp)
     ad4:	01012903          	lw	s2,16(sp)
     ad8:	02010113          	addi	sp,sp,32
     adc:	00008067          	ret
     ae0:	00249713          	slli	a4,s1,0x2
     ae4:	00970733          	add	a4,a4,s1
     ae8:	00671713          	slli	a4,a4,0x6
     aec:	080027b7          	lui	a5,0x8002
     af0:	00870733          	add	a4,a4,s0
     af4:	a4078793          	addi	a5,a5,-1472 # 8001a40 <_stack_end+0x7ef41d0>
     af8:	ffffe637          	lui	a2,0xffffe
     afc:	00040693          	mv	a3,s0
     b00:	00f70733          	add	a4,a4,a5
     b04:	01240593          	addi	a1,s0,18
     b08:	5c060613          	addi	a2,a2,1472 # ffffe5c0 <_stack_end+0xffef0d50>
     b0c:	00c707b3          	add	a5,a4,a2
     b10:	00078023          	sb	zero,0(a5)
     b14:	14078793          	addi	a5,a5,320
     b18:	fee79ce3          	bne	a5,a4,b10 <drawLetter+0x118>
     b1c:	00168693          	addi	a3,a3,1
     b20:	00170713          	addi	a4,a4,1
     b24:	feb694e3          	bne	a3,a1,b0c <drawLetter+0x114>
     b28:	01c12083          	lw	ra,28(sp)
     b2c:	01812403          	lw	s0,24(sp)
     b30:	01412483          	lw	s1,20(sp)
     b34:	01012903          	lw	s2,16(sp)
     b38:	02010113          	addi	sp,sp,32
     b3c:	00008067          	ret

00000b40 <drawNumber>:
     b40:	00800793          	li	a5,8
     b44:	06a7e263          	bltu	a5,a0,ba8 <drawNumber+0x68>
     b48:	000057b7          	lui	a5,0x5
     b4c:	b0878793          	addi	a5,a5,-1272 # 4b08 <player_button+0x4c>
     b50:	00251513          	slli	a0,a0,0x2
     b54:	00f50533          	add	a0,a0,a5
     b58:	00052783          	lw	a5,0(a0)
     b5c:	00078067          	jr	a5
     b60:	03700513          	li	a0,55
     b64:	e95ff06f          	j	9f8 <drawLetter>
     b68:	03800513          	li	a0,56
     b6c:	e8dff06f          	j	9f8 <drawLetter>
     b70:	03000513          	li	a0,48
     b74:	e85ff06f          	j	9f8 <drawLetter>
     b78:	03100513          	li	a0,49
     b7c:	e7dff06f          	j	9f8 <drawLetter>
     b80:	03200513          	li	a0,50
     b84:	e75ff06f          	j	9f8 <drawLetter>
     b88:	03300513          	li	a0,51
     b8c:	e6dff06f          	j	9f8 <drawLetter>
     b90:	03400513          	li	a0,52
     b94:	e65ff06f          	j	9f8 <drawLetter>
     b98:	03500513          	li	a0,53
     b9c:	e5dff06f          	j	9f8 <drawLetter>
     ba0:	03600513          	li	a0,54
     ba4:	e55ff06f          	j	9f8 <drawLetter>
     ba8:	03900513          	li	a0,57
     bac:	e4dff06f          	j	9f8 <drawLetter>

00000bb0 <drawGameScore>:
     bb0:	fe010113          	addi	sp,sp,-32
     bb4:	01212823          	sw	s2,16(sp)
     bb8:	00a00913          	li	s2,10
     bbc:	01412423          	sw	s4,8(sp)
     bc0:	03256a33          	rem	s4,a0,s2
     bc4:	00812c23          	sw	s0,24(sp)
     bc8:	08500593          	li	a1,133
     bcc:	00050413          	mv	s0,a0
     bd0:	00112e23          	sw	ra,28(sp)
     bd4:	00912a23          	sw	s1,20(sp)
     bd8:	01312623          	sw	s3,12(sp)
     bdc:	06400493          	li	s1,100
     be0:	000a0513          	mv	a0,s4
     be4:	ec0ff0ef          	jal	2a4 <drawNumber.constprop.1>
     be8:	032449b3          	div	s3,s0,s2
     bec:	07100593          	li	a1,113
     bf0:	0329e9b3          	rem	s3,s3,s2
     bf4:	00098513          	mv	a0,s3
     bf8:	eacff0ef          	jal	2a4 <drawNumber.constprop.1>
     bfc:	029444b3          	div	s1,s0,s1
     c00:	05d00593          	li	a1,93
     c04:	0324e4b3          	rem	s1,s1,s2
     c08:	00048513          	mv	a0,s1
     c0c:	e98ff0ef          	jal	2a4 <drawNumber.constprop.1>
     c10:	3e800793          	li	a5,1000
     c14:	02f44433          	div	s0,s0,a5
     c18:	04900593          	li	a1,73
     c1c:	03246433          	rem	s0,s0,s2
     c20:	00040513          	mv	a0,s0
     c24:	e80ff0ef          	jal	2a4 <drawNumber.constprop.1>
     c28:	000a0513          	mv	a0,s4
     c2c:	08500593          	li	a1,133
     c30:	e04ff0ef          	jal	234 <drawNumber.constprop.0>
     c34:	00098513          	mv	a0,s3
     c38:	07100593          	li	a1,113
     c3c:	df8ff0ef          	jal	234 <drawNumber.constprop.0>
     c40:	00048513          	mv	a0,s1
     c44:	05d00593          	li	a1,93
     c48:	decff0ef          	jal	234 <drawNumber.constprop.0>
     c4c:	00040513          	mv	a0,s0
     c50:	01812403          	lw	s0,24(sp)
     c54:	01c12083          	lw	ra,28(sp)
     c58:	01412483          	lw	s1,20(sp)
     c5c:	01012903          	lw	s2,16(sp)
     c60:	00c12983          	lw	s3,12(sp)
     c64:	00812a03          	lw	s4,8(sp)
     c68:	04900593          	li	a1,73
     c6c:	02010113          	addi	sp,sp,32
     c70:	dc4ff06f          	j	234 <drawNumber.constprop.0>

00000c74 <drawHighscoreCol>:
     c74:	000027b7          	lui	a5,0x2
     c78:	58078793          	addi	a5,a5,1408 # 2580 <nextprime+0x2c>
     c7c:	02f50733          	mul	a4,a0,a5
     c80:	080096b7          	lui	a3,0x8009
     c84:	00005637          	lui	a2,0x5
     c88:	b2c60613          	addi	a2,a2,-1236 # 4b2c <CSWTCH.8>
     c8c:	8f168693          	addi	a3,a3,-1807 # 80088f1 <_stack_end+0x7efb081>
     c90:	ffffffb7          	lui	t6,0xfffff
     c94:	ffffff37          	lui	t5,0xfffff
     c98:	fffffeb7          	lui	t4,0xfffff
     c9c:	fffffe37          	lui	t3,0xfffff
     ca0:	fffff337          	lui	t1,0xfffff
     ca4:	fffff8b7          	lui	a7,0xfffff
     ca8:	fffff837          	lui	a6,0xfffff
     cac:	fffff537          	lui	a0,0xfffff
     cb0:	01460793          	addi	a5,a2,20
     cb4:	00d70733          	add	a4,a4,a3
     cb8:	01860613          	addi	a2,a2,24
     cbc:	e80f8f93          	addi	t6,t6,-384 # ffffee80 <_stack_end+0xffef1610>
     cc0:	fff00693          	li	a3,-1
     cc4:	fc0f0f13          	addi	t5,t5,-64 # ffffefc0 <_stack_end+0xffef1750>
     cc8:	100e8e93          	addi	t4,t4,256 # fffff100 <_stack_end+0xffef1890>
     ccc:	240e0e13          	addi	t3,t3,576 # fffff240 <_stack_end+0xffef19d0>
     cd0:	38030313          	addi	t1,t1,896 # fffff380 <_stack_end+0xffef1b10>
     cd4:	4c088893          	addi	a7,a7,1216 # fffff4c0 <_stack_end+0xffef1c50>
     cd8:	60080813          	addi	a6,a6,1536 # fffff600 <_stack_end+0xffef1d90>
     cdc:	74050513          	addi	a0,a0,1856 # fffff740 <_stack_end+0xffef1ed0>
     ce0:	0007c583          	lbu	a1,0(a5)
     ce4:	00058663          	beqz	a1,cf0 <drawHighscoreCol+0x7c>
     ce8:	01f705b3          	add	a1,a4,t6
     cec:	00d58023          	sb	a3,0(a1)
     cf0:	0047c583          	lbu	a1,4(a5)
     cf4:	00058663          	beqz	a1,d00 <drawHighscoreCol+0x8c>
     cf8:	01e705b3          	add	a1,a4,t5
     cfc:	00d58023          	sb	a3,0(a1)
     d00:	0087c583          	lbu	a1,8(a5)
     d04:	00058663          	beqz	a1,d10 <drawHighscoreCol+0x9c>
     d08:	01d705b3          	add	a1,a4,t4
     d0c:	00d58023          	sb	a3,0(a1)
     d10:	00c7c583          	lbu	a1,12(a5)
     d14:	00058663          	beqz	a1,d20 <drawHighscoreCol+0xac>
     d18:	01c705b3          	add	a1,a4,t3
     d1c:	00d58023          	sb	a3,0(a1)
     d20:	0107c583          	lbu	a1,16(a5)
     d24:	00058663          	beqz	a1,d30 <drawHighscoreCol+0xbc>
     d28:	006705b3          	add	a1,a4,t1
     d2c:	00d58023          	sb	a3,0(a1)
     d30:	0147c583          	lbu	a1,20(a5)
     d34:	00058663          	beqz	a1,d40 <drawHighscoreCol+0xcc>
     d38:	011705b3          	add	a1,a4,a7
     d3c:	00d58023          	sb	a3,0(a1)
     d40:	0187c583          	lbu	a1,24(a5)
     d44:	00058663          	beqz	a1,d50 <drawHighscoreCol+0xdc>
     d48:	010705b3          	add	a1,a4,a6
     d4c:	00d58023          	sb	a3,0(a1)
     d50:	01c7c583          	lbu	a1,28(a5)
     d54:	00058663          	beqz	a1,d60 <drawHighscoreCol+0xec>
     d58:	00a705b3          	add	a1,a4,a0
     d5c:	00d58023          	sb	a3,0(a1)
     d60:	0207c583          	lbu	a1,32(a5)
     d64:	00058463          	beqz	a1,d6c <drawHighscoreCol+0xf8>
     d68:	88d70023          	sb	a3,-1920(a4)
     d6c:	0247c583          	lbu	a1,36(a5)
     d70:	00058463          	beqz	a1,d78 <drawHighscoreCol+0x104>
     d74:	9cd70023          	sb	a3,-1600(a4)
     d78:	0287c583          	lbu	a1,40(a5)
     d7c:	00058463          	beqz	a1,d84 <drawHighscoreCol+0x110>
     d80:	b0d70023          	sb	a3,-1280(a4)
     d84:	02c7c583          	lbu	a1,44(a5)
     d88:	00058463          	beqz	a1,d90 <drawHighscoreCol+0x11c>
     d8c:	c4d70023          	sb	a3,-960(a4)
     d90:	0307c583          	lbu	a1,48(a5)
     d94:	00058463          	beqz	a1,d9c <drawHighscoreCol+0x128>
     d98:	d8d70023          	sb	a3,-640(a4)
     d9c:	0347c583          	lbu	a1,52(a5)
     da0:	00058463          	beqz	a1,da8 <drawHighscoreCol+0x134>
     da4:	ecd70023          	sb	a3,-320(a4)
     da8:	0387c583          	lbu	a1,56(a5)
     dac:	00058463          	beqz	a1,db4 <drawHighscoreCol+0x140>
     db0:	00d70023          	sb	a3,0(a4)
     db4:	00178793          	addi	a5,a5,1
     db8:	00170713          	addi	a4,a4,1
     dbc:	f2f612e3          	bne	a2,a5,ce0 <drawHighscoreCol+0x6c>
     dc0:	00008067          	ret

00000dc4 <drawHighscorePLAYER>:
     dc4:	fffff8b7          	lui	a7,0xfffff
     dc8:	08003837          	lui	a6,0x8003
     dcc:	00006637          	lui	a2,0x6
     dd0:	b6060613          	addi	a2,a2,-1184 # 5b60 <letter_images>
     dd4:	00000513          	li	a0,0
     dd8:	50888893          	addi	a7,a7,1288 # fffff508 <_stack_end+0xffef1c98>
     ddc:	23580813          	addi	a6,a6,565 # 8003235 <_stack_end+0x7ef59c5>
     de0:	fff00593          	li	a1,-1
     de4:	06800313          	li	t1,104
     de8:	011607b3          	add	a5,a2,a7
     dec:	01050733          	add	a4,a0,a6
     df0:	0140006f          	j	e04 <drawHighscorePLAYER+0x40>
     df4:	00b70023          	sb	a1,0(a4)
     df8:	06878793          	addi	a5,a5,104
     dfc:	14070713          	addi	a4,a4,320
     e00:	00f60e63          	beq	a2,a5,e1c <drawHighscorePLAYER+0x58>
     e04:	0007c683          	lbu	a3,0(a5)
     e08:	fe0696e3          	bnez	a3,df4 <drawHighscorePLAYER+0x30>
     e0c:	00070023          	sb	zero,0(a4)
     e10:	06878793          	addi	a5,a5,104
     e14:	14070713          	addi	a4,a4,320
     e18:	fef616e3          	bne	a2,a5,e04 <drawHighscorePLAYER+0x40>
     e1c:	00150513          	addi	a0,a0,1
     e20:	00160613          	addi	a2,a2,1
     e24:	fc6512e3          	bne	a0,t1,de8 <drawHighscorePLAYER+0x24>
     e28:	00008067          	ret

00000e2c <drawHighscoreSCORE>:
     e2c:	080057b7          	lui	a5,0x8005
     e30:	fffff2b7          	lui	t0,0xfffff
     e34:	ffffffb7          	lui	t6,0xfffff
     e38:	ffffff37          	lui	t5,0xfffff
     e3c:	fffffeb7          	lui	t4,0xfffff
     e40:	fffffe37          	lui	t3,0xfffff
     e44:	fffff337          	lui	t1,0xfffff
     e48:	fffff8b7          	lui	a7,0xfffff
     e4c:	fffff837          	lui	a6,0xfffff
     e50:	08005537          	lui	a0,0x8005
     e54:	00005737          	lui	a4,0x5
     e58:	b7c70713          	addi	a4,a4,-1156 # 4b7c <highscore_menu_score_image>
     e5c:	cf478793          	addi	a5,a5,-780 # 8004cf4 <_stack_end+0x7ef7484>
     e60:	e8028293          	addi	t0,t0,-384 # ffffee80 <_stack_end+0xffef1610>
     e64:	fff00693          	li	a3,-1
     e68:	fc0f8f93          	addi	t6,t6,-64 # ffffefc0 <_stack_end+0xffef1750>
     e6c:	100f0f13          	addi	t5,t5,256 # fffff100 <_stack_end+0xffef1890>
     e70:	240e8e93          	addi	t4,t4,576 # fffff240 <_stack_end+0xffef19d0>
     e74:	380e0e13          	addi	t3,t3,896 # fffff380 <_stack_end+0xffef1b10>
     e78:	4c030313          	addi	t1,t1,1216 # fffff4c0 <_stack_end+0xffef1c50>
     e7c:	60088893          	addi	a7,a7,1536 # fffff600 <_stack_end+0xffef1d90>
     e80:	74080813          	addi	a6,a6,1856 # fffff740 <_stack_end+0xffef1ed0>
     e84:	d4850513          	addi	a0,a0,-696 # 8004d48 <_stack_end+0x7ef74d8>
     e88:	0d80006f          	j	f60 <drawHighscoreSCORE+0x134>
     e8c:	00060023          	sb	zero,0(a2)
     e90:	05474583          	lbu	a1,84(a4)
     e94:	01f78633          	add	a2,a5,t6
     e98:	0e059263          	bnez	a1,f7c <drawHighscoreSCORE+0x150>
     e9c:	00060023          	sb	zero,0(a2)
     ea0:	0a874583          	lbu	a1,168(a4)
     ea4:	01e78633          	add	a2,a5,t5
     ea8:	0e059263          	bnez	a1,f8c <drawHighscoreSCORE+0x160>
     eac:	00060023          	sb	zero,0(a2)
     eb0:	0fc74583          	lbu	a1,252(a4)
     eb4:	01d78633          	add	a2,a5,t4
     eb8:	0e059263          	bnez	a1,f9c <drawHighscoreSCORE+0x170>
     ebc:	00060023          	sb	zero,0(a2)
     ec0:	15074583          	lbu	a1,336(a4)
     ec4:	01c78633          	add	a2,a5,t3
     ec8:	0e059263          	bnez	a1,fac <drawHighscoreSCORE+0x180>
     ecc:	00060023          	sb	zero,0(a2)
     ed0:	1a474583          	lbu	a1,420(a4)
     ed4:	00678633          	add	a2,a5,t1
     ed8:	0e059263          	bnez	a1,fbc <drawHighscoreSCORE+0x190>
     edc:	00060023          	sb	zero,0(a2)
     ee0:	1f874583          	lbu	a1,504(a4)
     ee4:	01178633          	add	a2,a5,a7
     ee8:	0e059263          	bnez	a1,fcc <drawHighscoreSCORE+0x1a0>
     eec:	00060023          	sb	zero,0(a2)
     ef0:	24c74583          	lbu	a1,588(a4)
     ef4:	01078633          	add	a2,a5,a6
     ef8:	0e059263          	bnez	a1,fdc <drawHighscoreSCORE+0x1b0>
     efc:	00060023          	sb	zero,0(a2)
     f00:	2a074603          	lbu	a2,672(a4)
     f04:	0e061263          	bnez	a2,fe8 <drawHighscoreSCORE+0x1bc>
     f08:	88078023          	sb	zero,-1920(a5)
     f0c:	2f474603          	lbu	a2,756(a4)
     f10:	0e061263          	bnez	a2,ff4 <drawHighscoreSCORE+0x1c8>
     f14:	9c078023          	sb	zero,-1600(a5)
     f18:	34874603          	lbu	a2,840(a4)
     f1c:	0e061263          	bnez	a2,1000 <drawHighscoreSCORE+0x1d4>
     f20:	b0078023          	sb	zero,-1280(a5)
     f24:	39c74603          	lbu	a2,924(a4)
     f28:	0e061263          	bnez	a2,100c <drawHighscoreSCORE+0x1e0>
     f2c:	c4078023          	sb	zero,-960(a5)
     f30:	3f074603          	lbu	a2,1008(a4)
     f34:	0e061263          	bnez	a2,1018 <drawHighscoreSCORE+0x1ec>
     f38:	d8078023          	sb	zero,-640(a5)
     f3c:	44474603          	lbu	a2,1092(a4)
     f40:	0e061263          	bnez	a2,1024 <drawHighscoreSCORE+0x1f8>
     f44:	ec078023          	sb	zero,-320(a5)
     f48:	49874603          	lbu	a2,1176(a4)
     f4c:	0e061263          	bnez	a2,1030 <drawHighscoreSCORE+0x204>
     f50:	00078023          	sb	zero,0(a5)
     f54:	00178793          	addi	a5,a5,1
     f58:	00170713          	addi	a4,a4,1
     f5c:	0ea78263          	beq	a5,a0,1040 <drawHighscoreSCORE+0x214>
     f60:	00074583          	lbu	a1,0(a4)
     f64:	00578633          	add	a2,a5,t0
     f68:	f20582e3          	beqz	a1,e8c <drawHighscoreSCORE+0x60>
     f6c:	00d60023          	sb	a3,0(a2)
     f70:	05474583          	lbu	a1,84(a4)
     f74:	01f78633          	add	a2,a5,t6
     f78:	f20582e3          	beqz	a1,e9c <drawHighscoreSCORE+0x70>
     f7c:	00d60023          	sb	a3,0(a2)
     f80:	0a874583          	lbu	a1,168(a4)
     f84:	01e78633          	add	a2,a5,t5
     f88:	f20582e3          	beqz	a1,eac <drawHighscoreSCORE+0x80>
     f8c:	00d60023          	sb	a3,0(a2)
     f90:	0fc74583          	lbu	a1,252(a4)
     f94:	01d78633          	add	a2,a5,t4
     f98:	f20582e3          	beqz	a1,ebc <drawHighscoreSCORE+0x90>
     f9c:	00d60023          	sb	a3,0(a2)
     fa0:	15074583          	lbu	a1,336(a4)
     fa4:	01c78633          	add	a2,a5,t3
     fa8:	f20582e3          	beqz	a1,ecc <drawHighscoreSCORE+0xa0>
     fac:	00d60023          	sb	a3,0(a2)
     fb0:	1a474583          	lbu	a1,420(a4)
     fb4:	00678633          	add	a2,a5,t1
     fb8:	f20582e3          	beqz	a1,edc <drawHighscoreSCORE+0xb0>
     fbc:	00d60023          	sb	a3,0(a2)
     fc0:	1f874583          	lbu	a1,504(a4)
     fc4:	01178633          	add	a2,a5,a7
     fc8:	f20582e3          	beqz	a1,eec <drawHighscoreSCORE+0xc0>
     fcc:	00d60023          	sb	a3,0(a2)
     fd0:	24c74583          	lbu	a1,588(a4)
     fd4:	01078633          	add	a2,a5,a6
     fd8:	f20582e3          	beqz	a1,efc <drawHighscoreSCORE+0xd0>
     fdc:	00d60023          	sb	a3,0(a2)
     fe0:	2a074603          	lbu	a2,672(a4)
     fe4:	f20602e3          	beqz	a2,f08 <drawHighscoreSCORE+0xdc>
     fe8:	88d78023          	sb	a3,-1920(a5)
     fec:	2f474603          	lbu	a2,756(a4)
     ff0:	f20602e3          	beqz	a2,f14 <drawHighscoreSCORE+0xe8>
     ff4:	9cd78023          	sb	a3,-1600(a5)
     ff8:	34874603          	lbu	a2,840(a4)
     ffc:	f20602e3          	beqz	a2,f20 <drawHighscoreSCORE+0xf4>
    1000:	b0d78023          	sb	a3,-1280(a5)
    1004:	39c74603          	lbu	a2,924(a4)
    1008:	f20602e3          	beqz	a2,f2c <drawHighscoreSCORE+0x100>
    100c:	c4d78023          	sb	a3,-960(a5)
    1010:	3f074603          	lbu	a2,1008(a4)
    1014:	f20602e3          	beqz	a2,f38 <drawHighscoreSCORE+0x10c>
    1018:	d8d78023          	sb	a3,-640(a5)
    101c:	44474603          	lbu	a2,1092(a4)
    1020:	f20602e3          	beqz	a2,f44 <drawHighscoreSCORE+0x118>
    1024:	ecd78023          	sb	a3,-320(a5)
    1028:	49874603          	lbu	a2,1176(a4)
    102c:	f20602e3          	beqz	a2,f50 <drawHighscoreSCORE+0x124>
    1030:	00d78023          	sb	a3,0(a5)
    1034:	00178793          	addi	a5,a5,1
    1038:	00170713          	addi	a4,a4,1
    103c:	f2a792e3          	bne	a5,a0,f60 <drawHighscoreSCORE+0x134>
    1040:	00008067          	ret

00001044 <drawHighscoreTitle>:
    1044:	080037b7          	lui	a5,0x8003
    1048:	08003537          	lui	a0,0x8003
    104c:	f80028b7          	lui	a7,0xf8002
    1050:	f8003837          	lui	a6,0xf8003
    1054:	23578793          	addi	a5,a5,565 # 8003235 <_stack_end+0x7ef59c5>
    1058:	e3388893          	addi	a7,a7,-461 # f8001e33 <_stack_end+0xf7ef45c3>
    105c:	fff00313          	li	t1,-1
    1060:	92b80813          	addi	a6,a6,-1749 # f800292b <_stack_end+0xf7ef50bb>
    1064:	29d50513          	addi	a0,a0,669 # 800329d <_stack_end+0x7ef5a2d>
    1068:	00f88733          	add	a4,a7,a5
    106c:	00078693          	mv	a3,a5
    1070:	00f805b3          	add	a1,a6,a5
    1074:	0140006f          	j	1088 <drawHighscoreTitle+0x44>
    1078:	00668023          	sb	t1,0(a3)
    107c:	06870713          	addi	a4,a4,104
    1080:	14068693          	addi	a3,a3,320
    1084:	00b70e63          	beq	a4,a1,10a0 <drawHighscoreTitle+0x5c>
    1088:	00074603          	lbu	a2,0(a4)
    108c:	fe0616e3          	bnez	a2,1078 <drawHighscoreTitle+0x34>
    1090:	00068023          	sb	zero,0(a3)
    1094:	06870713          	addi	a4,a4,104
    1098:	14068693          	addi	a3,a3,320
    109c:	feb716e3          	bne	a4,a1,1088 <drawHighscoreTitle+0x44>
    10a0:	00178793          	addi	a5,a5,1
    10a4:	fca792e3          	bne	a5,a0,1068 <drawHighscoreTitle+0x24>
    10a8:	080057b7          	lui	a5,0x8005
    10ac:	fffff8b7          	lui	a7,0xfffff
    10b0:	fffff837          	lui	a6,0xfffff
    10b4:	fffff2b7          	lui	t0,0xfffff
    10b8:	ffffffb7          	lui	t6,0xfffff
    10bc:	ffffff37          	lui	t5,0xfffff
    10c0:	fffffeb7          	lui	t4,0xfffff
    10c4:	fffffe37          	lui	t3,0xfffff
    10c8:	fffff337          	lui	t1,0xfffff
    10cc:	08005537          	lui	a0,0x8005
    10d0:	00005737          	lui	a4,0x5
    10d4:	b7c70713          	addi	a4,a4,-1156 # 4b7c <highscore_menu_score_image>
    10d8:	cf478793          	addi	a5,a5,-780 # 8004cf4 <_stack_end+0x7ef7484>
    10dc:	e8088893          	addi	a7,a7,-384 # ffffee80 <_stack_end+0xffef1610>
    10e0:	fff00593          	li	a1,-1
    10e4:	fc080813          	addi	a6,a6,-64 # ffffefc0 <_stack_end+0xffef1750>
    10e8:	10028293          	addi	t0,t0,256 # fffff100 <_stack_end+0xffef1890>
    10ec:	240f8f93          	addi	t6,t6,576 # fffff240 <_stack_end+0xffef19d0>
    10f0:	380f0f13          	addi	t5,t5,896 # fffff380 <_stack_end+0xffef1b10>
    10f4:	4c0e8e93          	addi	t4,t4,1216 # fffff4c0 <_stack_end+0xffef1c50>
    10f8:	600e0e13          	addi	t3,t3,1536 # fffff600 <_stack_end+0xffef1d90>
    10fc:	74030313          	addi	t1,t1,1856 # fffff740 <_stack_end+0xffef1ed0>
    1100:	d4850513          	addi	a0,a0,-696 # 8004d48 <_stack_end+0x7ef74d8>
    1104:	00074603          	lbu	a2,0(a4)
    1108:	011786b3          	add	a3,a5,a7
    110c:	0c061e63          	bnez	a2,11e8 <drawHighscoreTitle+0x1a4>
    1110:	00068023          	sb	zero,0(a3)
    1114:	05474683          	lbu	a3,84(a4)
    1118:	01078633          	add	a2,a5,a6
    111c:	0c069e63          	bnez	a3,11f8 <drawHighscoreTitle+0x1b4>
    1120:	00060023          	sb	zero,0(a2)
    1124:	0a874603          	lbu	a2,168(a4)
    1128:	005786b3          	add	a3,a5,t0
    112c:	0c061e63          	bnez	a2,1208 <drawHighscoreTitle+0x1c4>
    1130:	00068023          	sb	zero,0(a3)
    1134:	0fc74603          	lbu	a2,252(a4)
    1138:	01f786b3          	add	a3,a5,t6
    113c:	0c061c63          	bnez	a2,1214 <drawHighscoreTitle+0x1d0>
    1140:	00068023          	sb	zero,0(a3)
    1144:	15074603          	lbu	a2,336(a4)
    1148:	01e786b3          	add	a3,a5,t5
    114c:	14061663          	bnez	a2,1298 <drawHighscoreTitle+0x254>
    1150:	00068023          	sb	zero,0(a3)
    1154:	1a474603          	lbu	a2,420(a4)
    1158:	01d786b3          	add	a3,a5,t4
    115c:	12061863          	bnez	a2,128c <drawHighscoreTitle+0x248>
    1160:	00068023          	sb	zero,0(a3)
    1164:	1f874603          	lbu	a2,504(a4)
    1168:	01c786b3          	add	a3,a5,t3
    116c:	10061a63          	bnez	a2,1280 <drawHighscoreTitle+0x23c>
    1170:	00068023          	sb	zero,0(a3)
    1174:	24c74603          	lbu	a2,588(a4)
    1178:	006786b3          	add	a3,a5,t1
    117c:	0e061c63          	bnez	a2,1274 <drawHighscoreTitle+0x230>
    1180:	00068023          	sb	zero,0(a3)
    1184:	2a074683          	lbu	a3,672(a4)
    1188:	0e069063          	bnez	a3,1268 <drawHighscoreTitle+0x224>
    118c:	88078023          	sb	zero,-1920(a5)
    1190:	2f474683          	lbu	a3,756(a4)
    1194:	0c069463          	bnez	a3,125c <drawHighscoreTitle+0x218>
    1198:	9c078023          	sb	zero,-1600(a5)
    119c:	34874683          	lbu	a3,840(a4)
    11a0:	0a069863          	bnez	a3,1250 <drawHighscoreTitle+0x20c>
    11a4:	b0078023          	sb	zero,-1280(a5)
    11a8:	39c74683          	lbu	a3,924(a4)
    11ac:	08069c63          	bnez	a3,1244 <drawHighscoreTitle+0x200>
    11b0:	c4078023          	sb	zero,-960(a5)
    11b4:	3f074683          	lbu	a3,1008(a4)
    11b8:	08069063          	bnez	a3,1238 <drawHighscoreTitle+0x1f4>
    11bc:	d8078023          	sb	zero,-640(a5)
    11c0:	44474683          	lbu	a3,1092(a4)
    11c4:	06069463          	bnez	a3,122c <drawHighscoreTitle+0x1e8>
    11c8:	ec078023          	sb	zero,-320(a5)
    11cc:	49874683          	lbu	a3,1176(a4)
    11d0:	04069863          	bnez	a3,1220 <drawHighscoreTitle+0x1dc>
    11d4:	00078023          	sb	zero,0(a5)
    11d8:	00178793          	addi	a5,a5,1
    11dc:	00170713          	addi	a4,a4,1
    11e0:	f2a792e3          	bne	a5,a0,1104 <drawHighscoreTitle+0xc0>
    11e4:	00008067          	ret
    11e8:	00b68023          	sb	a1,0(a3)
    11ec:	05474683          	lbu	a3,84(a4)
    11f0:	01078633          	add	a2,a5,a6
    11f4:	f20686e3          	beqz	a3,1120 <drawHighscoreTitle+0xdc>
    11f8:	00b60023          	sb	a1,0(a2)
    11fc:	0a874603          	lbu	a2,168(a4)
    1200:	005786b3          	add	a3,a5,t0
    1204:	f20606e3          	beqz	a2,1130 <drawHighscoreTitle+0xec>
    1208:	fff00613          	li	a2,-1
    120c:	00c68023          	sb	a2,0(a3)
    1210:	f25ff06f          	j	1134 <drawHighscoreTitle+0xf0>
    1214:	fff00613          	li	a2,-1
    1218:	00c68023          	sb	a2,0(a3)
    121c:	f29ff06f          	j	1144 <drawHighscoreTitle+0x100>
    1220:	fff00693          	li	a3,-1
    1224:	00d78023          	sb	a3,0(a5)
    1228:	fb1ff06f          	j	11d8 <drawHighscoreTitle+0x194>
    122c:	fff00693          	li	a3,-1
    1230:	ecd78023          	sb	a3,-320(a5)
    1234:	f99ff06f          	j	11cc <drawHighscoreTitle+0x188>
    1238:	fff00693          	li	a3,-1
    123c:	d8d78023          	sb	a3,-640(a5)
    1240:	f81ff06f          	j	11c0 <drawHighscoreTitle+0x17c>
    1244:	fff00693          	li	a3,-1
    1248:	c4d78023          	sb	a3,-960(a5)
    124c:	f69ff06f          	j	11b4 <drawHighscoreTitle+0x170>
    1250:	fff00693          	li	a3,-1
    1254:	b0d78023          	sb	a3,-1280(a5)
    1258:	f51ff06f          	j	11a8 <drawHighscoreTitle+0x164>
    125c:	fff00693          	li	a3,-1
    1260:	9cd78023          	sb	a3,-1600(a5)
    1264:	f39ff06f          	j	119c <drawHighscoreTitle+0x158>
    1268:	fff00693          	li	a3,-1
    126c:	88d78023          	sb	a3,-1920(a5)
    1270:	f21ff06f          	j	1190 <drawHighscoreTitle+0x14c>
    1274:	fff00613          	li	a2,-1
    1278:	00c68023          	sb	a2,0(a3)
    127c:	f09ff06f          	j	1184 <drawHighscoreTitle+0x140>
    1280:	fff00613          	li	a2,-1
    1284:	00c68023          	sb	a2,0(a3)
    1288:	eedff06f          	j	1174 <drawHighscoreTitle+0x130>
    128c:	fff00613          	li	a2,-1
    1290:	00c68023          	sb	a2,0(a3)
    1294:	ed1ff06f          	j	1164 <drawHighscoreTitle+0x120>
    1298:	fff00613          	li	a2,-1
    129c:	00c68023          	sb	a2,0(a3)
    12a0:	eb5ff06f          	j	1154 <drawHighscoreTitle+0x110>

000012a4 <gameTick>:
    12a4:	fe010113          	addi	sp,sp,-32
    12a8:	01212823          	sw	s2,16(sp)
    12ac:	00005937          	lui	s2,0x5
    12b0:	aa892603          	lw	a2,-1368(s2) # 4aa8 <snake_lastdir>
    12b4:	00812c23          	sw	s0,24(sp)
    12b8:	00912a23          	sw	s1,20(sp)
    12bc:	00005437          	lui	s0,0x5
    12c0:	000054b7          	lui	s1,0x5
    12c4:	00112e23          	sw	ra,28(sp)
    12c8:	01312623          	sw	s3,12(sp)
    12cc:	00167793          	andi	a5,a2,1
    12d0:	abc42703          	lw	a4,-1348(s0) # 4abc <player_button>
    12d4:	ab44a583          	lw	a1,-1356(s1) # 4ab4 <snake_head>
    12d8:	0a079463          	bnez	a5,1380 <gameTick+0xdc>
    12dc:	01f75693          	srli	a3,a4,0x1f
    12e0:	00d707b3          	add	a5,a4,a3
    12e4:	0017f793          	andi	a5,a5,1
    12e8:	fff78793          	addi	a5,a5,-1
    12ec:	000039b7          	lui	s3,0x3
    12f0:	08d78e63          	beq	a5,a3,138c <gameTick+0xe8>
    12f4:	15498513          	addi	a0,s3,340 # 3154 <game_board>
    12f8:	505000ef          	jal	1ffc <getCellInDirection>
    12fc:	00050413          	mv	s0,a0
    1300:	00042783          	lw	a5,0(s0)
    1304:	00300713          	li	a4,3
    1308:	0ae78463          	beq	a5,a4,13b0 <gameTick+0x10c>
    130c:	00500713          	li	a4,5
    1310:	04e78863          	beq	a5,a4,1360 <gameTick+0xbc>
    1314:	00100713          	li	a4,1
    1318:	00000513          	li	a0,0
    131c:	02e78463          	beq	a5,a4,1344 <gameTick+0xa0>
    1320:	00005937          	lui	s2,0x5
    1324:	ab092503          	lw	a0,-1360(s2) # 4ab0 <snake_end>
    1328:	3a1000ef          	jal	1ec8 <moveEnd>
    132c:	aaa92823          	sw	a0,-1360(s2)
    1330:	ab44a503          	lw	a0,-1356(s1)
    1334:	00040593          	mv	a1,s0
    1338:	3ad000ef          	jal	1ee4 <moveHead>
    133c:	aaa4aa23          	sw	a0,-1356(s1)
    1340:	00100513          	li	a0,1
    1344:	01c12083          	lw	ra,28(sp)
    1348:	01812403          	lw	s0,24(sp)
    134c:	01412483          	lw	s1,20(sp)
    1350:	01012903          	lw	s2,16(sp)
    1354:	00c12983          	lw	s3,12(sp)
    1358:	02010113          	addi	sp,sp,32
    135c:	00008067          	ret
    1360:	000057b7          	lui	a5,0x5
    1364:	ab87a503          	lw	a0,-1352(a5) # 4ab8 <currentGameScore>
    1368:	00150513          	addi	a0,a0,1
    136c:	aaa7ac23          	sw	a0,-1352(a5)
    1370:	841ff0ef          	jal	bb0 <drawGameScore>
    1374:	15498513          	addi	a0,s3,340
    1378:	389000ef          	jal	1f00 <newApple>
    137c:	fb5ff06f          	j	1330 <gameTick+0x8c>
    1380:	00177793          	andi	a5,a4,1
    1384:	000039b7          	lui	s3,0x3
    1388:	f60796e3          	bnez	a5,12f4 <gameTick+0x50>
    138c:	00070613          	mv	a2,a4
    1390:	15498513          	addi	a0,s3,340 # 3154 <game_board>
    1394:	469000ef          	jal	1ffc <getCellInDirection>
    1398:	abc42783          	lw	a5,-1348(s0)
    139c:	00050413          	mv	s0,a0
    13a0:	00300713          	li	a4,3
    13a4:	aaf92423          	sw	a5,-1368(s2)
    13a8:	00042783          	lw	a5,0(s0)
    13ac:	f6e790e3          	bne	a5,a4,130c <gameTick+0x68>
    13b0:	01c12083          	lw	ra,28(sp)
    13b4:	01812403          	lw	s0,24(sp)
    13b8:	01412483          	lw	s1,20(sp)
    13bc:	01012903          	lw	s2,16(sp)
    13c0:	00c12983          	lw	s3,12(sp)
    13c4:	00000513          	li	a0,0
    13c8:	02010113          	addi	sp,sp,32
    13cc:	00008067          	ret

000013d0 <handle_interrupt>:
    13d0:	040007b7          	lui	a5,0x4000
    13d4:	ff010113          	addi	sp,sp,-16
    13d8:	0207d703          	lhu	a4,32(a5) # 4000020 <_stack_end+0x3ef27b0>
    13dc:	00112623          	sw	ra,12(sp)
    13e0:	02079023          	sh	zero,32(a5)
    13e4:	ec1ff0ef          	jal	12a4 <gameTick>
    13e8:	000057b7          	lui	a5,0x5
    13ec:	aaa7a623          	sw	a0,-1364(a5) # 4aac <game_running>
    13f0:	aac7a703          	lw	a4,-1364(a5)
    13f4:	00100793          	li	a5,1
    13f8:	00f70a63          	beq	a4,a5,140c <handle_interrupt+0x3c>
    13fc:	b90ff0ef          	jal	78c <clearScreen>
    1400:	00c12083          	lw	ra,12(sp)
    1404:	01010113          	addi	sp,sp,16
    1408:	4200106f          	j	2828 <resetTimer>
    140c:	00003537          	lui	a0,0x3
    1410:	15450513          	addi	a0,a0,340 # 3154 <game_board>
    1414:	a94ff0ef          	jal	6a8 <drawBoard>
    1418:	000016b7          	lui	a3,0x1
    141c:	04000737          	lui	a4,0x4000
    1420:	b2068693          	addi	a3,a3,-1248 # b20 <drawLetter+0x128>
    1424:	02d71423          	sh	a3,40(a4) # 4000028 <_stack_end+0x3ef27b8>
    1428:	040007b7          	lui	a5,0x4000
    142c:	03000693          	li	a3,48
    1430:	02d79623          	sh	a3,44(a5) # 400002c <_stack_end+0x3ef27bc>
    1434:	04000737          	lui	a4,0x4000
    1438:	02475783          	lhu	a5,36(a4) # 4000024 <_stack_end+0x3ef27b4>
    143c:	00c12083          	lw	ra,12(sp)
    1440:	01079793          	slli	a5,a5,0x10
    1444:	4107d793          	srai	a5,a5,0x10
    1448:	0047e793          	ori	a5,a5,4
    144c:	02f71223          	sh	a5,36(a4)
    1450:	01010113          	addi	sp,sp,16
    1454:	00008067          	ret

00001458 <runGame>:
    1458:	fd010113          	addi	sp,sp,-48
    145c:	01612823          	sw	s6,16(sp)
    1460:	00003b37          	lui	s6,0x3
    1464:	03212023          	sw	s2,32(sp)
    1468:	01312e23          	sw	s3,28(sp)
    146c:	01412c23          	sw	s4,24(sp)
    1470:	01400793          	li	a5,20
    1474:	02112623          	sw	ra,44(sp)
    1478:	02812423          	sw	s0,40(sp)
    147c:	02912223          	sw	s1,36(sp)
    1480:	01512a23          	sw	s5,20(sp)
    1484:	154b0913          	addi	s2,s6,340 # 3154 <game_board>
    1488:	00005a37          	lui	s4,0x5
    148c:	00005737          	lui	a4,0x5
    1490:	00200693          	li	a3,2
    1494:	00f92023          	sw	a5,0(s2)
    1498:	00f92223          	sw	a5,4(s2)
    149c:	00100793          	li	a5,1
    14a0:	aad72423          	sw	a3,-1368(a4) # 4aa8 <snake_lastdir>
    14a4:	aafa2623          	sw	a5,-1364(s4) # 4aac <game_running>
    14a8:	00000993          	li	s3,0
    14ac:	00299a93          	slli	s5,s3,0x2
    14b0:	013a8ab3          	add	s5,s5,s3
    14b4:	00000493          	li	s1,0
    14b8:	002a9a93          	slli	s5,s5,0x2
    14bc:	00048693          	mv	a3,s1
    14c0:	00098613          	mv	a2,s3
    14c4:	00000593          	li	a1,0
    14c8:	00010513          	mv	a0,sp
    14cc:	169000ef          	jal	1e34 <newCell>
    14d0:	00012703          	lw	a4,0(sp)
    14d4:	009a8433          	add	s0,s5,s1
    14d8:	00441413          	slli	s0,s0,0x4
    14dc:	00890433          	add	s0,s2,s0
    14e0:	00e42423          	sw	a4,8(s0)
    14e4:	00412703          	lw	a4,4(sp)
    14e8:	00492783          	lw	a5,4(s2)
    14ec:	00148493          	addi	s1,s1,1
    14f0:	00e42623          	sw	a4,12(s0)
    14f4:	00812703          	lw	a4,8(sp)
    14f8:	00e42823          	sw	a4,16(s0)
    14fc:	00c12703          	lw	a4,12(sp)
    1500:	00e42a23          	sw	a4,20(s0)
    1504:	faf4cce3          	blt	s1,a5,14bc <runGame+0x64>
    1508:	00092703          	lw	a4,0(s2)
    150c:	00198993          	addi	s3,s3,1
    1510:	00e9d463          	bge	s3,a4,1518 <runGame+0xc0>
    1514:	f8f04ce3          	bgtz	a5,14ac <runGame+0x54>
    1518:	00005637          	lui	a2,0x5
    151c:	000055b7          	lui	a1,0x5
    1520:	ab060613          	addi	a2,a2,-1360 # 4ab0 <snake_end>
    1524:	ab458593          	addi	a1,a1,-1356 # 4ab4 <snake_head>
    1528:	154b0513          	addi	a0,s6,340
    152c:	375000ef          	jal	20a0 <game_init>
    1530:	240010ef          	jal	2770 <timerInterruptInit>
    1534:	00000513          	li	a0,0
    1538:	e78ff0ef          	jal	bb0 <drawGameScore>
    153c:	040006b7          	lui	a3,0x4000
    1540:	00100713          	li	a4,1
    1544:	0e068693          	addi	a3,a3,224 # 40000e0 <_stack_end+0x3ef2870>
    1548:	00400613          	li	a2,4
    154c:	00400513          	li	a0,4
    1550:	00800893          	li	a7,8
    1554:	00200813          	li	a6,2
    1558:	000055b7          	lui	a1,0x5
    155c:	aaca2783          	lw	a5,-1364(s4)
    1560:	02e79463          	bne	a5,a4,1588 <runGame+0x130>
    1564:	0006a783          	lw	a5,0(a3)
    1568:	00f7f793          	andi	a5,a5,15
    156c:	04c78863          	beq	a5,a2,15bc <runGame+0x164>
    1570:	04f54063          	blt	a0,a5,15b0 <runGame+0x158>
    1574:	00e78463          	beq	a5,a4,157c <runGame+0x124>
    1578:	ff0792e3          	bne	a5,a6,155c <runGame+0x104>
    157c:	aaf5ae23          	sw	a5,-1348(a1) # 4abc <player_button>
    1580:	aaca2783          	lw	a5,-1364(s4)
    1584:	fee780e3          	beq	a5,a4,1564 <runGame+0x10c>
    1588:	02c12083          	lw	ra,44(sp)
    158c:	02812403          	lw	s0,40(sp)
    1590:	02412483          	lw	s1,36(sp)
    1594:	02012903          	lw	s2,32(sp)
    1598:	01c12983          	lw	s3,28(sp)
    159c:	01812a03          	lw	s4,24(sp)
    15a0:	01412a83          	lw	s5,20(sp)
    15a4:	01012b03          	lw	s6,16(sp)
    15a8:	03010113          	addi	sp,sp,48
    15ac:	00008067          	ret
    15b0:	fb1796e3          	bne	a5,a7,155c <runGame+0x104>
    15b4:	00400793          	li	a5,4
    15b8:	fc5ff06f          	j	157c <runGame+0x124>
    15bc:	00300793          	li	a5,3
    15c0:	fbdff06f          	j	157c <runGame+0x124>

000015c4 <getLetterFromArray>:
    15c4:	fd050513          	addi	a0,a0,-48
    15c8:	0ff57513          	zext.b	a0,a0
    15cc:	01300793          	li	a5,19
    15d0:	02a7ea63          	bltu	a5,a0,1604 <getLetterFromArray+0x40>
    15d4:	0000d7b7          	lui	a5,0xd
    15d8:	75c78793          	addi	a5,a5,1884 # d75c <image_data+0x6d60>
    15dc:	00251513          	slli	a0,a0,0x2
    15e0:	00f50533          	add	a0,a0,a5
    15e4:	00052783          	lw	a5,0(a0)
    15e8:	00078067          	jr	a5
    15ec:	00001737          	lui	a4,0x1
    15f0:	d7470713          	addi	a4,a4,-652 # d74 <drawHighscoreCol+0x100>
    15f4:	000017b7          	lui	a5,0x1
    15f8:	00e5a023          	sw	a4,0(a1)
    15fc:	e9a78793          	addi	a5,a5,-358 # e9a <drawHighscoreSCORE+0x6e>
    1600:	00f62023          	sw	a5,0(a2)
    1604:	00008067          	ret
    1608:	59400793          	li	a5,1428
    160c:	00f5a023          	sw	a5,0(a1)
    1610:	6ba00793          	li	a5,1722
    1614:	00f62023          	sw	a5,0(a2)
    1618:	00008067          	ret
    161c:	0005a023          	sw	zero,0(a1)
    1620:	11100793          	li	a5,273
    1624:	00f62023          	sw	a5,0(a2)
    1628:	00008067          	ret
    162c:	11100793          	li	a5,273
    1630:	00f5a023          	sw	a5,0(a1)
    1634:	22200793          	li	a5,546
    1638:	00f62023          	sw	a5,0(a2)
    163c:	00008067          	ret
    1640:	22200793          	li	a5,546
    1644:	00f5a023          	sw	a5,0(a1)
    1648:	31e00793          	li	a5,798
    164c:	00f62023          	sw	a5,0(a2)
    1650:	00008067          	ret
    1654:	000017b7          	lui	a5,0x1
    1658:	6ba00713          	li	a4,1722
    165c:	00e5a023          	sw	a4,0(a1)
    1660:	80a78793          	addi	a5,a5,-2038 # 80a <__heap_size+0xa>
    1664:	00f62023          	sw	a5,0(a2)
    1668:	00008067          	ret
    166c:	00001737          	lui	a4,0x1
    1670:	80a70713          	addi	a4,a4,-2038 # 80a <__heap_size+0xa>
    1674:	000017b7          	lui	a5,0x1
    1678:	00e5a023          	sw	a4,0(a1)
    167c:	90678793          	addi	a5,a5,-1786 # 906 <__heap_size+0x106>
    1680:	00f62023          	sw	a5,0(a2)
    1684:	00008067          	ret
    1688:	00001737          	lui	a4,0x1
    168c:	90670713          	addi	a4,a4,-1786 # 906 <__heap_size+0x106>
    1690:	000017b7          	lui	a5,0x1
    1694:	00e5a023          	sw	a4,0(a1)
    1698:	a2c78793          	addi	a5,a5,-1492 # a2c <drawLetter+0x34>
    169c:	00f62023          	sw	a5,0(a2)
    16a0:	00008067          	ret
    16a4:	00001737          	lui	a4,0x1
    16a8:	a2c70713          	addi	a4,a4,-1492 # a2c <drawLetter+0x34>
    16ac:	000017b7          	lui	a5,0x1
    16b0:	00e5a023          	sw	a4,0(a1)
    16b4:	b3d78793          	addi	a5,a5,-1219 # b3d <drawLetter+0x145>
    16b8:	00f62023          	sw	a5,0(a2)
    16bc:	00008067          	ret
    16c0:	00001737          	lui	a4,0x1
    16c4:	b3d70713          	addi	a4,a4,-1219 # b3d <drawLetter+0x145>
    16c8:	000017b7          	lui	a5,0x1
    16cc:	00e5a023          	sw	a4,0(a1)
    16d0:	c4e78793          	addi	a5,a5,-946 # c4e <drawGameScore+0x9e>
    16d4:	00f62023          	sw	a5,0(a2)
    16d8:	00008067          	ret
    16dc:	00001737          	lui	a4,0x1
    16e0:	c4e70713          	addi	a4,a4,-946 # c4e <drawGameScore+0x9e>
    16e4:	000017b7          	lui	a5,0x1
    16e8:	00e5a023          	sw	a4,0(a1)
    16ec:	d7478793          	addi	a5,a5,-652 # d74 <drawHighscoreCol+0x100>
    16f0:	00f62023          	sw	a5,0(a2)
    16f4:	00008067          	ret
    16f8:	31e00793          	li	a5,798
    16fc:	00f5a023          	sw	a5,0(a1)
    1700:	48300793          	li	a5,1155
    1704:	00f62023          	sw	a5,0(a2)
    1708:	00008067          	ret
    170c:	48300793          	li	a5,1155
    1710:	00f5a023          	sw	a5,0(a1)
    1714:	59400793          	li	a5,1428
    1718:	00f62023          	sw	a5,0(a2)
    171c:	00008067          	ret

00001720 <makeLetterMenu>:
    1720:	fc010113          	addi	sp,sp,-64
    1724:	02812c23          	sw	s0,56(sp)
    1728:	00005437          	lui	s0,0x5
    172c:	000057b7          	lui	a5,0x5
    1730:	a5c40413          	addi	s0,s0,-1444 # 4a5c <players>
    1734:	ab87a703          	lw	a4,-1352(a5) # 4ab8 <currentGameScore>
    1738:	03842783          	lw	a5,56(s0)
    173c:	02112e23          	sw	ra,60(sp)
    1740:	02912a23          	sw	s1,52(sp)
    1744:	03212823          	sw	s2,48(sp)
    1748:	03312623          	sw	s3,44(sp)
    174c:	03412423          	sw	s4,40(sp)
    1750:	03512223          	sw	s5,36(sp)
    1754:	03612023          	sw	s6,32(sp)
    1758:	01712e23          	sw	s7,28(sp)
    175c:	01812c23          	sw	s8,24(sp)
    1760:	01912a23          	sw	s9,20(sp)
    1764:	01a12823          	sw	s10,16(sp)
    1768:	01b12623          	sw	s11,12(sp)
    176c:	2af74863          	blt	a4,a5,1a1c <makeLetterMenu+0x2fc>
    1770:	02c42783          	lw	a5,44(s0)
    1774:	2af74863          	blt	a4,a5,1a24 <makeLetterMenu+0x304>
    1778:	02042683          	lw	a3,32(s0)
    177c:	2ad74863          	blt	a4,a3,1a2c <makeLetterMenu+0x30c>
    1780:	01442783          	lw	a5,20(s0)
    1784:	2cf74263          	blt	a4,a5,1a48 <makeLetterMenu+0x328>
    1788:	00842683          	lw	a3,8(s0)
    178c:	00000913          	li	s2,0
    1790:	fff00793          	li	a5,-1
    1794:	2cd74063          	blt	a4,a3,1a54 <makeLetterMenu+0x334>
    1798:	02442883          	lw	a7,36(s0)
    179c:	02842803          	lw	a6,40(s0)
    17a0:	02c42503          	lw	a0,44(s0)
    17a4:	02042683          	lw	a3,32(s0)
    17a8:	01842583          	lw	a1,24(s0)
    17ac:	01c42603          	lw	a2,28(s0)
    17b0:	02d42623          	sw	a3,44(s0)
    17b4:	03142823          	sw	a7,48(s0)
    17b8:	03042a23          	sw	a6,52(s0)
    17bc:	02a42c23          	sw	a0,56(s0)
    17c0:	02b42223          	sw	a1,36(s0)
    17c4:	02c42423          	sw	a2,40(s0)
    17c8:	00100693          	li	a3,1
    17cc:	02d78e63          	beq	a5,a3,1808 <makeLetterMenu+0xe8>
    17d0:	01442683          	lw	a3,20(s0)
    17d4:	00c42583          	lw	a1,12(s0)
    17d8:	01042603          	lw	a2,16(s0)
    17dc:	02d42023          	sw	a3,32(s0)
    17e0:	00b42c23          	sw	a1,24(s0)
    17e4:	00c42e23          	sw	a2,28(s0)
    17e8:	fff00693          	li	a3,-1
    17ec:	00d79e63          	bne	a5,a3,1808 <makeLetterMenu+0xe8>
    17f0:	00042603          	lw	a2,0(s0)
    17f4:	00442683          	lw	a3,4(s0)
    17f8:	00842783          	lw	a5,8(s0)
    17fc:	00c42623          	sw	a2,12(s0)
    1800:	00d42823          	sw	a3,16(s0)
    1804:	00f42a23          	sw	a5,20(s0)
    1808:	00191b13          	slli	s6,s2,0x1
    180c:	012b07b3          	add	a5,s6,s2
    1810:	00279793          	slli	a5,a5,0x2
    1814:	31434637          	lui	a2,0x31434
    1818:	000036b7          	lui	a3,0x3
    181c:	00f405b3          	add	a1,s0,a5
    1820:	33268693          	addi	a3,a3,818 # 3332 <game_board+0x1de>
    1824:	24160613          	addi	a2,a2,577 # 31434241 <_stack_end+0x313269d1>
    1828:	04000cb7          	lui	s9,0x4000
    182c:	04000c37          	lui	s8,0x4000
    1830:	00d59223          	sh	a3,4(a1)
    1834:	00e5a423          	sw	a4,8(a1)
    1838:	00c5a023          	sw	a2,0(a1)
    183c:	00000493          	li	s1,0
    1840:	00000693          	li	a3,0
    1844:	00000a13          	li	s4,0
    1848:	05000a93          	li	s5,80
    184c:	00005d37          	lui	s10,0x5
    1850:	0e0c8c93          	addi	s9,s9,224 # 40000e0 <_stack_end+0x3ef2870>
    1854:	020c0c13          	addi	s8,s8,32 # 4000020 <_stack_end+0x3ef27b0>
    1858:	00500b93          	li	s7,5
    185c:	00400993          	li	s3,4
    1860:	000ca703          	lw	a4,0(s9)
    1864:	000c5783          	lhu	a5,0(s8)
    1868:	00f77713          	andi	a4,a4,15
    186c:	aaed2e23          	sw	a4,-1348(s10) # 4abc <player_button>
    1870:	0017f793          	andi	a5,a5,1
    1874:	fe0786e3          	beqz	a5,1860 <makeLetterMenu+0x140>
    1878:	0376e7b3          	rem	a5,a3,s7
    187c:	00168d93          	addi	s11,a3,1
    1880:	04079263          	bnez	a5,18c4 <makeLetterMenu+0x1a4>
    1884:	00048613          	mv	a2,s1
    1888:	00048593          	mv	a1,s1
    188c:	00000513          	li	a0,0
    1890:	8f8ff0ef          	jal	988 <drawHighscoreHighlight>
    1894:	abcd2783          	lw	a5,-1348(s10)
    1898:	07378263          	beq	a5,s3,18fc <makeLetterMenu+0x1dc>
    189c:	10f9c263          	blt	s3,a5,19a0 <makeLetterMenu+0x280>
    18a0:	00100713          	li	a4,1
    18a4:	08e78a63          	beq	a5,a4,1938 <makeLetterMenu+0x218>
    18a8:	00200713          	li	a4,2
    18ac:	0ee79463          	bne	a5,a4,1994 <makeLetterMenu+0x274>
    18b0:	0b400793          	li	a5,180
    18b4:	0f57c063          	blt	a5,s5,1994 <makeLetterMenu+0x274>
    18b8:	014a8a93          	addi	s5,s5,20
    18bc:	00148493          	addi	s1,s1,1
    18c0:	0f80006f          	j	19b8 <makeLetterMenu+0x298>
    18c4:	fff48613          	addi	a2,s1,-1
    18c8:	00060593          	mv	a1,a2
    18cc:	00000513          	li	a0,0
    18d0:	8b8ff0ef          	jal	988 <drawHighscoreHighlight>
    18d4:	00048613          	mv	a2,s1
    18d8:	00048593          	mv	a1,s1
    18dc:	01c00513          	li	a0,28
    18e0:	8a8ff0ef          	jal	988 <drawHighscoreHighlight>
    18e4:	00148613          	addi	a2,s1,1
    18e8:	00060593          	mv	a1,a2
    18ec:	00000513          	li	a0,0
    18f0:	898ff0ef          	jal	988 <drawHighscoreHighlight>
    18f4:	abcd2783          	lw	a5,-1348(s10)
    18f8:	fb3792e3          	bne	a5,s3,189c <makeLetterMenu+0x17c>
    18fc:	0000d7b7          	lui	a5,0xd
    1900:	7e078793          	addi	a5,a5,2016 # d7e0 <availableLetters>
    1904:	01478733          	add	a4,a5,s4
    1908:	00074503          	lbu	a0,0(a4)
    190c:	00100693          	li	a3,1
    1910:	06300613          	li	a2,99
    1914:	000a8593          	mv	a1,s5
    1918:	8e0ff0ef          	jal	9f8 <drawLetter>
    191c:	0f405a63          	blez	s4,1a10 <makeLetterMenu+0x2f0>
    1920:	0000d7b7          	lui	a5,0xd
    1924:	fffa0a13          	addi	s4,s4,-1
    1928:	7e078793          	addi	a5,a5,2016 # d7e0 <availableLetters>
    192c:	014787b3          	add	a5,a5,s4
    1930:	0007c503          	lbu	a0,0(a5)
    1934:	03c0006f          	j	1970 <makeLetterMenu+0x250>
    1938:	0000d7b7          	lui	a5,0xd
    193c:	7e078793          	addi	a5,a5,2016 # d7e0 <availableLetters>
    1940:	01478733          	add	a4,a5,s4
    1944:	00074503          	lbu	a0,0(a4)
    1948:	00100693          	li	a3,1
    194c:	06300613          	li	a2,99
    1950:	000a8593          	mv	a1,s5
    1954:	8a4ff0ef          	jal	9f8 <drawLetter>
    1958:	0b49c663          	blt	s3,s4,1a04 <makeLetterMenu+0x2e4>
    195c:	0000d7b7          	lui	a5,0xd
    1960:	001a0a13          	addi	s4,s4,1
    1964:	7e078793          	addi	a5,a5,2016 # d7e0 <availableLetters>
    1968:	014787b3          	add	a5,a5,s4
    196c:	0007c503          	lbu	a0,0(a5)
    1970:	012b07b3          	add	a5,s6,s2
    1974:	00279793          	slli	a5,a5,0x2
    1978:	00f407b3          	add	a5,s0,a5
    197c:	009787b3          	add	a5,a5,s1
    1980:	00000693          	li	a3,0
    1984:	06300613          	li	a2,99
    1988:	000a8593          	mv	a1,s5
    198c:	00a78023          	sb	a0,0(a5)
    1990:	868ff0ef          	jal	9f8 <drawLetter>
    1994:	645000ef          	jal	27d8 <runTimer>
    1998:	000d8693          	mv	a3,s11
    199c:	ec5ff06f          	j	1860 <makeLetterMenu+0x140>
    19a0:	00800713          	li	a4,8
    19a4:	fee798e3          	bne	a5,a4,1994 <makeLetterMenu+0x274>
    19a8:	05000793          	li	a5,80
    19ac:	ff57d4e3          	bge	a5,s5,1994 <makeLetterMenu+0x274>
    19b0:	feca8a93          	addi	s5,s5,-20
    19b4:	fff48493          	addi	s1,s1,-1
    19b8:	621000ef          	jal	27d8 <runTimer>
    19bc:	00600793          	li	a5,6
    19c0:	fcf49ce3          	bne	s1,a5,1998 <makeLetterMenu+0x278>
    19c4:	665000ef          	jal	2828 <resetTimer>
    19c8:	03812403          	lw	s0,56(sp)
    19cc:	03c12083          	lw	ra,60(sp)
    19d0:	03412483          	lw	s1,52(sp)
    19d4:	03012903          	lw	s2,48(sp)
    19d8:	02c12983          	lw	s3,44(sp)
    19dc:	02812a03          	lw	s4,40(sp)
    19e0:	02412a83          	lw	s5,36(sp)
    19e4:	02012b03          	lw	s6,32(sp)
    19e8:	01c12b83          	lw	s7,28(sp)
    19ec:	01812c03          	lw	s8,24(sp)
    19f0:	01412c83          	lw	s9,20(sp)
    19f4:	01012d03          	lw	s10,16(sp)
    19f8:	00c12d83          	lw	s11,12(sp)
    19fc:	04010113          	addi	sp,sp,64
    1a00:	d8dfe06f          	j	78c <clearScreen>
    1a04:	04100513          	li	a0,65
    1a08:	00000a13          	li	s4,0
    1a0c:	f65ff06f          	j	1970 <makeLetterMenu+0x250>
    1a10:	03300513          	li	a0,51
    1a14:	00500a13          	li	s4,5
    1a18:	f59ff06f          	j	1970 <makeLetterMenu+0x250>
    1a1c:	00500913          	li	s2,5
    1a20:	de9ff06f          	j	1808 <makeLetterMenu+0xe8>
    1a24:	00400913          	li	s2,4
    1a28:	de1ff06f          	j	1808 <makeLetterMenu+0xe8>
    1a2c:	02442603          	lw	a2,36(s0)
    1a30:	02842683          	lw	a3,40(s0)
    1a34:	02f42c23          	sw	a5,56(s0)
    1a38:	02c42823          	sw	a2,48(s0)
    1a3c:	02d42a23          	sw	a3,52(s0)
    1a40:	00300913          	li	s2,3
    1a44:	dc5ff06f          	j	1808 <makeLetterMenu+0xe8>
    1a48:	00200913          	li	s2,2
    1a4c:	00100793          	li	a5,1
    1a50:	d49ff06f          	j	1798 <makeLetterMenu+0x78>
    1a54:	00100913          	li	s2,1
    1a58:	00000793          	li	a5,0
    1a5c:	d3dff06f          	j	1798 <makeLetterMenu+0x78>

00001a60 <runHighscoreLetters>:
    1a60:	ff010113          	addi	sp,sp,-16
    1a64:	00112623          	sw	ra,12(sp)
    1a68:	5c1000ef          	jal	2828 <resetTimer>
    1a6c:	56d000ef          	jal	27d8 <runTimer>
    1a70:	cb1ff0ef          	jal	1720 <makeLetterMenu>
    1a74:	000057b7          	lui	a5,0x5
    1a78:	06400513          	li	a0,100
    1a7c:	aa07ae23          	sw	zero,-1348(a5) # 4abc <player_button>
    1a80:	33d000ef          	jal	25bc <delay>
    1a84:	00c12083          	lw	ra,12(sp)
    1a88:	01010113          	addi	sp,sp,16
    1a8c:	d01fe06f          	j	78c <clearScreen>

00001a90 <runHighScoreMenu>:
    1a90:	fe010113          	addi	sp,sp,-32
    1a94:	01412423          	sw	s4,8(sp)
    1a98:	00005a37          	lui	s4,0x5
    1a9c:	00112e23          	sw	ra,28(sp)
    1aa0:	01212823          	sw	s2,16(sp)
    1aa4:	01312623          	sw	s3,12(sp)
    1aa8:	01512223          	sw	s5,4(sp)
    1aac:	01612023          	sw	s6,0(sp)
    1ab0:	00812c23          	sw	s0,24(sp)
    1ab4:	00912a23          	sw	s1,20(sp)
    1ab8:	a5ca0b13          	addi	s6,s4,-1444 # 4a5c <players>
    1abc:	cd1fe0ef          	jal	78c <clearScreen>
    1ac0:	a5ca0a13          	addi	s4,s4,-1444
    1ac4:	d80ff0ef          	jal	1044 <drawHighscoreTitle>
    1ac8:	05a00913          	li	s2,90
    1acc:	0ad00993          	li	s3,173
    1ad0:	0f000a93          	li	s5,240
    1ad4:	000a0493          	mv	s1,s4
    1ad8:	03500413          	li	s0,53
    1adc:	0004c503          	lbu	a0,0(s1)
    1ae0:	00040593          	mv	a1,s0
    1ae4:	00000693          	li	a3,0
    1ae8:	00090613          	mv	a2,s2
    1aec:	01440413          	addi	s0,s0,20
    1af0:	f09fe0ef          	jal	9f8 <drawLetter>
    1af4:	00148493          	addi	s1,s1,1
    1af8:	ff3412e3          	bne	s0,s3,1adc <runHighScoreMenu+0x4c>
    1afc:	01e90913          	addi	s2,s2,30
    1b00:	00ca0a13          	addi	s4,s4,12
    1b04:	fd5918e3          	bne	s2,s5,1ad4 <runHighScoreMenu+0x44>
    1b08:	008b2403          	lw	s0,8(s6)
    1b0c:	26804663          	bgtz	s0,1d78 <runHighScoreMenu+0x2e8>
    1b10:	014b2403          	lw	s0,20(s6)
    1b14:	1e804463          	bgtz	s0,1cfc <runHighScoreMenu+0x26c>
    1b18:	020b2403          	lw	s0,32(s6)
    1b1c:	16804263          	bgtz	s0,1c80 <runHighScoreMenu+0x1f0>
    1b20:	02cb2403          	lw	s0,44(s6)
    1b24:	0e804063          	bgtz	s0,1c04 <runHighScoreMenu+0x174>
    1b28:	038b2403          	lw	s0,56(s6)
    1b2c:	06804263          	bgtz	s0,1b90 <runHighScoreMenu+0x100>
    1b30:	00005437          	lui	s0,0x5
    1b34:	abc42703          	lw	a4,-1348(s0) # 4abc <player_button>
    1b38:	00800793          	li	a5,8
    1b3c:	02f70063          	beq	a4,a5,1b5c <runHighScoreMenu+0xcc>
    1b40:	04000737          	lui	a4,0x4000
    1b44:	0e070713          	addi	a4,a4,224 # 40000e0 <_stack_end+0x3ef2870>
    1b48:	00800693          	li	a3,8
    1b4c:	00072783          	lw	a5,0(a4)
    1b50:	00f7f793          	andi	a5,a5,15
    1b54:	aaf42e23          	sw	a5,-1348(s0)
    1b58:	fed79ae3          	bne	a5,a3,1b4c <runHighScoreMenu+0xbc>
    1b5c:	06400513          	li	a0,100
    1b60:	25d000ef          	jal	25bc <delay>
    1b64:	aa042e23          	sw	zero,-1348(s0)
    1b68:	01812403          	lw	s0,24(sp)
    1b6c:	01c12083          	lw	ra,28(sp)
    1b70:	01412483          	lw	s1,20(sp)
    1b74:	01012903          	lw	s2,16(sp)
    1b78:	00c12983          	lw	s3,12(sp)
    1b7c:	00812a03          	lw	s4,8(sp)
    1b80:	00412a83          	lw	s5,4(sp)
    1b84:	00012b03          	lw	s6,0(sp)
    1b88:	02010113          	addi	sp,sp,32
    1b8c:	c01fe06f          	j	78c <clearScreen>
    1b90:	00400513          	li	a0,4
    1b94:	8e0ff0ef          	jal	c74 <drawHighscoreCol>
    1b98:	00a00493          	li	s1,10
    1b9c:	02946533          	rem	a0,s0,s1
    1ba0:	00000693          	li	a3,0
    1ba4:	0d200613          	li	a2,210
    1ba8:	0fd00593          	li	a1,253
    1bac:	f95fe0ef          	jal	b40 <drawNumber>
    1bb0:	02944533          	div	a0,s0,s1
    1bb4:	00000693          	li	a3,0
    1bb8:	0d200613          	li	a2,210
    1bbc:	0e900593          	li	a1,233
    1bc0:	02956533          	rem	a0,a0,s1
    1bc4:	f7dfe0ef          	jal	b40 <drawNumber>
    1bc8:	06400513          	li	a0,100
    1bcc:	02a44533          	div	a0,s0,a0
    1bd0:	00000693          	li	a3,0
    1bd4:	0d200613          	li	a2,210
    1bd8:	0d500593          	li	a1,213
    1bdc:	02956533          	rem	a0,a0,s1
    1be0:	f61fe0ef          	jal	b40 <drawNumber>
    1be4:	3e800793          	li	a5,1000
    1be8:	02f44533          	div	a0,s0,a5
    1bec:	00000693          	li	a3,0
    1bf0:	0d200613          	li	a2,210
    1bf4:	0c100593          	li	a1,193
    1bf8:	02956533          	rem	a0,a0,s1
    1bfc:	f45fe0ef          	jal	b40 <drawNumber>
    1c00:	f31ff06f          	j	1b30 <runHighScoreMenu+0xa0>
    1c04:	00300513          	li	a0,3
    1c08:	86cff0ef          	jal	c74 <drawHighscoreCol>
    1c0c:	00a00493          	li	s1,10
    1c10:	02946533          	rem	a0,s0,s1
    1c14:	00000693          	li	a3,0
    1c18:	0b400613          	li	a2,180
    1c1c:	0fd00593          	li	a1,253
    1c20:	f21fe0ef          	jal	b40 <drawNumber>
    1c24:	02944533          	div	a0,s0,s1
    1c28:	00000693          	li	a3,0
    1c2c:	0b400613          	li	a2,180
    1c30:	0e900593          	li	a1,233
    1c34:	02956533          	rem	a0,a0,s1
    1c38:	f09fe0ef          	jal	b40 <drawNumber>
    1c3c:	06400513          	li	a0,100
    1c40:	02a44533          	div	a0,s0,a0
    1c44:	00000693          	li	a3,0
    1c48:	0b400613          	li	a2,180
    1c4c:	0d500593          	li	a1,213
    1c50:	02956533          	rem	a0,a0,s1
    1c54:	eedfe0ef          	jal	b40 <drawNumber>
    1c58:	3e800793          	li	a5,1000
    1c5c:	02f44533          	div	a0,s0,a5
    1c60:	00000693          	li	a3,0
    1c64:	0b400613          	li	a2,180
    1c68:	0c100593          	li	a1,193
    1c6c:	02956533          	rem	a0,a0,s1
    1c70:	ed1fe0ef          	jal	b40 <drawNumber>
    1c74:	038b2403          	lw	s0,56(s6)
    1c78:	ea805ce3          	blez	s0,1b30 <runHighScoreMenu+0xa0>
    1c7c:	f15ff06f          	j	1b90 <runHighScoreMenu+0x100>
    1c80:	00200513          	li	a0,2
    1c84:	ff1fe0ef          	jal	c74 <drawHighscoreCol>
    1c88:	00a00493          	li	s1,10
    1c8c:	02946533          	rem	a0,s0,s1
    1c90:	00000693          	li	a3,0
    1c94:	09600613          	li	a2,150
    1c98:	0fd00593          	li	a1,253
    1c9c:	ea5fe0ef          	jal	b40 <drawNumber>
    1ca0:	02944533          	div	a0,s0,s1
    1ca4:	00000693          	li	a3,0
    1ca8:	09600613          	li	a2,150
    1cac:	0e900593          	li	a1,233
    1cb0:	02956533          	rem	a0,a0,s1
    1cb4:	e8dfe0ef          	jal	b40 <drawNumber>
    1cb8:	06400513          	li	a0,100
    1cbc:	02a44533          	div	a0,s0,a0
    1cc0:	00000693          	li	a3,0
    1cc4:	09600613          	li	a2,150
    1cc8:	0d500593          	li	a1,213
    1ccc:	02956533          	rem	a0,a0,s1
    1cd0:	e71fe0ef          	jal	b40 <drawNumber>
    1cd4:	3e800793          	li	a5,1000
    1cd8:	02f44533          	div	a0,s0,a5
    1cdc:	00000693          	li	a3,0
    1ce0:	09600613          	li	a2,150
    1ce4:	0c100593          	li	a1,193
    1ce8:	02956533          	rem	a0,a0,s1
    1cec:	e55fe0ef          	jal	b40 <drawNumber>
    1cf0:	02cb2403          	lw	s0,44(s6)
    1cf4:	e2805ae3          	blez	s0,1b28 <runHighScoreMenu+0x98>
    1cf8:	f0dff06f          	j	1c04 <runHighScoreMenu+0x174>
    1cfc:	00100513          	li	a0,1
    1d00:	f75fe0ef          	jal	c74 <drawHighscoreCol>
    1d04:	00a00493          	li	s1,10
    1d08:	02946533          	rem	a0,s0,s1
    1d0c:	00000693          	li	a3,0
    1d10:	07800613          	li	a2,120
    1d14:	0fd00593          	li	a1,253
    1d18:	e29fe0ef          	jal	b40 <drawNumber>
    1d1c:	02944533          	div	a0,s0,s1
    1d20:	00000693          	li	a3,0
    1d24:	07800613          	li	a2,120
    1d28:	0e900593          	li	a1,233
    1d2c:	02956533          	rem	a0,a0,s1
    1d30:	e11fe0ef          	jal	b40 <drawNumber>
    1d34:	06400513          	li	a0,100
    1d38:	02a44533          	div	a0,s0,a0
    1d3c:	00000693          	li	a3,0
    1d40:	07800613          	li	a2,120
    1d44:	0d500593          	li	a1,213
    1d48:	02956533          	rem	a0,a0,s1
    1d4c:	df5fe0ef          	jal	b40 <drawNumber>
    1d50:	3e800793          	li	a5,1000
    1d54:	02f44533          	div	a0,s0,a5
    1d58:	00000693          	li	a3,0
    1d5c:	07800613          	li	a2,120
    1d60:	0c100593          	li	a1,193
    1d64:	02956533          	rem	a0,a0,s1
    1d68:	dd9fe0ef          	jal	b40 <drawNumber>
    1d6c:	020b2403          	lw	s0,32(s6)
    1d70:	da8058e3          	blez	s0,1b20 <runHighScoreMenu+0x90>
    1d74:	f0dff06f          	j	1c80 <runHighScoreMenu+0x1f0>
    1d78:	00000513          	li	a0,0
    1d7c:	ef9fe0ef          	jal	c74 <drawHighscoreCol>
    1d80:	00a00493          	li	s1,10
    1d84:	02946533          	rem	a0,s0,s1
    1d88:	00000693          	li	a3,0
    1d8c:	05a00613          	li	a2,90
    1d90:	0fd00593          	li	a1,253
    1d94:	dadfe0ef          	jal	b40 <drawNumber>
    1d98:	02944533          	div	a0,s0,s1
    1d9c:	00000693          	li	a3,0
    1da0:	05a00613          	li	a2,90
    1da4:	0e900593          	li	a1,233
    1da8:	02956533          	rem	a0,a0,s1
    1dac:	d95fe0ef          	jal	b40 <drawNumber>
    1db0:	06400513          	li	a0,100
    1db4:	02a44533          	div	a0,s0,a0
    1db8:	00000693          	li	a3,0
    1dbc:	05a00613          	li	a2,90
    1dc0:	0d500593          	li	a1,213
    1dc4:	02956533          	rem	a0,a0,s1
    1dc8:	d79fe0ef          	jal	b40 <drawNumber>
    1dcc:	3e800793          	li	a5,1000
    1dd0:	02f44533          	div	a0,s0,a5
    1dd4:	00000693          	li	a3,0
    1dd8:	05a00613          	li	a2,90
    1ddc:	0c100593          	li	a1,193
    1de0:	02956533          	rem	a0,a0,s1
    1de4:	d5dfe0ef          	jal	b40 <drawNumber>
    1de8:	014b2403          	lw	s0,20(s6)
    1dec:	d28056e3          	blez	s0,1b18 <runHighScoreMenu+0x88>
    1df0:	f0dff06f          	j	1cfc <runHighScoreMenu+0x26c>

00001df4 <pseudoRandom>:
    1df4:	00003737          	lui	a4,0x3
    1df8:	15072503          	lw	a0,336(a4) # 3150 <seed>
    1dfc:	41c657b7          	lui	a5,0x41c65
    1e00:	e6d78793          	addi	a5,a5,-403 # 41c64e6d <_stack_end+0x41b575fd>
    1e04:	02f50533          	mul	a0,a0,a5
    1e08:	000037b7          	lui	a5,0x3
    1e0c:	03978793          	addi	a5,a5,57 # 3039 <nan+0x5>
    1e10:	00f50533          	add	a0,a0,a5
    1e14:	00151513          	slli	a0,a0,0x1
    1e18:	00155513          	srli	a0,a0,0x1
    1e1c:	14a72823          	sw	a0,336(a4)
    1e20:	01055513          	srli	a0,a0,0x10
    1e24:	00008067          	ret

00001e28 <newPos>:
    1e28:	ff010113          	addi	sp,sp,-16
    1e2c:	01010113          	addi	sp,sp,16
    1e30:	00008067          	ret

00001e34 <newCell>:
    1e34:	00b52023          	sw	a1,0(a0)
    1e38:	00c52223          	sw	a2,4(a0)
    1e3c:	00d52423          	sw	a3,8(a0)
    1e40:	00052623          	sw	zero,12(a0)
    1e44:	00008067          	ret

00001e48 <makeWalls>:
    1e48:	00452583          	lw	a1,4(a0)
    1e4c:	00052803          	lw	a6,0(a0)
    1e50:	00850793          	addi	a5,a0,8
    1e54:	fff58893          	addi	a7,a1,-1
    1e58:	00489893          	slli	a7,a7,0x4
    1e5c:	00000713          	li	a4,0
    1e60:	00100693          	li	a3,1
    1e64:	01005e63          	blez	a6,1e80 <makeWalls+0x38>
    1e68:	00d7a023          	sw	a3,0(a5)
    1e6c:	01178633          	add	a2,a5,a7
    1e70:	00d62023          	sw	a3,0(a2)
    1e74:	00170713          	addi	a4,a4,1
    1e78:	14078793          	addi	a5,a5,320
    1e7c:	ff0716e3          	bne	a4,a6,1e68 <makeWalls+0x20>
    1e80:	00200793          	li	a5,2
    1e84:	04b7d063          	bge	a5,a1,1ec4 <makeWalls+0x7c>
    1e88:	fff80813          	addi	a6,a6,-1
    1e8c:	00281613          	slli	a2,a6,0x2
    1e90:	ff850793          	addi	a5,a0,-8
    1e94:	00459693          	slli	a3,a1,0x4
    1e98:	01060633          	add	a2,a2,a6
    1e9c:	00f686b3          	add	a3,a3,a5
    1ea0:	01850513          	addi	a0,a0,24
    1ea4:	00661613          	slli	a2,a2,0x6
    1ea8:	00100793          	li	a5,1
    1eac:	00f52023          	sw	a5,0(a0)
    1eb0:	00c50733          	add	a4,a0,a2
    1eb4:	00f72023          	sw	a5,0(a4)
    1eb8:	01050513          	addi	a0,a0,16
    1ebc:	fed518e3          	bne	a0,a3,1eac <makeWalls+0x64>
    1ec0:	00008067          	ret
    1ec4:	00008067          	ret

00001ec8 <moveEnd>:
    1ec8:	00050793          	mv	a5,a0
    1ecc:	00c52503          	lw	a0,12(a0)
    1ed0:	00400713          	li	a4,4
    1ed4:	0007a023          	sw	zero,0(a5)
    1ed8:	00e52023          	sw	a4,0(a0)
    1edc:	0007a623          	sw	zero,12(a5)
    1ee0:	00008067          	ret

00001ee4 <moveHead>:
    1ee4:	00300793          	li	a5,3
    1ee8:	00f52023          	sw	a5,0(a0)
    1eec:	00b52623          	sw	a1,12(a0)
    1ef0:	00200793          	li	a5,2
    1ef4:	00f5a023          	sw	a5,0(a1)
    1ef8:	00058513          	mv	a0,a1
    1efc:	00008067          	ret

00001f00 <newApple>:
    1f00:	ff010113          	addi	sp,sp,-16
    1f04:	00812623          	sw	s0,12(sp)
    1f08:	01010413          	addi	s0,sp,16
    1f0c:	00052303          	lw	t1,0(a0)
    1f10:	00452e03          	lw	t3,4(a0)
    1f14:	00200713          	li	a4,2
    1f18:	ffe30793          	addi	a5,t1,-2
    1f1c:	ffee0693          	addi	a3,t3,-2
    1f20:	02d787b3          	mul	a5,a5,a3
    1f24:	00279793          	slli	a5,a5,0x2
    1f28:	00f78793          	addi	a5,a5,15
    1f2c:	ff07f793          	andi	a5,a5,-16
    1f30:	40f10133          	sub	sp,sp,a5
    1f34:	00010813          	mv	a6,sp
    1f38:	0a675e63          	bge	a4,t1,1ff4 <newApple+0xf4>
    1f3c:	014e0593          	addi	a1,t3,20
    1f40:	41c008b3          	neg	a7,t3
    1f44:	ff850513          	addi	a0,a0,-8
    1f48:	00459593          	slli	a1,a1,0x4
    1f4c:	00489893          	slli	a7,a7,0x4
    1f50:	00a585b3          	add	a1,a1,a0
    1f54:	fff30313          	addi	t1,t1,-1
    1f58:	00100513          	li	a0,1
    1f5c:	00000693          	li	a3,0
    1f60:	00200e93          	li	t4,2
    1f64:	02088893          	addi	a7,a7,32
    1f68:	00b887b3          	add	a5,a7,a1
    1f6c:	03ced263          	bge	t4,t3,1f90 <newApple+0x90>
    1f70:	0007a603          	lw	a2,0(a5)
    1f74:	00269713          	slli	a4,a3,0x2
    1f78:	00e80733          	add	a4,a6,a4
    1f7c:	00061663          	bnez	a2,1f88 <newApple+0x88>
    1f80:	00f72023          	sw	a5,0(a4)
    1f84:	00168693          	addi	a3,a3,1
    1f88:	01078793          	addi	a5,a5,16
    1f8c:	fef592e3          	bne	a1,a5,1f70 <newApple+0x70>
    1f90:	00150513          	addi	a0,a0,1
    1f94:	14058593          	addi	a1,a1,320
    1f98:	fca318e3          	bne	t1,a0,1f68 <newApple+0x68>
    1f9c:	00003637          	lui	a2,0x3
    1fa0:	15062783          	lw	a5,336(a2) # 3150 <seed>
    1fa4:	41c65737          	lui	a4,0x41c65
    1fa8:	e6d70713          	addi	a4,a4,-403 # 41c64e6d <_stack_end+0x41b575fd>
    1fac:	02e787b3          	mul	a5,a5,a4
    1fb0:	00003737          	lui	a4,0x3
    1fb4:	03970713          	addi	a4,a4,57 # 3039 <nan+0x5>
    1fb8:	00e787b3          	add	a5,a5,a4
    1fbc:	00179793          	slli	a5,a5,0x1
    1fc0:	0017d793          	srli	a5,a5,0x1
    1fc4:	0107d713          	srli	a4,a5,0x10
    1fc8:	02d77733          	remu	a4,a4,a3
    1fcc:	14f62823          	sw	a5,336(a2)
    1fd0:	00271793          	slli	a5,a4,0x2
    1fd4:	00f80833          	add	a6,a6,a5
    1fd8:	00082783          	lw	a5,0(a6)
    1fdc:	00500713          	li	a4,5
    1fe0:	00e7a023          	sw	a4,0(a5)
    1fe4:	ff040113          	addi	sp,s0,-16
    1fe8:	00c12403          	lw	s0,12(sp)
    1fec:	01010113          	addi	sp,sp,16
    1ff0:	00008067          	ret
    1ff4:	00000693          	li	a3,0
    1ff8:	fa5ff06f          	j	1f9c <newApple+0x9c>

00001ffc <getCellInDirection>:
    1ffc:	00300713          	li	a4,3
    2000:	0045a783          	lw	a5,4(a1)
    2004:	0085a683          	lw	a3,8(a1)
    2008:	04e60863          	beq	a2,a4,2058 <getCellInDirection+0x5c>
    200c:	02c74c63          	blt	a4,a2,2044 <getCellInDirection+0x48>
    2010:	00100713          	li	a4,1
    2014:	06e60463          	beq	a2,a4,207c <getCellInDirection+0x80>
    2018:	00200713          	li	a4,2
    201c:	00178793          	addi	a5,a5,1
    2020:	02e61863          	bne	a2,a4,2050 <getCellInDirection+0x54>
    2024:	00279713          	slli	a4,a5,0x2
    2028:	00f707b3          	add	a5,a4,a5
    202c:	00279793          	slli	a5,a5,0x2
    2030:	00d787b3          	add	a5,a5,a3
    2034:	00479793          	slli	a5,a5,0x4
    2038:	00878793          	addi	a5,a5,8
    203c:	00f50533          	add	a0,a0,a5
    2040:	00008067          	ret
    2044:	00400713          	li	a4,4
    2048:	fff78793          	addi	a5,a5,-1
    204c:	fce60ce3          	beq	a2,a4,2024 <getCellInDirection+0x28>
    2050:	00000513          	li	a0,0
    2054:	00008067          	ret
    2058:	00279713          	slli	a4,a5,0x2
    205c:	00f707b3          	add	a5,a4,a5
    2060:	00168693          	addi	a3,a3,1
    2064:	00279793          	slli	a5,a5,0x2
    2068:	00d787b3          	add	a5,a5,a3
    206c:	00479793          	slli	a5,a5,0x4
    2070:	00878793          	addi	a5,a5,8
    2074:	00f50533          	add	a0,a0,a5
    2078:	00008067          	ret
    207c:	00279713          	slli	a4,a5,0x2
    2080:	00f707b3          	add	a5,a4,a5
    2084:	fff68693          	addi	a3,a3,-1
    2088:	00279793          	slli	a5,a5,0x2
    208c:	00d787b3          	add	a5,a5,a3
    2090:	00479793          	slli	a5,a5,0x4
    2094:	00878793          	addi	a5,a5,8
    2098:	00f50533          	add	a0,a0,a5
    209c:	00008067          	ret

000020a0 <game_init>:
    20a0:	00052883          	lw	a7,0(a0)
    20a4:	00300813          	li	a6,3
    20a8:	00452e03          	lw	t3,4(a0)
    20ac:	0308c333          	div	t1,a7,a6
    20b0:	00189393          	slli	t2,a7,0x1
    20b4:	01fe5f13          	srli	t5,t3,0x1f
    20b8:	01cf0f33          	add	t5,t5,t3
    20bc:	401f5f13          	srai	t5,t5,0x1
    20c0:	ff010113          	addi	sp,sp,-16
    20c4:	00812623          	sw	s0,12(sp)
    20c8:	000057b7          	lui	a5,0x5
    20cc:	aa07ac23          	sw	zero,-1352(a5) # 4ab8 <currentGameScore>
    20d0:	0303c3b3          	div	t2,t2,a6
    20d4:	00231813          	slli	a6,t1,0x2
    20d8:	00680833          	add	a6,a6,t1
    20dc:	00281813          	slli	a6,a6,0x2
    20e0:	01e802b3          	add	t0,a6,t5
    20e4:	00429293          	slli	t0,t0,0x4
    20e8:	fec80813          	addi	a6,a6,-20
    20ec:	00828413          	addi	s0,t0,8
    20f0:	01e80833          	add	a6,a6,t5
    20f4:	fff30f93          	addi	t6,t1,-1
    20f8:	00481813          	slli	a6,a6,0x4
    20fc:	00850333          	add	t1,a0,s0
    2100:	0065a023          	sw	t1,0(a1)
    2104:	005502b3          	add	t0,a0,t0
    2108:	00880813          	addi	a6,a6,8
    210c:	002f9313          	slli	t1,t6,0x2
    2110:	00200413          	li	s0,2
    2114:	0082a423          	sw	s0,8(t0)
    2118:	01050833          	add	a6,a0,a6
    211c:	01f30333          	add	t1,t1,t6
    2120:	01062023          	sw	a6,0(a2)
    2124:	00231613          	slli	a2,t1,0x2
    2128:	0005a583          	lw	a1,0(a1)
    212c:	01e60633          	add	a2,a2,t5
    2130:	00461613          	slli	a2,a2,0x4
    2134:	00c50633          	add	a2,a0,a2
    2138:	00400813          	li	a6,4
    213c:	01062423          	sw	a6,8(a2)
    2140:	00b62a23          	sw	a1,20(a2)
    2144:	00500593          	li	a1,5
    2148:	00239613          	slli	a2,t2,0x2
    214c:	00760633          	add	a2,a2,t2
    2150:	00261613          	slli	a2,a2,0x2
    2154:	01e60633          	add	a2,a2,t5
    2158:	00461613          	slli	a2,a2,0x4
    215c:	00c50633          	add	a2,a0,a2
    2160:	00b62423          	sw	a1,8(a2)
    2164:	03105863          	blez	a7,2194 <game_init+0xf4>
    2168:	fffe0e93          	addi	t4,t3,-1
    216c:	00850793          	addi	a5,a0,8
    2170:	004e9e93          	slli	t4,t4,0x4
    2174:	00000713          	li	a4,0
    2178:	00100693          	li	a3,1
    217c:	00d7a023          	sw	a3,0(a5)
    2180:	01d78633          	add	a2,a5,t4
    2184:	00d62023          	sw	a3,0(a2)
    2188:	00170713          	addi	a4,a4,1
    218c:	14078793          	addi	a5,a5,320
    2190:	fee896e3          	bne	a7,a4,217c <game_init+0xdc>
    2194:	00200793          	li	a5,2
    2198:	03c7de63          	bge	a5,t3,21d4 <game_init+0x134>
    219c:	fff88893          	addi	a7,a7,-1
    21a0:	00289693          	slli	a3,a7,0x2
    21a4:	ff850613          	addi	a2,a0,-8
    21a8:	004e1e13          	slli	t3,t3,0x4
    21ac:	011686b3          	add	a3,a3,a7
    21b0:	01850513          	addi	a0,a0,24
    21b4:	01c60633          	add	a2,a2,t3
    21b8:	00669693          	slli	a3,a3,0x6
    21bc:	00100793          	li	a5,1
    21c0:	00f52023          	sw	a5,0(a0)
    21c4:	00d50733          	add	a4,a0,a3
    21c8:	00f72023          	sw	a5,0(a4)
    21cc:	01050513          	addi	a0,a0,16
    21d0:	fec518e3          	bne	a0,a2,21c0 <game_init+0x120>
    21d4:	00c12403          	lw	s0,12(sp)
    21d8:	01010113          	addi	sp,sp,16
    21dc:	00008067          	ret

000021e0 <printc>:
    21e0:	04000737          	lui	a4,0x4000
    21e4:	04470713          	addi	a4,a4,68 # 4000044 <_stack_end+0x3ef27d4>
    21e8:	000106b7          	lui	a3,0x10
    21ec:	00072783          	lw	a5,0(a4)
    21f0:	fed7eee3          	bltu	a5,a3,21ec <printc+0xc>
    21f4:	040007b7          	lui	a5,0x4000
    21f8:	04a7a023          	sw	a0,64(a5) # 4000040 <_stack_end+0x3ef27d0>
    21fc:	00008067          	ret

00002200 <print>:
    2200:	00054603          	lbu	a2,0(a0)
    2204:	02060863          	beqz	a2,2234 <print+0x34>
    2208:	04000737          	lui	a4,0x4000
    220c:	040005b7          	lui	a1,0x4000
    2210:	04470713          	addi	a4,a4,68 # 4000044 <_stack_end+0x3ef27d4>
    2214:	000106b7          	lui	a3,0x10
    2218:	04058593          	addi	a1,a1,64 # 4000040 <_stack_end+0x3ef27d0>
    221c:	00072783          	lw	a5,0(a4)
    2220:	fed7eee3          	bltu	a5,a3,221c <print+0x1c>
    2224:	00c5a023          	sw	a2,0(a1)
    2228:	00154603          	lbu	a2,1(a0)
    222c:	00150513          	addi	a0,a0,1
    2230:	fe0616e3          	bnez	a2,221c <print+0x1c>
    2234:	00008067          	ret

00002238 <print_dec>:
    2238:	3b9ad737          	lui	a4,0x3b9ad
    223c:	040006b7          	lui	a3,0x4000
    2240:	04000337          	lui	t1,0x4000
    2244:	00a00593          	li	a1,10
    2248:	00000793          	li	a5,0
    224c:	a0070713          	addi	a4,a4,-1536 # 3b9aca00 <_stack_end+0x3b89f190>
    2250:	04468693          	addi	a3,a3,68 # 4000044 <_stack_end+0x3ef27d4>
    2254:	00010637          	lui	a2,0x10
    2258:	04030313          	addi	t1,t1,64 # 4000040 <_stack_end+0x3ef27d0>
    225c:	00a00893          	li	a7,10
    2260:	04e57063          	bgeu	a0,a4,22a0 <print_dec+0x68>
    2264:	02079e63          	bnez	a5,22a0 <print_dec+0x68>
    2268:	fff58593          	addi	a1,a1,-1
    226c:	02e57533          	remu	a0,a0,a4
    2270:	03175733          	divu	a4,a4,a7
    2274:	fe0596e3          	bnez	a1,2260 <print_dec+0x28>
    2278:	02079263          	bnez	a5,229c <print_dec+0x64>
    227c:	04000737          	lui	a4,0x4000
    2280:	04470713          	addi	a4,a4,68 # 4000044 <_stack_end+0x3ef27d4>
    2284:	000106b7          	lui	a3,0x10
    2288:	00072783          	lw	a5,0(a4)
    228c:	fed7eee3          	bltu	a5,a3,2288 <print_dec+0x50>
    2290:	040007b7          	lui	a5,0x4000
    2294:	03000713          	li	a4,48
    2298:	04e7a023          	sw	a4,64(a5) # 4000040 <_stack_end+0x3ef27d0>
    229c:	00008067          	ret
    22a0:	02e55833          	divu	a6,a0,a4
    22a4:	03080813          	addi	a6,a6,48
    22a8:	0ff87813          	zext.b	a6,a6
    22ac:	0006a783          	lw	a5,0(a3) # 10000 <availableLetters+0x2820>
    22b0:	fec7eee3          	bltu	a5,a2,22ac <print_dec+0x74>
    22b4:	01032023          	sw	a6,0(t1)
    22b8:	00100793          	li	a5,1
    22bc:	fadff06f          	j	2268 <print_dec+0x30>

000022c0 <print_hex32>:
    22c0:	04000737          	lui	a4,0x4000
    22c4:	04470713          	addi	a4,a4,68 # 4000044 <_stack_end+0x3ef27d4>
    22c8:	000106b7          	lui	a3,0x10
    22cc:	00072783          	lw	a5,0(a4)
    22d0:	fed7eee3          	bltu	a5,a3,22cc <print_hex32+0xc>
    22d4:	03000693          	li	a3,48
    22d8:	040007b7          	lui	a5,0x4000
    22dc:	04000737          	lui	a4,0x4000
    22e0:	04d7a023          	sw	a3,64(a5) # 4000040 <_stack_end+0x3ef27d0>
    22e4:	04470713          	addi	a4,a4,68 # 4000044 <_stack_end+0x3ef27d4>
    22e8:	000106b7          	lui	a3,0x10
    22ec:	00072783          	lw	a5,0(a4)
    22f0:	fed7eee3          	bltu	a5,a3,22ec <print_hex32+0x2c>
    22f4:	04000837          	lui	a6,0x4000
    22f8:	04080813          	addi	a6,a6,64 # 4000040 <_stack_end+0x3ef27d0>
    22fc:	04000737          	lui	a4,0x4000
    2300:	07800793          	li	a5,120
    2304:	00f82023          	sw	a5,0(a6)
    2308:	01c00613          	li	a2,28
    230c:	00900313          	li	t1,9
    2310:	04470713          	addi	a4,a4,68 # 4000044 <_stack_end+0x3ef27d4>
    2314:	000106b7          	lui	a3,0x10
    2318:	ffc00893          	li	a7,-4
    231c:	00c557b3          	srl	a5,a0,a2
    2320:	00f7f793          	andi	a5,a5,15
    2324:	03778593          	addi	a1,a5,55
    2328:	00f36463          	bltu	t1,a5,2330 <print_hex32+0x70>
    232c:	03078593          	addi	a1,a5,48
    2330:	00072783          	lw	a5,0(a4)
    2334:	fed7eee3          	bltu	a5,a3,2330 <print_hex32+0x70>
    2338:	00b82023          	sw	a1,0(a6)
    233c:	ffc60613          	addi	a2,a2,-4 # fffc <availableLetters+0x281c>
    2340:	fd161ee3          	bne	a2,a7,231c <print_hex32+0x5c>
    2344:	00008067          	ret

00002348 <handle_exception>:
    2348:	00200793          	li	a5,2
    234c:	18f80863          	beq	a6,a5,24dc <handle_exception+0x194>
    2350:	00b00793          	li	a5,11
    2354:	12f80063          	beq	a6,a5,2474 <handle_exception+0x12c>
    2358:	04000737          	lui	a4,0x4000
    235c:	14081463          	bnez	a6,24a4 <handle_exception+0x15c>
    2360:	04000837          	lui	a6,0x4000
    2364:	0000d637          	lui	a2,0xd
    2368:	7e860613          	addi	a2,a2,2024 # d7e8 <availableLetters+0x8>
    236c:	00a00593          	li	a1,10
    2370:	04470713          	addi	a4,a4,68 # 4000044 <_stack_end+0x3ef27d4>
    2374:	000106b7          	lui	a3,0x10
    2378:	04080813          	addi	a6,a6,64 # 4000040 <_stack_end+0x3ef27d0>
    237c:	00072783          	lw	a5,0(a4)
    2380:	fed7eee3          	bltu	a5,a3,237c <handle_exception+0x34>
    2384:	00b82023          	sw	a1,0(a6)
    2388:	00164583          	lbu	a1,1(a2)
    238c:	00160613          	addi	a2,a2,1
    2390:	fe0596e3          	bnez	a1,237c <handle_exception+0x34>
    2394:	04000737          	lui	a4,0x4000
    2398:	04000837          	lui	a6,0x4000
    239c:	0000e637          	lui	a2,0xe
    23a0:	85c60613          	addi	a2,a2,-1956 # d85c <availableLetters+0x7c>
    23a4:	04500593          	li	a1,69
    23a8:	04470713          	addi	a4,a4,68 # 4000044 <_stack_end+0x3ef27d4>
    23ac:	000106b7          	lui	a3,0x10
    23b0:	04080813          	addi	a6,a6,64 # 4000040 <_stack_end+0x3ef27d0>
    23b4:	00072783          	lw	a5,0(a4)
    23b8:	fed7eee3          	bltu	a5,a3,23b4 <handle_exception+0x6c>
    23bc:	00b82023          	sw	a1,0(a6)
    23c0:	00164583          	lbu	a1,1(a2)
    23c4:	00160613          	addi	a2,a2,1
    23c8:	fe0596e3          	bnez	a1,23b4 <handle_exception+0x6c>
    23cc:	04000737          	lui	a4,0x4000
    23d0:	04470713          	addi	a4,a4,68 # 4000044 <_stack_end+0x3ef27d4>
    23d4:	000106b7          	lui	a3,0x10
    23d8:	00072783          	lw	a5,0(a4)
    23dc:	fed7eee3          	bltu	a5,a3,23d8 <handle_exception+0x90>
    23e0:	03000693          	li	a3,48
    23e4:	040007b7          	lui	a5,0x4000
    23e8:	04000737          	lui	a4,0x4000
    23ec:	04d7a023          	sw	a3,64(a5) # 4000040 <_stack_end+0x3ef27d0>
    23f0:	04470713          	addi	a4,a4,68 # 4000044 <_stack_end+0x3ef27d4>
    23f4:	000106b7          	lui	a3,0x10
    23f8:	00072783          	lw	a5,0(a4)
    23fc:	fed7eee3          	bltu	a5,a3,23f8 <handle_exception+0xb0>
    2400:	04000837          	lui	a6,0x4000
    2404:	04080813          	addi	a6,a6,64 # 4000040 <_stack_end+0x3ef27d0>
    2408:	04000737          	lui	a4,0x4000
    240c:	07800793          	li	a5,120
    2410:	00f82023          	sw	a5,0(a6)
    2414:	01c00613          	li	a2,28
    2418:	00900313          	li	t1,9
    241c:	04470713          	addi	a4,a4,68 # 4000044 <_stack_end+0x3ef27d4>
    2420:	000106b7          	lui	a3,0x10
    2424:	ffc00893          	li	a7,-4
    2428:	00c557b3          	srl	a5,a0,a2
    242c:	00f7f793          	andi	a5,a5,15
    2430:	03778593          	addi	a1,a5,55
    2434:	00f36463          	bltu	t1,a5,243c <handle_exception+0xf4>
    2438:	03078593          	addi	a1,a5,48
    243c:	00072783          	lw	a5,0(a4)
    2440:	fed7eee3          	bltu	a5,a3,243c <handle_exception+0xf4>
    2444:	00b82023          	sw	a1,0(a6)
    2448:	ffc60613          	addi	a2,a2,-4
    244c:	fd161ee3          	bne	a2,a7,2428 <handle_exception+0xe0>
    2450:	04000737          	lui	a4,0x4000
    2454:	04470713          	addi	a4,a4,68 # 4000044 <_stack_end+0x3ef27d4>
    2458:	000106b7          	lui	a3,0x10
    245c:	00072783          	lw	a5,0(a4)
    2460:	fed7eee3          	bltu	a5,a3,245c <handle_exception+0x114>
    2464:	040007b7          	lui	a5,0x4000
    2468:	00a00713          	li	a4,10
    246c:	04e7a023          	sw	a4,64(a5) # 4000040 <_stack_end+0x3ef27d0>
    2470:	0000006f          	j	2470 <handle_exception+0x128>
    2474:	00400793          	li	a5,4
    2478:	0af88063          	beq	a7,a5,2518 <handle_exception+0x1d0>
    247c:	0d089a63          	bne	a7,a6,2550 <handle_exception+0x208>
    2480:	04000737          	lui	a4,0x4000
    2484:	04470713          	addi	a4,a4,68 # 4000044 <_stack_end+0x3ef27d4>
    2488:	000106b7          	lui	a3,0x10
    248c:	00072783          	lw	a5,0(a4)
    2490:	fed7eee3          	bltu	a5,a3,248c <handle_exception+0x144>
    2494:	040007b7          	lui	a5,0x4000
    2498:	0ff57513          	zext.b	a0,a0
    249c:	04a7a023          	sw	a0,64(a5) # 4000040 <_stack_end+0x3ef27d0>
    24a0:	00008067          	ret
    24a4:	04000837          	lui	a6,0x4000
    24a8:	0000e637          	lui	a2,0xe
    24ac:	83c60613          	addi	a2,a2,-1988 # d83c <availableLetters+0x5c>
    24b0:	00a00593          	li	a1,10
    24b4:	04470713          	addi	a4,a4,68
    24b8:	000106b7          	lui	a3,0x10
    24bc:	04080813          	addi	a6,a6,64 # 4000040 <_stack_end+0x3ef27d0>
    24c0:	00072783          	lw	a5,0(a4)
    24c4:	fed7eee3          	bltu	a5,a3,24c0 <handle_exception+0x178>
    24c8:	00b82023          	sw	a1,0(a6)
    24cc:	00164583          	lbu	a1,1(a2)
    24d0:	00160613          	addi	a2,a2,1
    24d4:	fe0596e3          	bnez	a1,24c0 <handle_exception+0x178>
    24d8:	ebdff06f          	j	2394 <handle_exception+0x4c>
    24dc:	04000737          	lui	a4,0x4000
    24e0:	04000837          	lui	a6,0x4000
    24e4:	0000e637          	lui	a2,0xe
    24e8:	81860613          	addi	a2,a2,-2024 # d818 <availableLetters+0x38>
    24ec:	00a00593          	li	a1,10
    24f0:	04470713          	addi	a4,a4,68 # 4000044 <_stack_end+0x3ef27d4>
    24f4:	000106b7          	lui	a3,0x10
    24f8:	04080813          	addi	a6,a6,64 # 4000040 <_stack_end+0x3ef27d0>
    24fc:	00072783          	lw	a5,0(a4)
    2500:	fed7eee3          	bltu	a5,a3,24fc <handle_exception+0x1b4>
    2504:	00b82023          	sw	a1,0(a6)
    2508:	00164583          	lbu	a1,1(a2)
    250c:	00160613          	addi	a2,a2,1
    2510:	fe0596e3          	bnez	a1,24fc <handle_exception+0x1b4>
    2514:	e81ff06f          	j	2394 <handle_exception+0x4c>
    2518:	00054603          	lbu	a2,0(a0)
    251c:	02060a63          	beqz	a2,2550 <handle_exception+0x208>
    2520:	04000737          	lui	a4,0x4000
    2524:	040005b7          	lui	a1,0x4000
    2528:	04470713          	addi	a4,a4,68 # 4000044 <_stack_end+0x3ef27d4>
    252c:	000106b7          	lui	a3,0x10
    2530:	04058593          	addi	a1,a1,64 # 4000040 <_stack_end+0x3ef27d0>
    2534:	00072783          	lw	a5,0(a4)
    2538:	fed7eee3          	bltu	a5,a3,2534 <handle_exception+0x1ec>
    253c:	00c5a023          	sw	a2,0(a1)
    2540:	00154603          	lbu	a2,1(a0)
    2544:	00150513          	addi	a0,a0,1
    2548:	fe0616e3          	bnez	a2,2534 <handle_exception+0x1ec>
    254c:	00008067          	ret
    2550:	00008067          	ret

00002554 <nextprime>:
    2554:	00200713          	li	a4,2
    2558:	00050793          	mv	a5,a0
    255c:	02a74063          	blt	a4,a0,257c <nextprime+0x28>
    2560:	00100513          	li	a0,1
    2564:	00f05a63          	blez	a5,2578 <nextprime+0x24>
    2568:	fff78793          	addi	a5,a5,-1
    256c:	00f037b3          	snez	a5,a5
    2570:	00278513          	addi	a0,a5,2
    2574:	00008067          	ret
    2578:	00008067          	ret
    257c:	00150793          	addi	a5,a0,1
    2580:	0017e513          	ori	a0,a5,1
    2584:	00300613          	li	a2,3
    2588:	02c567b3          	rem	a5,a0,a2
    258c:	40155693          	srai	a3,a0,0x1
    2590:	02078263          	beqz	a5,25b4 <nextprime+0x60>
    2594:	00268693          	addi	a3,a3,2 # 10002 <availableLetters+0x2822>
    2598:	00300793          	li	a5,3
    259c:	00c0006f          	j	25a8 <nextprime+0x54>
    25a0:	02f56733          	rem	a4,a0,a5
    25a4:	00070863          	beqz	a4,25b4 <nextprime+0x60>
    25a8:	00178793          	addi	a5,a5,1
    25ac:	fef69ae3          	bne	a3,a5,25a0 <nextprime+0x4c>
    25b0:	00008067          	ret
    25b4:	00250513          	addi	a0,a0,2
    25b8:	fd1ff06f          	j	2588 <nextprime+0x34>

000025bc <delay>:
    25bc:	ff010113          	addi	sp,sp,-16
    25c0:	00012623          	sw	zero,12(sp)
    25c4:	00050613          	mv	a2,a0
    25c8:	00000693          	li	a3,0
    25cc:	02a05463          	blez	a0,25f4 <delay+0x38>
    25d0:	00002737          	lui	a4,0x2
    25d4:	74270713          	addi	a4,a4,1858 # 2742 <main+0x36>
    25d8:	00c12783          	lw	a5,12(sp)
    25dc:	fff70713          	addi	a4,a4,-1
    25e0:	00178793          	addi	a5,a5,1
    25e4:	00f12623          	sw	a5,12(sp)
    25e8:	fe0718e3          	bnez	a4,25d8 <delay+0x1c>
    25ec:	00168693          	addi	a3,a3,1
    25f0:	fed610e3          	bne	a2,a3,25d0 <delay+0x14>
    25f4:	00c12783          	lw	a5,12(sp)
    25f8:	01010113          	addi	sp,sp,16
    25fc:	00008067          	ret

00002600 <moveSelect>:
    2600:	fe010113          	addi	sp,sp,-32
    2604:	00812c23          	sw	s0,24(sp)
    2608:	00912a23          	sw	s1,20(sp)
    260c:	04000437          	lui	s0,0x4000
    2610:	040004b7          	lui	s1,0x4000
    2614:	01212823          	sw	s2,16(sp)
    2618:	01312623          	sw	s3,12(sp)
    261c:	01412423          	sw	s4,8(sp)
    2620:	00112e23          	sw	ra,28(sp)
    2624:	00000a13          	li	s4,0
    2628:	00000593          	li	a1,0
    262c:	00005937          	lui	s2,0x5
    2630:	00200993          	li	s3,2
    2634:	0e048493          	addi	s1,s1,224 # 40000e0 <_stack_end+0x3ef2870>
    2638:	02040413          	addi	s0,s0,32 # 4000020 <_stack_end+0x3ef27b0>
    263c:	abc92783          	lw	a5,-1348(s2) # 4abc <player_button>
    2640:	07378063          	beq	a5,s3,26a0 <moveSelect+0xa0>
    2644:	0004a783          	lw	a5,0(s1)
    2648:	00045703          	lhu	a4,0(s0)
    264c:	00f7f793          	andi	a5,a5,15
    2650:	aaf92e23          	sw	a5,-1348(s2)
    2654:	00177713          	andi	a4,a4,1
    2658:	fe0704e3          	beqz	a4,2640 <moveSelect+0x40>
    265c:	01512223          	sw	s5,4(sp)
    2660:	00100713          	li	a4,1
    2664:	06e78663          	beq	a5,a4,26d0 <moveSelect+0xd0>
    2668:	00400713          	li	a4,4
    266c:	000a0a93          	mv	s5,s4
    2670:	00e79e63          	bne	a5,a4,268c <moveSelect+0x8c>
    2674:	001a0a93          	addi	s5,s4,1
    2678:	00300793          	li	a5,3
    267c:	02faeab3          	rem	s5,s5,a5
    2680:	000a0593          	mv	a1,s4
    2684:	000a8513          	mv	a0,s5
    2688:	920fe0ef          	jal	7a8 <drawMenuHighlight>
    268c:	14c000ef          	jal	27d8 <runTimer>
    2690:	000a0593          	mv	a1,s4
    2694:	000a8a13          	mv	s4,s5
    2698:	00412a83          	lw	s5,4(sp)
    269c:	fa1ff06f          	j	263c <moveSelect+0x3c>
    26a0:	000a0513          	mv	a0,s4
    26a4:	904fe0ef          	jal	7a8 <drawMenuHighlight>
    26a8:	180000ef          	jal	2828 <resetTimer>
    26ac:	01c12083          	lw	ra,28(sp)
    26b0:	01812403          	lw	s0,24(sp)
    26b4:	01412483          	lw	s1,20(sp)
    26b8:	01012903          	lw	s2,16(sp)
    26bc:	00c12983          	lw	s3,12(sp)
    26c0:	000a0513          	mv	a0,s4
    26c4:	00812a03          	lw	s4,8(sp)
    26c8:	02010113          	addi	sp,sp,32
    26cc:	00008067          	ret
    26d0:	00200a93          	li	s5,2
    26d4:	fb4056e3          	blez	s4,2680 <moveSelect+0x80>
    26d8:	fffa0a93          	addi	s5,s4,-1
    26dc:	fa5ff06f          	j	2680 <moveSelect+0x80>

000026e0 <runMenu>:
    26e0:	ff010113          	addi	sp,sp,-16
    26e4:	00112623          	sw	ra,12(sp)
    26e8:	140000ef          	jal	2828 <resetTimer>
    26ec:	a34fe0ef          	jal	920 <drawMainMenu>
    26f0:	00100593          	li	a1,1
    26f4:	00000513          	li	a0,0
    26f8:	8b0fe0ef          	jal	7a8 <drawMenuHighlight>
    26fc:	0dc000ef          	jal	27d8 <runTimer>
    2700:	00c12083          	lw	ra,12(sp)
    2704:	01010113          	addi	sp,sp,16
    2708:	ef9ff06f          	j	2600 <moveSelect>

0000270c <main>:
    270c:	ff010113          	addi	sp,sp,-16
    2710:	00112623          	sw	ra,12(sp)
    2714:	00812423          	sw	s0,8(sp)
    2718:	00912223          	sw	s1,4(sp)
    271c:	00100413          	li	s0,1
    2720:	86cfe0ef          	jal	78c <clearScreen>
    2724:	00200493          	li	s1,2
    2728:	134000ef          	jal	285c <gpioInit>
    272c:	fb5ff0ef          	jal	26e0 <runMenu>
    2730:	00850e63          	beq	a0,s0,274c <main+0x40>
    2734:	02950063          	beq	a0,s1,2754 <main+0x48>
    2738:	fe051ae3          	bnez	a0,272c <main+0x20>
    273c:	d1dfe0ef          	jal	1458 <runGame>
    2740:	b20ff0ef          	jal	1a60 <runHighscoreLetters>
    2744:	f9dff0ef          	jal	26e0 <runMenu>
    2748:	fe8516e3          	bne	a0,s0,2734 <main+0x28>
    274c:	b44ff0ef          	jal	1a90 <runHighScoreMenu>
    2750:	fddff06f          	j	272c <main+0x20>
    2754:	838fe0ef          	jal	78c <clearScreen>
    2758:	00c12083          	lw	ra,12(sp)
    275c:	00812403          	lw	s0,8(sp)
    2760:	00412483          	lw	s1,4(sp)
    2764:	00000513          	li	a0,0
    2768:	01010113          	addi	sp,sp,16
    276c:	00008067          	ret

00002770 <timerInterruptInit>:
    2770:	ff010113          	addi	sp,sp,-16
    2774:	00812423          	sw	s0,8(sp)
    2778:	04000437          	lui	s0,0x4000
    277c:	02445783          	lhu	a5,36(s0) # 4000024 <_stack_end+0x3ef27b4>
    2780:	00112623          	sw	ra,12(sp)
    2784:	000016b7          	lui	a3,0x1
    2788:	01079793          	slli	a5,a5,0x10
    278c:	4107d793          	srai	a5,a5,0x10
    2790:	0017e793          	ori	a5,a5,1
    2794:	02f41223          	sh	a5,36(s0)
    2798:	04000737          	lui	a4,0x4000
    279c:	b2068693          	addi	a3,a3,-1248 # b20 <drawLetter+0x128>
    27a0:	040007b7          	lui	a5,0x4000
    27a4:	02d71423          	sh	a3,40(a4) # 4000028 <_stack_end+0x3ef27b8>
    27a8:	02000713          	li	a4,32
    27ac:	02e79623          	sh	a4,44(a5) # 400002c <_stack_end+0x3ef27bc>
    27b0:	9c5fd0ef          	jal	174 <enable_interrupt>
    27b4:	02445783          	lhu	a5,36(s0)
    27b8:	00c12083          	lw	ra,12(sp)
    27bc:	01079793          	slli	a5,a5,0x10
    27c0:	4107d793          	srai	a5,a5,0x10
    27c4:	0047e793          	ori	a5,a5,4
    27c8:	02f41223          	sh	a5,36(s0)
    27cc:	00812403          	lw	s0,8(sp)
    27d0:	01010113          	addi	sp,sp,16
    27d4:	00008067          	ret

000027d8 <runTimer>:
    27d8:	040006b7          	lui	a3,0x4000
    27dc:	0206d783          	lhu	a5,32(a3) # 4000020 <_stack_end+0x3ef27b0>
    27e0:	00001637          	lui	a2,0x1
    27e4:	04000737          	lui	a4,0x4000
    27e8:	01079793          	slli	a5,a5,0x10
    27ec:	4107d793          	srai	a5,a5,0x10
    27f0:	0017e793          	ori	a5,a5,1
    27f4:	02f69023          	sh	a5,32(a3)
    27f8:	90060613          	addi	a2,a2,-1792 # 900 <__heap_size+0x100>
    27fc:	02c71423          	sh	a2,40(a4) # 4000028 <_stack_end+0x3ef27b8>
    2800:	040007b7          	lui	a5,0x4000
    2804:	03d00613          	li	a2,61
    2808:	04000737          	lui	a4,0x4000
    280c:	02c79623          	sh	a2,44(a5) # 400002c <_stack_end+0x3ef27bc>
    2810:	02475783          	lhu	a5,36(a4) # 4000024 <_stack_end+0x3ef27b4>
    2814:	01079793          	slli	a5,a5,0x10
    2818:	4107d793          	srai	a5,a5,0x10
    281c:	0047e793          	ori	a5,a5,4
    2820:	02f71223          	sh	a5,36(a4)
    2824:	00008067          	ret

00002828 <resetTimer>:
    2828:	04000637          	lui	a2,0x4000
    282c:	02065783          	lhu	a5,32(a2) # 4000020 <_stack_end+0x3ef27b0>
    2830:	040006b7          	lui	a3,0x4000
    2834:	02061023          	sh	zero,32(a2)
    2838:	0246d783          	lhu	a5,36(a3) # 4000024 <_stack_end+0x3ef27b4>
    283c:	04000737          	lui	a4,0x4000
    2840:	02069223          	sh	zero,36(a3)
    2844:	02875583          	lhu	a1,40(a4) # 4000028 <_stack_end+0x3ef27b8>
    2848:	040007b7          	lui	a5,0x4000
    284c:	02071423          	sh	zero,40(a4)
    2850:	02c7d703          	lhu	a4,44(a5) # 400002c <_stack_end+0x3ef27bc>
    2854:	02079623          	sh	zero,44(a5)
    2858:	00008067          	ret

0000285c <gpioInit>:
    285c:	040007b7          	lui	a5,0x4000
    2860:	00f00713          	li	a4,15
    2864:	0ee7a223          	sw	a4,228(a5) # 40000e4 <_stack_end+0x3ef2874>
    2868:	00008067          	ret

0000286c <__subdf3>:
    286c:	800007b7          	lui	a5,0x80000
    2870:	00f6c6b3          	xor	a3,a3,a5

00002874 <__adddf3>:
    2874:	ffe007b7          	lui	a5,0xffe00
    2878:	00159393          	slli	t2,a1,0x1
    287c:	00169293          	slli	t0,a3,0x1
    2880:	2cf3fc63          	bgeu	t2,a5,2b58 <infnan>
    2884:	2cf2f263          	bgeu	t0,a5,2b48 <infnan_B_only>
    2888:	0153d393          	srli	t2,t2,0x15
    288c:	0152d293          	srli	t0,t0,0x15
    2890:	28038c63          	beqz	t2,2b28 <zero_operand>
    2894:	2a028063          	beqz	t0,2b34 <zero_operand_Y>
    2898:	40538333          	sub	t1,t2,t0
    289c:	0253f263          	bgeu	t2,t0,28c0 <__adddf3+0x4c>
    28a0:	40600333          	neg	t1,t1
    28a4:	00028393          	mv	t2,t0
    28a8:	00c54633          	xor	a2,a0,a2
    28ac:	00d5c6b3          	xor	a3,a1,a3
    28b0:	00a64533          	xor	a0,a2,a0
    28b4:	00b6c5b3          	xor	a1,a3,a1
    28b8:	00c54633          	xor	a2,a0,a2
    28bc:	00d5c6b3          	xor	a3,a1,a3
    28c0:	03733293          	sltiu	t0,t1,55
    28c4:	14028663          	beqz	t0,2a10 <exit>
    28c8:	fff7c793          	not	a5,a5
    28cc:	01429293          	slli	t0,t0,0x14
    28d0:	0055e5b3          	or	a1,a1,t0
    28d4:	0056e6b3          	or	a3,a3,t0
    28d8:	00b29293          	slli	t0,t0,0xb
    28dc:	0055b733          	sltu	a4,a1,t0
    28e0:	00f5f5b3          	and	a1,a1,a5
    28e4:	00071a63          	bnez	a4,28f8 <__adddf3+0x84>
    28e8:	00153713          	seqz	a4,a0
    28ec:	fff5c593          	not	a1,a1
    28f0:	40a00533          	neg	a0,a0
    28f4:	00e585b3          	add	a1,a1,a4
    28f8:	0056b733          	sltu	a4,a3,t0
    28fc:	00f6f6b3          	and	a3,a3,a5
    2900:	00071a63          	bnez	a4,2914 <sum>
    2904:	00163713          	seqz	a4,a2
    2908:	fff6c693          	not	a3,a3
    290c:	40c00633          	neg	a2,a2
    2910:	00e686b3          	add	a3,a3,a4

00002914 <sum>:
    2914:	fff38393          	addi	t2,t2,-1
    2918:	00000713          	li	a4,0
    291c:	02000793          	li	a5,32
    2920:	00f36a63          	bltu	t1,a5,2934 <sum+0x20>
    2924:	00060713          	mv	a4,a2
    2928:	00068613          	mv	a2,a3
    292c:	41f6d693          	srai	a3,a3,0x1f
    2930:	fe030313          	addi	t1,t1,-32
    2934:	02030863          	beqz	t1,2964 <sum+0x50>
    2938:	406782b3          	sub	t0,a5,t1
    293c:	005717b3          	sll	a5,a4,t0
    2940:	00675733          	srl	a4,a4,t1
    2944:	00f037b3          	snez	a5,a5
    2948:	00f76733          	or	a4,a4,a5
    294c:	005617b3          	sll	a5,a2,t0
    2950:	00f76733          	or	a4,a4,a5
    2954:	00665633          	srl	a2,a2,t1
    2958:	005697b3          	sll	a5,a3,t0
    295c:	00f66633          	or	a2,a2,a5
    2960:	4066d6b3          	sra	a3,a3,t1
    2964:	00c50533          	add	a0,a0,a2
    2968:	00c53633          	sltu	a2,a0,a2
    296c:	00c686b3          	add	a3,a3,a2
    2970:	00d585b3          	add	a1,a1,a3
    2974:	01f5d293          	srli	t0,a1,0x1f
    2978:	01f29293          	slli	t0,t0,0x1f
    297c:	0205d263          	bgez	a1,29a0 <pos_or_zero>
    2980:	40e00733          	neg	a4,a4
    2984:	00173793          	seqz	a5,a4
    2988:	fff54513          	not	a0,a0
    298c:	00f50533          	add	a0,a0,a5
    2990:	00153613          	seqz	a2,a0
    2994:	00f67633          	and	a2,a2,a5
    2998:	fff5c593          	not	a1,a1
    299c:	00c585b3          	add	a1,a1,a2

000029a0 <pos_or_zero>:
    29a0:	001007b7          	lui	a5,0x100
    29a4:	06f5e863          	bltu	a1,a5,2a14 <num_canc>
    29a8:	00179793          	slli	a5,a5,0x1
    29ac:	02f5ea63          	bltu	a1,a5,29e0 <rounding>
    29b0:	00177793          	andi	a5,a4,1
    29b4:	00175713          	srli	a4,a4,0x1
    29b8:	00f76733          	or	a4,a4,a5
    29bc:	01f51793          	slli	a5,a0,0x1f
    29c0:	00f76733          	or	a4,a4,a5
    29c4:	00155513          	srli	a0,a0,0x1
    29c8:	01f59793          	slli	a5,a1,0x1f
    29cc:	00f56533          	or	a0,a0,a5
    29d0:	0015d593          	srli	a1,a1,0x1
    29d4:	00138393          	addi	t2,t2,1
    29d8:	7fe00793          	li	a5,2046
    29dc:	14f3de63          	bge	t2,a5,2b38 <inf>

000029e0 <rounding>:
    29e0:	800007b7          	lui	a5,0x80000
    29e4:	00f76c63          	bltu	a4,a5,29fc <exp_sign_exit>
    29e8:	00150513          	addi	a0,a0,1
    29ec:	00153613          	seqz	a2,a0
    29f0:	00c585b3          	add	a1,a1,a2
    29f4:	00f71463          	bne	a4,a5,29fc <exp_sign_exit>
    29f8:	ffe57513          	andi	a0,a0,-2

000029fc <exp_sign_exit>:
    29fc:	00a5e633          	or	a2,a1,a0
    2a00:	10060c63          	beqz	a2,2b18 <signed_zero>
    2a04:	01439393          	slli	t2,t2,0x14
    2a08:	007585b3          	add	a1,a1,t2

00002a0c <sign_and_exit>:
    2a0c:	0055e5b3          	or	a1,a1,t0

00002a10 <exit>:
    2a10:	00008067          	ret

00002a14 <num_canc>:
    2a14:	00159593          	slli	a1,a1,0x1
    2a18:	01f55793          	srli	a5,a0,0x1f
    2a1c:	00f5e5b3          	or	a1,a1,a5
    2a20:	00151513          	slli	a0,a0,0x1
    2a24:	01f75793          	srli	a5,a4,0x1f
    2a28:	00f56533          	or	a0,a0,a5
    2a2c:	00171713          	slli	a4,a4,0x1
    2a30:	00038793          	mv	a5,t2
    2a34:	fff38393          	addi	t2,t2,-1
    2a38:	00078663          	beqz	a5,2a44 <denormal_or_str_canc>
    2a3c:	001007b7          	lui	a5,0x100
    2a40:	faf5f0e3          	bgeu	a1,a5,29e0 <rounding>

00002a44 <denormal_or_str_canc>:
    2a44:	00059863          	bnez	a1,2a54 <denormal_or_str_canc+0x10>
    2a48:	00050593          	mv	a1,a0
    2a4c:	00000513          	li	a0,0
    2a50:	02000713          	li	a4,32
    2a54:	00058693          	mv	a3,a1
    2a58:	000107b7          	lui	a5,0x10
    2a5c:	00f6f663          	bgeu	a3,a5,2a68 <denormal_or_str_canc+0x24>
    2a60:	01069693          	slli	a3,a3,0x10
    2a64:	01070713          	addi	a4,a4,16
    2a68:	00479793          	slli	a5,a5,0x4
    2a6c:	00f6f663          	bgeu	a3,a5,2a78 <denormal_or_str_canc+0x34>
    2a70:	00c69693          	slli	a3,a3,0xc
    2a74:	00c70713          	addi	a4,a4,12
    2a78:	00479793          	slli	a5,a5,0x4
    2a7c:	00f6f663          	bgeu	a3,a5,2a88 <denormal_or_str_canc+0x44>
    2a80:	00869693          	slli	a3,a3,0x8
    2a84:	00870713          	addi	a4,a4,8
    2a88:	00479793          	slli	a5,a5,0x4
    2a8c:	00f6f663          	bgeu	a3,a5,2a98 <denormal_or_str_canc+0x54>
    2a90:	00469693          	slli	a3,a3,0x4
    2a94:	00470713          	addi	a4,a4,4
    2a98:	00279793          	slli	a5,a5,0x2
    2a9c:	00f6f663          	bgeu	a3,a5,2aa8 <denormal_or_str_canc+0x64>
    2aa0:	00269693          	slli	a3,a3,0x2
    2aa4:	00270713          	addi	a4,a4,2
    2aa8:	00179793          	slli	a5,a5,0x1
    2aac:	00f6f663          	bgeu	a3,a5,2ab8 <denormal_or_str_canc+0x74>
    2ab0:	00169693          	slli	a3,a3,0x1
    2ab4:	00170713          	addi	a4,a4,1
    2ab8:	ff570713          	addi	a4,a4,-11
    2abc:	04070863          	beqz	a4,2b0c <denormal_canc>
    2ac0:	fe070613          	addi	a2,a4,-32
    2ac4:	02065263          	bgez	a2,2ae8 <denormal_or_str_canc+0xa4>
    2ac8:	00c60613          	addi	a2,a2,12
    2acc:	00c05c63          	blez	a2,2ae4 <denormal_or_str_canc+0xa0>
    2ad0:	00c00693          	li	a3,12
    2ad4:	40c68633          	sub	a2,a3,a2
    2ad8:	00e59533          	sll	a0,a1,a4
    2adc:	00c5d5b3          	srl	a1,a1,a2
    2ae0:	0200006f          	j	2b00 <denormal_or_str_canc+0xbc>
    2ae4:	01460613          	addi	a2,a2,20
    2ae8:	00c595b3          	sll	a1,a1,a2
    2aec:	02000693          	li	a3,32
    2af0:	40c686b3          	sub	a3,a3,a2
    2af4:	00d556b3          	srl	a3,a0,a3
    2af8:	00d5e5b3          	or	a1,a1,a3
    2afc:	00c51533          	sll	a0,a0,a2
    2b00:	40e383b3          	sub	t2,t2,a4
    2b04:	0003c463          	bltz	t2,2b0c <denormal_canc>
    2b08:	ef5ff06f          	j	29fc <exp_sign_exit>

00002b0c <denormal_canc>:
    2b0c:	00000593          	li	a1,0
    2b10:	02c0006f          	j	2b3c <sign_zero_xl>

00002b14 <both_denormals>:
    2b14:	00d5f5b3          	and	a1,a1,a3

00002b18 <signed_zero>:
    2b18:	01f5d593          	srli	a1,a1,0x1f
    2b1c:	01f59593          	slli	a1,a1,0x1f

00002b20 <zero_xl>:
    2b20:	00000513          	li	a0,0
    2b24:	eedff06f          	j	2a10 <exit>

00002b28 <zero_operand>:
    2b28:	fe0286e3          	beqz	t0,2b14 <both_denormals>
    2b2c:	00068593          	mv	a1,a3
    2b30:	00060513          	mv	a0,a2

00002b34 <zero_operand_Y>:
    2b34:	eddff06f          	j	2a10 <exit>

00002b38 <inf>:
    2b38:	7ff005b7          	lui	a1,0x7ff00

00002b3c <sign_zero_xl>:
    2b3c:	0055e5b3          	or	a1,a1,t0
    2b40:	00000513          	li	a0,0
    2b44:	ecdff06f          	j	2a10 <exit>

00002b48 <infnan_B_only>:
    2b48:	00068593          	mv	a1,a3
    2b4c:	00060513          	mv	a0,a2
    2b50:	00028393          	mv	t2,t0
    2b54:	0100006f          	j	2b64 <infnan_end>

00002b58 <infnan>:
    2b58:	00f2f663          	bgeu	t0,a5,2b64 <infnan_end>
    2b5c:	00058693          	mv	a3,a1
    2b60:	00050613          	mv	a2,a0

00002b64 <infnan_end>:
    2b64:	00b39393          	slli	t2,t2,0xb
    2b68:	00a3e3b3          	or	t2,t2,a0
    2b6c:	00039863          	bnez	t2,2b7c <produce_nan>
    2b70:	00c51663          	bne	a0,a2,2b7c <produce_nan>
    2b74:	00d59463          	bne	a1,a3,2b7c <produce_nan>
    2b78:	e99ff06f          	j	2a10 <exit>

00002b7c <produce_nan>:
    2b7c:	7ff805b7          	lui	a1,0x7ff80
    2b80:	fa1ff06f          	j	2b20 <zero_xl>

00002b84 <__divdf3>:
    2b84:	ffe007b7          	lui	a5,0xffe00
    2b88:	00159713          	slli	a4,a1,0x1
    2b8c:	00169313          	slli	t1,a3,0x1
    2b90:	24f77c63          	bgeu	a4,a5,2de8 <inf_nan>
    2b94:	24f37a63          	bgeu	t1,a5,2de8 <inf_nan>
    2b98:	01575713          	srli	a4,a4,0x15
    2b9c:	01535313          	srli	t1,t1,0x15
    2ba0:	22070863          	beqz	a4,2dd0 <zero_denormal>
    2ba4:	22030663          	beqz	t1,2dd0 <zero_denormal>

00002ba8 <normal_case>:
    2ba8:	40670733          	sub	a4,a4,t1
    2bac:	00d5c2b3          	xor	t0,a1,a3
    2bb0:	00c69693          	slli	a3,a3,0xc
    2bb4:	00d667b3          	or	a5,a2,a3
    2bb8:	00c59593          	slli	a1,a1,0xc
    2bbc:	1e078063          	beqz	a5,2d9c <pow_2>
    2bc0:	100007b7          	lui	a5,0x10000
    2bc4:	0046d693          	srli	a3,a3,0x4
    2bc8:	00f6e6b3          	or	a3,a3,a5
    2bcc:	01865393          	srli	t2,a2,0x18
    2bd0:	0076e6b3          	or	a3,a3,t2
    2bd4:	00861613          	slli	a2,a2,0x8
    2bd8:	0045d393          	srli	t2,a1,0x4
    2bdc:	0077e7b3          	or	a5,a5,t2
    2be0:	01855393          	srli	t2,a0,0x18
    2be4:	0077e7b3          	or	a5,a5,t2
    2be8:	00851313          	slli	t1,a0,0x8
    2bec:	800003b7          	lui	t2,0x80000
    2bf0:	0072f5b3          	and	a1,t0,t2
    2bf4:	40d783b3          	sub	t2,a5,a3
    2bf8:	0013b393          	seqz	t2,t2
    2bfc:	00c332b3          	sltu	t0,t1,a2
    2c00:	0053f3b3          	and	t2,t2,t0
    2c04:	00d7b2b3          	sltu	t0,a5,a3
    2c08:	0053e3b3          	or	t2,t2,t0
    2c0c:	3fe70713          	addi	a4,a4,1022
    2c10:	40770733          	sub	a4,a4,t2
    2c14:	00038a63          	beqz	t2,2c28 <normal_case+0x80>
    2c18:	00165613          	srli	a2,a2,0x1
    2c1c:	01f69293          	slli	t0,a3,0x1f
    2c20:	00566633          	or	a2,a2,t0
    2c24:	0016d693          	srli	a3,a3,0x1
    2c28:	00c332b3          	sltu	t0,t1,a2
    2c2c:	40c30333          	sub	t1,t1,a2
    2c30:	40d787b3          	sub	a5,a5,a3
    2c34:	405787b3          	sub	a5,a5,t0
    2c38:	00165613          	srli	a2,a2,0x1
    2c3c:	01f69293          	slli	t0,a3,0x1f
    2c40:	00566633          	or	a2,a2,t0
    2c44:	0016d693          	srli	a3,a3,0x1
    2c48:	00100537          	lui	a0,0x100
    2c4c:	000803b7          	lui	t2,0x80

00002c50 <div_loop_start>:
    2c50:	40d782b3          	sub	t0,a5,a3
    2c54:	00c37463          	bgeu	t1,a2,2c5c <div_loop_start+0xc>
    2c58:	fff28293          	addi	t0,t0,-1
    2c5c:	0002c863          	bltz	t0,2c6c <div_loop_start+0x1c>
    2c60:	40c30333          	sub	t1,t1,a2
    2c64:	00028793          	mv	a5,t0
    2c68:	00756533          	or	a0,a0,t2
    2c6c:	00165613          	srli	a2,a2,0x1
    2c70:	01f69293          	slli	t0,a3,0x1f
    2c74:	00566633          	or	a2,a2,t0
    2c78:	0016d693          	srli	a3,a3,0x1
    2c7c:	40d782b3          	sub	t0,a5,a3
    2c80:	00c37463          	bgeu	t1,a2,2c88 <div_loop_start+0x38>
    2c84:	fff28293          	addi	t0,t0,-1
    2c88:	0002ca63          	bltz	t0,2c9c <div_loop_start+0x4c>
    2c8c:	40c30333          	sub	t1,t1,a2
    2c90:	00028793          	mv	a5,t0
    2c94:	0013d293          	srli	t0,t2,0x1
    2c98:	00556533          	or	a0,a0,t0
    2c9c:	00165613          	srli	a2,a2,0x1
    2ca0:	01f69293          	slli	t0,a3,0x1f
    2ca4:	00566633          	or	a2,a2,t0
    2ca8:	0016d693          	srli	a3,a3,0x1
    2cac:	40d782b3          	sub	t0,a5,a3
    2cb0:	00c37463          	bgeu	t1,a2,2cb8 <div_loop_start+0x68>
    2cb4:	fff28293          	addi	t0,t0,-1
    2cb8:	0002ca63          	bltz	t0,2ccc <div_loop_start+0x7c>
    2cbc:	40c30333          	sub	t1,t1,a2
    2cc0:	00028793          	mv	a5,t0
    2cc4:	0023d293          	srli	t0,t2,0x2
    2cc8:	00556533          	or	a0,a0,t0
    2ccc:	00165613          	srli	a2,a2,0x1
    2cd0:	01f69293          	slli	t0,a3,0x1f
    2cd4:	00566633          	or	a2,a2,t0
    2cd8:	0016d693          	srli	a3,a3,0x1
    2cdc:	40d782b3          	sub	t0,a5,a3
    2ce0:	00c37463          	bgeu	t1,a2,2ce8 <div_loop_start+0x98>
    2ce4:	fff28293          	addi	t0,t0,-1
    2ce8:	0002ca63          	bltz	t0,2cfc <div_loop_start+0xac>
    2cec:	40c30333          	sub	t1,t1,a2
    2cf0:	00028793          	mv	a5,t0
    2cf4:	0033d293          	srli	t0,t2,0x3
    2cf8:	00556533          	or	a0,a0,t0
    2cfc:	0067e2b3          	or	t0,a5,t1
    2d00:	04028463          	beqz	t0,2d48 <div_loop_exit>
    2d04:	00479793          	slli	a5,a5,0x4
    2d08:	01c35293          	srli	t0,t1,0x1c
    2d0c:	0057e7b3          	or	a5,a5,t0
    2d10:	00431313          	slli	t1,t1,0x4
    2d14:	00369693          	slli	a3,a3,0x3
    2d18:	01d65293          	srli	t0,a2,0x1d
    2d1c:	0056e6b3          	or	a3,a3,t0
    2d20:	00361613          	slli	a2,a2,0x3
    2d24:	0043d393          	srli	t2,t2,0x4
    2d28:	f20394e3          	bnez	t2,2c50 <div_loop_start>
    2d2c:	001002b7          	lui	t0,0x100
    2d30:	00b2f2b3          	and	t0,t0,a1
    2d34:	02029463          	bnez	t0,2d5c <checks>
    2d38:	00a5e5b3          	or	a1,a1,a0
    2d3c:	00000513          	li	a0,0
    2d40:	800003b7          	lui	t2,0x80000
    2d44:	f0dff06f          	j	2c50 <div_loop_start>

00002d48 <div_loop_exit>:
    2d48:	001002b7          	lui	t0,0x100
    2d4c:	00b2f2b3          	and	t0,t0,a1
    2d50:	00029663          	bnez	t0,2d5c <checks>
    2d54:	00a5e5b3          	or	a1,a1,a0
    2d58:	00000513          	li	a0,0

00002d5c <checks>:
    2d5c:	f0370393          	addi	t2,a4,-253
    2d60:	00e3f663          	bgeu	t2,a4,2d6c <exp_round>
    2d64:	70000293          	li	t0,1792
    2d68:	0672e063          	bltu	t0,t2,2dc8 <und_ov_flow>

00002d6c <exp_round>:
    2d6c:	01471713          	slli	a4,a4,0x14
    2d70:	00e585b3          	add	a1,a1,a4
    2d74:	02d7e263          	bltu	a5,a3,2d98 <exit>
    2d78:	00f6ea63          	bltu	a3,a5,2d8c <round_up>
    2d7c:	00c36e63          	bltu	t1,a2,2d98 <exit>
    2d80:	00666663          	bltu	a2,t1,2d8c <round_up>
    2d84:	01f51293          	slli	t0,a0,0x1f
    2d88:	00028863          	beqz	t0,2d98 <exit>

00002d8c <round_up>:
    2d8c:	00150513          	addi	a0,a0,1 # 100001 <__stack_size+0x1>
    2d90:	00153293          	seqz	t0,a0
    2d94:	005585b3          	add	a1,a1,t0

00002d98 <exit>:
    2d98:	00008067          	ret

00002d9c <pow_2>:
    2d9c:	800003b7          	lui	t2,0x80000
    2da0:	0072f2b3          	and	t0,t0,t2
    2da4:	00c5d593          	srli	a1,a1,0xc
    2da8:	0055e5b3          	or	a1,a1,t0
    2dac:	3ff70713          	addi	a4,a4,1023
    2db0:	02e05463          	blez	a4,2dd8 <signed_zero>
    2db4:	7ff72293          	slti	t0,a4,2047
    2db8:	04028a63          	beqz	t0,2e0c <ovf>
    2dbc:	01471713          	slli	a4,a4,0x14
    2dc0:	00e5e5b3          	or	a1,a1,a4
    2dc4:	00008067          	ret

00002dc8 <und_ov_flow>:
    2dc8:	0472c263          	blt	t0,t2,2e0c <ovf>
    2dcc:	00c0006f          	j	2dd8 <signed_zero>

00002dd0 <zero_denormal>:
    2dd0:	04030a63          	beqz	t1,2e24 <div_by_zero>

00002dd4 <zero>:
    2dd4:	00d5c5b3          	xor	a1,a1,a3

00002dd8 <signed_zero>:
    2dd8:	01f5d593          	srli	a1,a1,0x1f
    2ddc:	01f59593          	slli	a1,a1,0x1f
    2de0:	00000513          	li	a0,0
    2de4:	00008067          	ret

00002de8 <inf_nan>:
    2de8:	00a032b3          	snez	t0,a0
    2dec:	00e2e2b3          	or	t0,t0,a4
    2df0:	0257ec63          	bltu	a5,t0,2e28 <nan>
    2df4:	00c032b3          	snez	t0,a2
    2df8:	0062e2b3          	or	t0,t0,t1
    2dfc:	0257e663          	bltu	a5,t0,2e28 <nan>
    2e00:	02670463          	beq	a4,t1,2e28 <nan>
    2e04:	fcf308e3          	beq	t1,a5,2dd4 <zero>

00002e08 <inf>:
    2e08:	00d5c5b3          	xor	a1,a1,a3

00002e0c <ovf>:
    2e0c:	7ff006b7          	lui	a3,0x7ff00
    2e10:	01f5d593          	srli	a1,a1,0x1f
    2e14:	01f59593          	slli	a1,a1,0x1f
    2e18:	00d5e5b3          	or	a1,a1,a3
    2e1c:	00000513          	li	a0,0
    2e20:	00008067          	ret

00002e24 <div_by_zero>:
    2e24:	fe0712e3          	bnez	a4,2e08 <inf>

00002e28 <nan>:
    2e28:	7ff805b7          	lui	a1,0x7ff80
    2e2c:	00000513          	li	a0,0
    2e30:	00008067          	ret

00002e34 <__fixsfsi>:
    2e34:	80000737          	lui	a4,0x80000
    2e38:	41f55793          	srai	a5,a0,0x1f
    2e3c:	00151513          	slli	a0,a0,0x1
    2e40:	01855593          	srli	a1,a0,0x18
    2e44:	f8158593          	addi	a1,a1,-127 # 7ff7ff81 <_stack_end+0x7fe72711>
    2e48:	0205ca63          	bltz	a1,2e7c <undflow>
    2e4c:	40b005b3          	neg	a1,a1
    2e50:	01f58593          	addi	a1,a1,31
    2e54:	00b05e63          	blez	a1,2e70 <ovflow>
    2e58:	00751513          	slli	a0,a0,0x7
    2e5c:	00e56533          	or	a0,a0,a4
    2e60:	00b55533          	srl	a0,a0,a1
    2e64:	00f54533          	xor	a0,a0,a5
    2e68:	40f50533          	sub	a0,a0,a5
    2e6c:	00008067          	ret

00002e70 <ovflow>:
    2e70:	fff70513          	addi	a0,a4,-1 # 7fffffff <_stack_end+0x7fef278f>
    2e74:	00f54533          	xor	a0,a0,a5
    2e78:	00008067          	ret

00002e7c <undflow>:
    2e7c:	00000513          	li	a0,0
    2e80:	00008067          	ret

00002e84 <__floatsidf>:
    2e84:	41f55793          	srai	a5,a0,0x1f
    2e88:	00f545b3          	xor	a1,a0,a5
    2e8c:	40f585b3          	sub	a1,a1,a5
    2e90:	02050863          	beqz	a0,2ec0 <exit>
    2e94:	01f79793          	slli	a5,a5,0x1f
    2e98:	41d00613          	li	a2,1053
    2e9c:	0005c863          	bltz	a1,2eac <__floatsidf+0x28>
    2ea0:	fff60613          	addi	a2,a2,-1
    2ea4:	00159593          	slli	a1,a1,0x1
    2ea8:	feb04ce3          	bgtz	a1,2ea0 <__floatsidf+0x1c>
    2eac:	01559513          	slli	a0,a1,0x15
    2eb0:	00b5d593          	srli	a1,a1,0xb
    2eb4:	01461613          	slli	a2,a2,0x14
    2eb8:	00c585b3          	add	a1,a1,a2
    2ebc:	00f5e5b3          	or	a1,a1,a5

00002ec0 <exit>:
    2ec0:	00008067          	ret

00002ec4 <__muldf3>:
    2ec4:	00d5c733          	xor	a4,a1,a3
    2ec8:	800007b7          	lui	a5,0x80000
    2ecc:	00f772b3          	and	t0,a4,a5
    2ed0:	7ff00793          	li	a5,2047
    2ed4:	0145d713          	srli	a4,a1,0x14
    2ed8:	00f77733          	and	a4,a4,a5
    2edc:	0146d313          	srli	t1,a3,0x14
    2ee0:	00f37333          	and	t1,t1,a5
    2ee4:	10f70863          	beq	a4,a5,2ff4 <inf_nan>
    2ee8:	10f30663          	beq	t1,a5,2ff4 <inf_nan>
    2eec:	0e070e63          	beqz	a4,2fe8 <signed_zero>
    2ef0:	0e030c63          	beqz	t1,2fe8 <signed_zero>

00002ef4 <normal_case>:
    2ef4:	00670733          	add	a4,a4,t1
    2ef8:	fff007b7          	lui	a5,0xfff00
    2efc:	fff7c793          	not	a5,a5
    2f00:	00f5f5b3          	and	a1,a1,a5
    2f04:	00f6f6b3          	and	a3,a3,a5
    2f08:	001007b7          	lui	a5,0x100
    2f0c:	00f5e5b3          	or	a1,a1,a5
    2f10:	00f6e6b3          	or	a3,a3,a5
    2f14:	02c58333          	mul	t1,a1,a2
    2f18:	02d507b3          	mul	a5,a0,a3
    2f1c:	00f30333          	add	t1,t1,a5
    2f20:	00f337b3          	sltu	a5,t1,a5
    2f24:	02c5b3b3          	mulhu	t2,a1,a2
    2f28:	00f383b3          	add	t2,t2,a5
    2f2c:	02d537b3          	mulhu	a5,a0,a3
    2f30:	00f383b3          	add	t2,t2,a5
    2f34:	02c507b3          	mul	a5,a0,a2
    2f38:	02c53633          	mulhu	a2,a0,a2
    2f3c:	02d58533          	mul	a0,a1,a3
    2f40:	02d5b5b3          	mulhu	a1,a1,a3
    2f44:	00660633          	add	a2,a2,t1
    2f48:	00663333          	sltu	t1,a2,t1
    2f4c:	006383b3          	add	t2,t2,t1
    2f50:	00750533          	add	a0,a0,t2
    2f54:	007533b3          	sltu	t2,a0,t2
    2f58:	007585b3          	add	a1,a1,t2
    2f5c:	00f037b3          	snez	a5,a5
    2f60:	00f66633          	or	a2,a2,a5
    2f64:	20000393          	li	t2,512
    2f68:	0275f263          	bgeu	a1,t2,2f8c <normal_case+0x98>
    2f6c:	00159593          	slli	a1,a1,0x1
    2f70:	01f55793          	srli	a5,a0,0x1f
    2f74:	00f5e5b3          	or	a1,a1,a5
    2f78:	00151513          	slli	a0,a0,0x1
    2f7c:	01f65793          	srli	a5,a2,0x1f
    2f80:	00f56533          	or	a0,a0,a5
    2f84:	00161613          	slli	a2,a2,0x1
    2f88:	fff70713          	addi	a4,a4,-1
    2f8c:	00b59593          	slli	a1,a1,0xb
    2f90:	01555793          	srli	a5,a0,0x15
    2f94:	00f5e5b3          	or	a1,a1,a5
    2f98:	00b51513          	slli	a0,a0,0xb
    2f9c:	01565793          	srli	a5,a2,0x15
    2fa0:	00f56533          	or	a0,a0,a5
    2fa4:	00b61613          	slli	a2,a2,0xb
    2fa8:	c0170713          	addi	a4,a4,-1023
    2fac:	7fe00313          	li	t1,2046
    2fb0:	02677863          	bgeu	a4,t1,2fe0 <und_ov_flow>
    2fb4:	01471713          	slli	a4,a4,0x14
    2fb8:	00e585b3          	add	a1,a1,a4

00002fbc <rounding>:
    2fbc:	800007b7          	lui	a5,0x80000
    2fc0:	00f66c63          	bltu	a2,a5,2fd8 <exit>
    2fc4:	00150513          	addi	a0,a0,1
    2fc8:	00153313          	seqz	t1,a0
    2fcc:	006585b3          	add	a1,a1,t1
    2fd0:	00f61463          	bne	a2,a5,2fd8 <exit>
    2fd4:	ffe57513          	andi	a0,a0,-2

00002fd8 <exit>:
    2fd8:	0055e5b3          	or	a1,a1,t0
    2fdc:	00008067          	ret

00002fe0 <und_ov_flow>:
    2fe0:	04e04463          	bgtz	a4,3028 <inf>
    2fe4:	0040006f          	j	2fe8 <signed_zero>

00002fe8 <signed_zero>:
    2fe8:	00028593          	mv	a1,t0

00002fec <zero_xl>:
    2fec:	00000513          	li	a0,0
    2ff0:	00008067          	ret

00002ff4 <inf_nan>:
    2ff4:	7ff00393          	li	t2,2047
    2ff8:	01571793          	slli	a5,a4,0x15
    2ffc:	02078c63          	beqz	a5,3034 <nan>
    3000:	01531793          	slli	a5,t1,0x15
    3004:	02078863          	beqz	a5,3034 <nan>
    3008:	00771863          	bne	a4,t2,3018 <inf_nan+0x24>
    300c:	00c59793          	slli	a5,a1,0xc
    3010:	00a7e7b3          	or	a5,a5,a0
    3014:	02079063          	bnez	a5,3034 <nan>
    3018:	00731863          	bne	t1,t2,3028 <inf>
    301c:	00c69713          	slli	a4,a3,0xc
    3020:	00c76733          	or	a4,a4,a2
    3024:	00071863          	bnez	a4,3034 <nan>

00003028 <inf>:
    3028:	7ff005b7          	lui	a1,0x7ff00
    302c:	0055e5b3          	or	a1,a1,t0
    3030:	fbdff06f          	j	2fec <zero_xl>

00003034 <nan>:
    3034:	7ff805b7          	lui	a1,0x7ff80
    3038:	fb5ff06f          	j	2fec <zero_xl>

0000303c <__truncdfsf2>:
    303c:	80000637          	lui	a2,0x80000
    3040:	00b676b3          	and	a3,a2,a1
    3044:	00159593          	slli	a1,a1,0x1
    3048:	ffe00737          	lui	a4,0xffe00
    304c:	04e5f663          	bgeu	a1,a4,3098 <inf_nan>
    3050:	0155d713          	srli	a4,a1,0x15
    3054:	c8070713          	addi	a4,a4,-896 # ffdffc80 <_stack_end+0xffcf2410>
    3058:	04e05e63          	blez	a4,30b4 <undflow>
    305c:	f0270793          	addi	a5,a4,-254
    3060:	04f04063          	bgtz	a5,30a0 <inf>
    3064:	00351793          	slli	a5,a0,0x3
    3068:	01d55513          	srli	a0,a0,0x1d
    306c:	00b59593          	slli	a1,a1,0xb
    3070:	0095d593          	srli	a1,a1,0x9
    3074:	00b56533          	or	a0,a0,a1
    3078:	0007d863          	bgez	a5,3088 <exp_sign_exit>
    307c:	00150513          	addi	a0,a0,1
    3080:	00c79463          	bne	a5,a2,3088 <exp_sign_exit>
    3084:	ffe57513          	andi	a0,a0,-2

00003088 <exp_sign_exit>:
    3088:	01771713          	slli	a4,a4,0x17
    308c:	00e50533          	add	a0,a0,a4
    3090:	00d56533          	or	a0,a0,a3
    3094:	00008067          	ret

00003098 <inf_nan>:
    3098:	00b76a63          	bltu	a4,a1,30ac <nan>
    309c:	00051863          	bnez	a0,30ac <nan>

000030a0 <inf>:
    30a0:	7f800537          	lui	a0,0x7f800
    30a4:	00d56533          	or	a0,a0,a3
    30a8:	00008067          	ret

000030ac <nan>:
    30ac:	7fc00537          	lui	a0,0x7fc00
    30b0:	00008067          	ret

000030b4 <undflow>:
    30b4:	00068513          	mv	a0,a3
    30b8:	00008067          	ret

Disassembly of section .data:

000030bc <welcome_msg>:
    30bc:	3d3d                	.insn	2, 0x3d3d
    30be:	3d3d                	.insn	2, 0x3d3d
    30c0:	3d3d                	.insn	2, 0x3d3d
    30c2:	3d3d                	.insn	2, 0x3d3d
    30c4:	3d3d                	.insn	2, 0x3d3d
    30c6:	3d3d                	.insn	2, 0x3d3d
    30c8:	3d3d                	.insn	2, 0x3d3d
    30ca:	3d3d                	.insn	2, 0x3d3d
    30cc:	3d3d                	.insn	2, 0x3d3d
    30ce:	3d3d                	.insn	2, 0x3d3d
    30d0:	3d3d                	.insn	2, 0x3d3d
    30d2:	3d3d                	.insn	2, 0x3d3d
    30d4:	3d3d                	.insn	2, 0x3d3d
    30d6:	3d3d                	.insn	2, 0x3d3d
    30d8:	3d3d                	.insn	2, 0x3d3d
    30da:	3d3d                	.insn	2, 0x3d3d
    30dc:	3d3d                	.insn	2, 0x3d3d
    30de:	3d3d                	.insn	2, 0x3d3d
    30e0:	3d3d                	.insn	2, 0x3d3d
    30e2:	3d3d                	.insn	2, 0x3d3d
    30e4:	3d3d                	.insn	2, 0x3d3d
    30e6:	3d3d                	.insn	2, 0x3d3d
    30e8:	3d3d                	.insn	2, 0x3d3d
    30ea:	3d3d                	.insn	2, 0x3d3d
    30ec:	3d0a                	.insn	2, 0x3d0a
    30ee:	3d3d                	.insn	2, 0x3d3d
    30f0:	3d3d                	.insn	2, 0x3d3d
    30f2:	5220                	.insn	2, 0x5220
    30f4:	5349                	.insn	2, 0x5349
    30f6:	20562d43          	.insn	4, 0x20562d43
    30fa:	6f42                	.insn	2, 0x6f42
    30fc:	552d746f          	jal	s0,da64e <availableLetters+0xcce6e>
    3100:	2070                	.insn	2, 0x2070
    3102:	7250                	.insn	2, 0x7250
    3104:	7365636f          	jal	t1,5983a <availableLetters+0x4c05a>
    3108:	6f4e2073          	csrs	0x6f4,t3
    310c:	6f432077          	.insn	4, 0x6f432077
    3110:	706d                	.insn	2, 0x706d
    3112:	656c                	.insn	2, 0x656c
    3114:	6574                	.insn	2, 0x6574
    3116:	3d20                	.insn	2, 0x3d20
    3118:	3d3d                	.insn	2, 0x3d3d
    311a:	3d3d                	.insn	2, 0x3d3d
    311c:	0a3d                	.insn	2, 0x0a3d
    311e:	3d3d                	.insn	2, 0x3d3d
    3120:	3d3d                	.insn	2, 0x3d3d
    3122:	3d3d                	.insn	2, 0x3d3d
    3124:	3d3d                	.insn	2, 0x3d3d
    3126:	3d3d                	.insn	2, 0x3d3d
    3128:	3d3d                	.insn	2, 0x3d3d
    312a:	3d3d                	.insn	2, 0x3d3d
    312c:	3d3d                	.insn	2, 0x3d3d
    312e:	3d3d                	.insn	2, 0x3d3d
    3130:	3d3d                	.insn	2, 0x3d3d
    3132:	3d3d                	.insn	2, 0x3d3d
    3134:	3d3d                	.insn	2, 0x3d3d
    3136:	3d3d                	.insn	2, 0x3d3d
    3138:	3d3d                	.insn	2, 0x3d3d
    313a:	3d3d                	.insn	2, 0x3d3d
    313c:	3d3d                	.insn	2, 0x3d3d
    313e:	3d3d                	.insn	2, 0x3d3d
    3140:	3d3d                	.insn	2, 0x3d3d
    3142:	3d3d                	.insn	2, 0x3d3d
    3144:	3d3d                	.insn	2, 0x3d3d
    3146:	3d3d                	.insn	2, 0x3d3d
    3148:	3d3d                	.insn	2, 0x3d3d
    314a:	3d3d                	.insn	2, 0x3d3d
    314c:	3d3d                	.insn	2, 0x3d3d
    314e:	000a                	.insn	2, 0x000a

00003150 <seed>:
    3150:	cd15                	.insn	2, 0xcd15
    3152:	Address 0x3152 is out of bounds.


Disassembly of section .rodata:

00004ac0 <CSWTCH.8-0x6c>:
    4ac0:	0264                	.insn	2, 0x0264
    4ac2:	0000                	.insn	2, 0x
    4ac4:	026c                	.insn	2, 0x026c
    4ac6:	0000                	.insn	2, 0x
    4ac8:	0274                	.insn	2, 0x0274
    4aca:	0000                	.insn	2, 0x
    4acc:	027c                	.insn	2, 0x027c
    4ace:	0000                	.insn	2, 0x
    4ad0:	0284                	.insn	2, 0x0284
    4ad2:	0000                	.insn	2, 0x
    4ad4:	028c                	.insn	2, 0x028c
    4ad6:	0000                	.insn	2, 0x
    4ad8:	0294                	.insn	2, 0x0294
    4ada:	0000                	.insn	2, 0x
    4adc:	0254                	.insn	2, 0x0254
    4ade:	0000                	.insn	2, 0x
    4ae0:	025c                	.insn	2, 0x025c
    4ae2:	0000                	.insn	2, 0x
    4ae4:	0380                	.insn	2, 0x0380
    4ae6:	0000                	.insn	2, 0x
    4ae8:	03cc                	.insn	2, 0x03cc
    4aea:	0000                	.insn	2, 0x
    4aec:	0418                	.insn	2, 0x0418
    4aee:	0000                	.insn	2, 0x
    4af0:	0464                	.insn	2, 0x0464
    4af2:	0000                	.insn	2, 0x
    4af4:	04b0                	.insn	2, 0x04b0
    4af6:	0000                	.insn	2, 0x
    4af8:	04fc                	.insn	2, 0x04fc
    4afa:	0000                	.insn	2, 0x
    4afc:	0548                	.insn	2, 0x0548
    4afe:	0000                	.insn	2, 0x
    4b00:	02dc                	.insn	2, 0x02dc
    4b02:	0000                	.insn	2, 0x
    4b04:	0334                	.insn	2, 0x0334
    4b06:	0000                	.insn	2, 0x
    4b08:	0b70                	.insn	2, 0x0b70
    4b0a:	0000                	.insn	2, 0x
    4b0c:	0b78                	.insn	2, 0x0b78
    4b0e:	0000                	.insn	2, 0x
    4b10:	0b80                	.insn	2, 0x0b80
    4b12:	0000                	.insn	2, 0x
    4b14:	0b88                	.insn	2, 0x0b88
    4b16:	0000                	.insn	2, 0x
    4b18:	0b90                	.insn	2, 0x0b90
    4b1a:	0000                	.insn	2, 0x
    4b1c:	0b98                	.insn	2, 0x0b98
    4b1e:	0000                	.insn	2, 0x
    4b20:	0ba0                	.insn	2, 0x0ba0
    4b22:	0000                	.insn	2, 0x
    4b24:	0b60                	.insn	2, 0x0b60
    4b26:	0000                	.insn	2, 0x
    4b28:	0b68                	.insn	2, 0x0b68
	...

00004b2c <CSWTCH.8>:
    4b2c:	00ff 0000 001c 0000 	.insn	10, 0x001c0000001c000000ff
    4b34:	001c 
    4b36:	0000                	.insn	2, 0x
    4b38:	001c                	.insn	2, 0x001c
    4b3a:	0000                	.insn	2, 0x
    4b3c:	00e0                	.insn	2, 0x00e0
	...

00004b40 <two_dots>:
    4b40:	0104                	.insn	2, 0x0104
    4b42:	0401                	.insn	2, 0x0401
    4b44:	0201                	.insn	2, 0x0201
    4b46:	0102                	.insn	2, 0x0102
    4b48:	0201                	.insn	2, 0x0201
    4b4a:	0102                	.insn	2, 0x0102
    4b4c:	0306                	.insn	2, 0x0306
    4b4e:	00000603          	lb	a2,0(zero) # 0 <_isr_handler>
	...
    4b6a:	0000                	.insn	2, 0x
    4b6c:	0305                	.insn	2, 0x0305
    4b6e:	02010503          	lb	a0,32(sp)
    4b72:	0102                	.insn	2, 0x0102
    4b74:	0201                	.insn	2, 0x0201
    4b76:	0102                	.insn	2, 0x0102
    4b78:	0104                	.insn	2, 0x0104
    4b7a:	0401                	.insn	2, 0x0401

00004b7c <highscore_menu_score_image>:
    4b7c:	0000                	.insn	2, 0x
    4b7e:	020a0603          	lb	a2,32(s4)
    4b82:	0201                	.insn	2, 0x0201
    4b84:	0b04                	.insn	2, 0x0b04
    4b86:	0005                	.insn	2, 0x0005
	...
    4b90:	02040603          	lb	a2,32(s0)
    4b94:	0101                	.insn	2, 0x0101
    4b96:	0a02                	.insn	2, 0x0a02
    4b98:	0308                	.insn	2, 0x0308
	...
    4ba2:	0a09                	.insn	2, 0x0a09
    4ba4:	0102                	.insn	2, 0x0102
    4ba6:	0402                	.insn	2, 0x0402
    4ba8:	0306                	.insn	2, 0x0306
    4baa:	0000                	.insn	2, 0x
    4bac:	0000                	.insn	2, 0x
    4bae:	0000                	.insn	2, 0x
    4bb0:	0705                	.insn	2, 0x0705
    4bb2:	07070707          	.insn	4, 0x07070707
    4bb6:	06030003          	lb	zero,96(t1)
    4bba:	0204                	.insn	2, 0x0204
    4bbc:	0602                	.insn	2, 0x0602
	...
    4bc6:	0a08                	.insn	2, 0x0a08
    4bc8:	0102                	.insn	2, 0x0102
    4bca:	0401                	.insn	2, 0x0401
    4bcc:	0306                	.insn	2, 0x0306
    4bce:	0000                	.insn	2, 0x
    4bd0:	0900                	.insn	2, 0x0900
    4bd2:	0101                	.insn	2, 0x0101
    4bd4:	0101                	.insn	2, 0x0101
    4bd6:	0102                	.insn	2, 0x0102
    4bd8:	0101                	.insn	2, 0x0101
    4bda:	0401                	.insn	2, 0x0401
    4bdc:	00000003          	lb	zero,0(zero) # 0 <_isr_handler>
    4be0:	0000                	.insn	2, 0x
    4be2:	0800                	.insn	2, 0x0800
    4be4:	0101                	.insn	2, 0x0101
    4be6:	0101                	.insn	2, 0x0101
    4be8:	0101                	.insn	2, 0x0101
    4bea:	0101                	.insn	2, 0x0101
    4bec:	0101                	.insn	2, 0x0101
    4bee:	0005                	.insn	2, 0x0005
    4bf0:	0000                	.insn	2, 0x
    4bf2:	0000                	.insn	2, 0x
    4bf4:	01010403          	lb	s0,16(sp)
    4bf8:	0101                	.insn	2, 0x0101
    4bfa:	0101                	.insn	2, 0x0101
    4bfc:	0101                	.insn	2, 0x0101
    4bfe:	0008                	.insn	2, 0x0008
    4c00:	0000                	.insn	2, 0x
    4c02:	0000                	.insn	2, 0x
    4c04:	0108                	.insn	2, 0x0108
    4c06:	0101                	.insn	2, 0x0101
    4c08:	0101                	.insn	2, 0x0101
    4c0a:	0809                	.insn	2, 0x0809
    4c0c:	0101                	.insn	2, 0x0101
    4c0e:	0101                	.insn	2, 0x0101
    4c10:	0101                	.insn	2, 0x0101
    4c12:	0009                	.insn	2, 0x0009
    4c14:	0000                	.insn	2, 0x
    4c16:	0000                	.insn	2, 0x
    4c18:	0109                	.insn	2, 0x0109
    4c1a:	0101                	.insn	2, 0x0101
    4c1c:	0201                	.insn	2, 0x0201
    4c1e:	0101                	.insn	2, 0x0101
    4c20:	0201                	.insn	2, 0x0201
    4c22:	000c                	.insn	2, 0x000c
    4c24:	0a010103          	lb	sp,160(sp)
    4c28:	0005                	.insn	2, 0x0005
    4c2a:	0000                	.insn	2, 0x
    4c2c:	04020603          	lb	a2,64(tp) # 40 <_isr_routine+0x38>
    4c30:	0000                	.insn	2, 0x
    4c32:	0000                	.insn	2, 0x
    4c34:	0000                	.insn	2, 0x
    4c36:	0108                	.insn	2, 0x0108
    4c38:	0401                	.insn	2, 0x0401
    4c3a:	0308                	.insn	2, 0x0308
    4c3c:	0000                	.insn	2, 0x
    4c3e:	090c                	.insn	2, 0x090c
    4c40:	0102                	.insn	2, 0x0102
    4c42:	0005                	.insn	2, 0x0005
    4c44:	0000                	.insn	2, 0x
    4c46:	0000                	.insn	2, 0x
    4c48:	0104                	.insn	2, 0x0104
    4c4a:	0902                	.insn	2, 0x0902
    4c4c:	0000                	.insn	2, 0x
    4c4e:	0500                	.insn	2, 0x0500
    4c50:	010a                	.insn	2, 0x010a
    4c52:	0801                	.insn	2, 0x0801
    4c54:	0000                	.insn	2, 0x
    4c56:	0000                	.insn	2, 0x
    4c58:	05050503          	lb	a0,80(a0) # 7fc00050 <_stack_end+0x7faf27e0>
    4c5c:	0102010b          	.insn	4, 0x0102010b
    4c60:	0904                	.insn	2, 0x0904
    4c62:	010a0303          	lb	t1,16(s4)
    4c66:	000a                	.insn	2, 0x000a
    4c68:	0000                	.insn	2, 0x
    4c6a:	0900                	.insn	2, 0x0900
    4c6c:	0101                	.insn	2, 0x0101
    4c6e:	00000c07          	.insn	4, 0x0c07
    4c72:	0500                	.insn	2, 0x0500
    4c74:	0104                	.insn	2, 0x0104
    4c76:	0002                	.insn	2, 0x0002
    4c78:	0109                	.insn	2, 0x0109
    4c7a:	0001                	.insn	2, 0x0001
    4c7c:	0000                	.insn	2, 0x
    4c7e:	0000                	.insn	2, 0x
    4c80:	0000                	.insn	2, 0x
    4c82:	0300                	.insn	2, 0x0300
    4c84:	0000                	.insn	2, 0x
    4c86:	0000                	.insn	2, 0x
    4c88:	0300                	.insn	2, 0x0300
    4c8a:	0101                	.insn	2, 0x0101
    4c8c:	00000007          	.insn	4, 0x0007
    4c90:	0000                	.insn	2, 0x
    4c92:	0000                	.insn	2, 0x
    4c94:	0104                	.insn	2, 0x0104
    4c96:	0005                	.insn	2, 0x0005
    4c98:	0000                	.insn	2, 0x
    4c9a:	0b00                	.insn	2, 0x0b00
    4c9c:	0101                	.insn	2, 0x0101
    4c9e:	000c                	.insn	2, 0x000c
    4ca0:	0000                	.insn	2, 0x
    4ca2:	0000                	.insn	2, 0x
    4ca4:	0a00                	.insn	2, 0x0a00
    4ca6:	0101                	.insn	2, 0x0101
	...
    4cb0:	0106                	.insn	2, 0x0106
    4cb2:	0b01                	.insn	2, 0x0b01
    4cb4:	0000                	.insn	2, 0x
    4cb6:	0000                	.insn	2, 0x
    4cb8:	0105                	.insn	2, 0x0105
    4cba:	0002                	.insn	2, 0x0002
    4cbc:	0000                	.insn	2, 0x
    4cbe:	0200                	.insn	2, 0x0200
    4cc0:	0b01                	.insn	2, 0x0b01
    4cc2:	0000                	.insn	2, 0x
    4cc4:	0000                	.insn	2, 0x
    4cc6:	0000                	.insn	2, 0x
    4cc8:	08010203          	lb	tp,128(sp)
    4ccc:	0109                	.insn	2, 0x0109
    4cce:	0001                	.insn	2, 0x0001
	...
    4cdc:	0b00                	.insn	2, 0x0b00
    4cde:	0101                	.insn	2, 0x0101
	...
    4ce8:	0104                	.insn	2, 0x0104
    4cea:	0005                	.insn	2, 0x0005
    4cec:	0000                	.insn	2, 0x
    4cee:	0100                	.insn	2, 0x0100
    4cf0:	0601                	.insn	2, 0x0601
    4cf2:	0000                	.insn	2, 0x
    4cf4:	0000                	.insn	2, 0x
    4cf6:	0000                	.insn	2, 0x
    4cf8:	0300                	.insn	2, 0x0300
    4cfa:	0101                	.insn	2, 0x0101
    4cfc:	0008                	.insn	2, 0x0008
    4cfe:	0000                	.insn	2, 0x
    4d00:	0000                	.insn	2, 0x
    4d02:	0000                	.insn	2, 0x
    4d04:	0106                	.insn	2, 0x0106
    4d06:	0004                	.insn	2, 0x0004
    4d08:	0000                	.insn	2, 0x
    4d0a:	0000                	.insn	2, 0x
    4d0c:	00020103          	lb	sp,0(tp) # 0 <_isr_handler>
    4d10:	0000                	.insn	2, 0x
    4d12:	0108                	.insn	2, 0x0108
    4d14:	0002                	.insn	2, 0x0002
    4d16:	0000                	.insn	2, 0x
    4d18:	0000                	.insn	2, 0x
    4d1a:	0000                	.insn	2, 0x
    4d1c:	0600                	.insn	2, 0x0600
    4d1e:	0a01                	.insn	2, 0x0a01
    4d20:	04010103          	lb	sp,64(sp)
    4d24:	0308                	.insn	2, 0x0308
	...
    4d2e:	0000                	.insn	2, 0x
    4d30:	0400                	.insn	2, 0x0400
    4d32:	0701                	.insn	2, 0x0701
	...
    4d3c:	050c                	.insn	2, 0x050c
    4d3e:	0000                	.insn	2, 0x
    4d40:	0000                	.insn	2, 0x
    4d42:	010c                	.insn	2, 0x010c
    4d44:	0501                	.insn	2, 0x0501
	...
    4d4e:	0104                	.insn	2, 0x0104
    4d50:	00000007          	.insn	4, 0x0007
    4d54:	0000                	.insn	2, 0x
    4d56:	0000                	.insn	2, 0x
    4d58:	0106                	.insn	2, 0x0106
    4d5a:	0004                	.insn	2, 0x0004
    4d5c:	0000                	.insn	2, 0x
    4d5e:	0000                	.insn	2, 0x
    4d60:	0b00                	.insn	2, 0x0b00
    4d62:	0006                	.insn	2, 0x0006
    4d64:	0000                	.insn	2, 0x
    4d66:	030a0107          	.insn	4, 0x030a0107
    4d6a:	03030303          	lb	t1,48(t1)
    4d6e:	09030303          	lb	t1,144(t1)
    4d72:	0201                	.insn	2, 0x0201
    4d74:	0900                	.insn	2, 0x0900
    4d76:	0101                	.insn	2, 0x0101
    4d78:	0101                	.insn	2, 0x0101
    4d7a:	0b04                	.insn	2, 0x0b04
    4d7c:	0009                	.insn	2, 0x0009
    4d7e:	0000                	.insn	2, 0x
    4d80:	0000                	.insn	2, 0x
    4d82:	0000                	.insn	2, 0x
    4d84:	0100                	.insn	2, 0x0100
    4d86:	0601                	.insn	2, 0x0601
	...
    4d94:	0000                	.insn	2, 0x
    4d96:	0109                	.insn	2, 0x0109
    4d98:	0301                	.insn	2, 0x0301
	...
    4da2:	00040107          	.insn	4, 0x00040107
    4da6:	0000                	.insn	2, 0x
    4da8:	0000                	.insn	2, 0x
    4daa:	0000                	.insn	2, 0x
    4dac:	0106                	.insn	2, 0x0106
    4dae:	0004                	.insn	2, 0x0004
	...
    4db8:	0000                	.insn	2, 0x
    4dba:	0104                	.insn	2, 0x0104
    4dbc:	0101                	.insn	2, 0x0101
    4dbe:	0101                	.insn	2, 0x0101
    4dc0:	0101                	.insn	2, 0x0101
    4dc2:	0101                	.insn	2, 0x0101
    4dc4:	0101                	.insn	2, 0x0101
    4dc6:	0101                	.insn	2, 0x0101
    4dc8:	0000                	.insn	2, 0x
    4dca:	0800                	.insn	2, 0x0800
    4dcc:	010a                	.insn	2, 0x010a
    4dce:	0101                	.insn	2, 0x0101
    4dd0:	0101                	.insn	2, 0x0101
    4dd2:	00000307          	.insn	4, 0x0307
    4dd6:	0000                	.insn	2, 0x
    4dd8:	0100                	.insn	2, 0x0100
    4dda:	0801                	.insn	2, 0x0801
	...
    4de8:	0000                	.insn	2, 0x
    4dea:	0108                	.insn	2, 0x0108
    4dec:	0001                	.insn	2, 0x0001
	...
    4df6:	0106                	.insn	2, 0x0106
    4df8:	0002                	.insn	2, 0x0002
    4dfa:	0000                	.insn	2, 0x
    4dfc:	0000                	.insn	2, 0x
    4dfe:	0000                	.insn	2, 0x
    4e00:	0106                	.insn	2, 0x0106
    4e02:	0004                	.insn	2, 0x0004
	...
    4e0c:	0000                	.insn	2, 0x
    4e0e:	0104                	.insn	2, 0x0104
    4e10:	0201                	.insn	2, 0x0201
    4e12:	0202                	.insn	2, 0x0202
    4e14:	0202                	.insn	2, 0x0202
    4e16:	0202                	.insn	2, 0x0202
    4e18:	0202                	.insn	2, 0x0202
    4e1a:	0402                	.insn	2, 0x0402
    4e1c:	0000                	.insn	2, 0x
    4e1e:	0000                	.insn	2, 0x
    4e20:	0000                	.insn	2, 0x
    4e22:	0605                	.insn	2, 0x0605
    4e24:	0104                	.insn	2, 0x0104
    4e26:	0201                	.insn	2, 0x0201
    4e28:	00000003          	lb	zero,0(zero) # 0 <_isr_handler>
    4e2c:	0100                	.insn	2, 0x0100
    4e2e:	0601                	.insn	2, 0x0601
	...
    4e3c:	0000                	.insn	2, 0x
    4e3e:	0109                	.insn	2, 0x0109
    4e40:	0301                	.insn	2, 0x0301
	...
    4e4a:	0004010b          	.insn	4, 0x0004010b
    4e4e:	0000                	.insn	2, 0x
    4e50:	0000                	.insn	2, 0x
    4e52:	0000                	.insn	2, 0x
    4e54:	0106                	.insn	2, 0x0106
    4e56:	0004                	.insn	2, 0x0004
	...
    4e60:	0000                	.insn	2, 0x
    4e62:	0104                	.insn	2, 0x0104
    4e64:	0000000b          	.insn	4, 0x000b
	...
    4e78:	0500                	.insn	2, 0x0500
    4e7a:	0101                	.insn	2, 0x0101
    4e7c:	0000000b          	.insn	4, 0x000b
    4e80:	0400                	.insn	2, 0x0400
    4e82:	0a01                	.insn	2, 0x0a01
	...
    4e90:	0000                	.insn	2, 0x
    4e92:	010c                	.insn	2, 0x010c
    4e94:	0501                	.insn	2, 0x0501
	...
    4e9e:	010a                	.insn	2, 0x010a
    4ea0:	000a                	.insn	2, 0x000a
    4ea2:	0000                	.insn	2, 0x
    4ea4:	0000                	.insn	2, 0x
    4ea6:	0000                	.insn	2, 0x
    4ea8:	0106                	.insn	2, 0x0106
    4eaa:	0004                	.insn	2, 0x0004
	...
    4eb4:	0000                	.insn	2, 0x
    4eb6:	000a0107          	.insn	4, 0x000a0107
	...
    4ece:	000a0107          	.insn	4, 0x000a0107
    4ed2:	0000                	.insn	2, 0x
    4ed4:	0600                	.insn	2, 0x0600
    4ed6:	0101                	.insn	2, 0x0101
    4ed8:	0005                	.insn	2, 0x0005
	...
    4ee6:	0200                	.insn	2, 0x0200
    4ee8:	0701                	.insn	2, 0x0701
	...
    4ef2:	0101                	.insn	2, 0x0101
    4ef4:	0008                	.insn	2, 0x0008
    4ef6:	0000                	.insn	2, 0x
    4ef8:	0000                	.insn	2, 0x
    4efa:	0000                	.insn	2, 0x
    4efc:	0106                	.insn	2, 0x0106
    4efe:	0004                	.insn	2, 0x0004
	...
    4f08:	0000                	.insn	2, 0x
    4f0a:	0108                	.insn	2, 0x0108
    4f0c:	0301                	.insn	2, 0x0301
	...
    4f16:	0000                	.insn	2, 0x
    4f18:	00000b03          	lb	s6,0(zero) # 0 <_isr_handler>
    4f1c:	0000                	.insn	2, 0x
    4f1e:	0000                	.insn	2, 0x
    4f20:	0000                	.insn	2, 0x
    4f22:	010a                	.insn	2, 0x010a
    4f24:	0000000b          	.insn	4, 0x000b
    4f28:	0300                	.insn	2, 0x0300
    4f2a:	0101                	.insn	2, 0x0101
    4f2c:	0502                	.insn	2, 0x0502
    4f2e:	0000                	.insn	2, 0x
    4f30:	0000                	.insn	2, 0x
    4f32:	0000                	.insn	2, 0x
    4f34:	0900                	.insn	2, 0x0900
    4f36:	0005                	.insn	2, 0x0005
    4f38:	0000                	.insn	2, 0x
    4f3a:	0600                	.insn	2, 0x0600
    4f3c:	0101                	.insn	2, 0x0101
    4f3e:	0005                	.insn	2, 0x0005
    4f40:	0000                	.insn	2, 0x
    4f42:	0000                	.insn	2, 0x
    4f44:	0b00                	.insn	2, 0x0b00
    4f46:	0101                	.insn	2, 0x0101
    4f48:	00000003          	lb	zero,0(zero) # 0 <_isr_handler>
    4f4c:	0000                	.insn	2, 0x
    4f4e:	0000                	.insn	2, 0x
    4f50:	0106                	.insn	2, 0x0106
    4f52:	0004                	.insn	2, 0x0004
	...
    4f5c:	0000                	.insn	2, 0x
    4f5e:	0200                	.insn	2, 0x0200
    4f60:	0a01                	.insn	2, 0x0a01
	...
    4f6a:	0308                	.insn	2, 0x0308
    4f6c:	06020107          	.insn	4, 0x06020107
    4f70:	000c                	.insn	2, 0x000c
    4f72:	0000                	.insn	2, 0x
    4f74:	01010b03          	lb	s6,16(sp)
    4f78:	000c                	.insn	2, 0x000c
    4f7a:	0000                	.insn	2, 0x
    4f7c:	0000                	.insn	2, 0x
    4f7e:	0108                	.insn	2, 0x0108
    4f80:	0101                	.insn	2, 0x0101
    4f82:	0c0c0907          	.insn	4, 0x0c0c0907
    4f86:	0605                	.insn	2, 0x0605
    4f88:	0104                	.insn	2, 0x0104
    4f8a:	0002                	.insn	2, 0x0002
    4f8c:	0000                	.insn	2, 0x
    4f8e:	0000                	.insn	2, 0x
    4f90:	0104                	.insn	2, 0x0104
    4f92:	0801                	.insn	2, 0x0801
    4f94:	0c000003          	lb	zero,192(zero) # c0 <external_irq+0xc>
    4f98:	08010107          	.insn	4, 0x08010107
    4f9c:	0000                	.insn	2, 0x
    4f9e:	0000                	.insn	2, 0x
    4fa0:	05050503          	lb	a0,80(a0)
    4fa4:	0504010b          	.insn	4, 0x0504010b
    4fa8:	0505                	.insn	2, 0x0505
    4faa:	0505                	.insn	2, 0x0505
    4fac:	00000003          	lb	zero,0(zero) # 0 <_isr_handler>
    4fb0:	0000                	.insn	2, 0x
    4fb2:	0900                	.insn	2, 0x0900
    4fb4:	0101                	.insn	2, 0x0101
    4fb6:	0804                	.insn	2, 0x0804
    4fb8:	0c030003          	lb	zero,192(t1)
    4fbc:	0206                	.insn	2, 0x0206
    4fbe:	0701                	.insn	2, 0x0701
    4fc0:	0209                	.insn	2, 0x0209
    4fc2:	0101                	.insn	2, 0x0101
    4fc4:	0101                	.insn	2, 0x0101
    4fc6:	0102                	.insn	2, 0x0102
    4fc8:	0101                	.insn	2, 0x0101
    4fca:	0901                	.insn	2, 0x0901
    4fcc:	0000                	.insn	2, 0x
    4fce:	0000                	.insn	2, 0x
    4fd0:	0000                	.insn	2, 0x
    4fd2:	0800                	.insn	2, 0x0800
    4fd4:	0101                	.insn	2, 0x0101
    4fd6:	0101                	.insn	2, 0x0101
    4fd8:	0101                	.insn	2, 0x0101
    4fda:	0101                	.insn	2, 0x0101
    4fdc:	0201                	.insn	2, 0x0201
    4fde:	0009                	.insn	2, 0x0009
    4fe0:	0000                	.insn	2, 0x
    4fe2:	0000                	.insn	2, 0x
    4fe4:	01010403          	lb	s0,16(sp)
    4fe8:	0101                	.insn	2, 0x0101
    4fea:	0101                	.insn	2, 0x0101
    4fec:	0101                	.insn	2, 0x0101
    4fee:	0008                	.insn	2, 0x0008
    4ff0:	0000                	.insn	2, 0x
    4ff2:	0000                	.insn	2, 0x
    4ff4:	0108                	.insn	2, 0x0108
    4ff6:	0101                	.insn	2, 0x0101
    4ff8:	0101                	.insn	2, 0x0101
    4ffa:	0101                	.insn	2, 0x0101
    4ffc:	0101                	.insn	2, 0x0101
    4ffe:	0101                	.insn	2, 0x0101
    5000:	0008                	.insn	2, 0x0008
    5002:	0000                	.insn	2, 0x
    5004:	0000                	.insn	2, 0x
    5006:	0000                	.insn	2, 0x
    5008:	0108                	.insn	2, 0x0108
    500a:	0101                	.insn	2, 0x0101
    500c:	0101                	.insn	2, 0x0101
    500e:	0101                	.insn	2, 0x0101
    5010:	0101                	.insn	2, 0x0101
    5012:	030a                	.insn	2, 0x030a
    5014:	0000                	.insn	2, 0x
    5016:	0b05                	.insn	2, 0x0b05
    5018:	0204                	.insn	2, 0x0204
    501a:	0201                	.insn	2, 0x0201
    501c:	0604                	.insn	2, 0x0604
    501e:	00000003          	lb	zero,0(zero) # 0 <_isr_handler>
    5022:	0000                	.insn	2, 0x
    5024:	0000                	.insn	2, 0x
    5026:	0000                	.insn	2, 0x
    5028:	020a0603          	lb	a2,32(s4)
    502c:	0201                	.insn	2, 0x0201
    502e:	0b04                	.insn	2, 0x0b04
    5030:	0009                	.insn	2, 0x0009
	...
    503a:	0709                	.insn	2, 0x0709
    503c:	0102                	.insn	2, 0x0102
    503e:	0401                	.insn	2, 0x0401
    5040:	0000030b          	.insn	4, 0x030b
    5044:	0000                	.insn	2, 0x
    5046:	0000                	.insn	2, 0x
    5048:	0705                	.insn	2, 0x0705
    504a:	07070707          	.insn	4, 0x07070707
    504e:	07070707          	.insn	4, 0x07070707
    5052:	00050707          	.insn	4, 0x00050707
    5056:	0000                	.insn	2, 0x
    5058:	0000                	.insn	2, 0x
    505a:	0000                	.insn	2, 0x
    505c:	0300                	.insn	2, 0x0300
    505e:	0406                	.insn	2, 0x0406
    5060:	0102                	.insn	2, 0x0102
    5062:	0a02                	.insn	2, 0x0a02
    5064:	0c06                	.insn	2, 0x0c06
	...

00005068 <highscore_menu_player_image>:
	...
    507c:	0104                	.insn	2, 0x0104
    507e:	0101                	.insn	2, 0x0101
    5080:	0401                	.insn	2, 0x0401
	...
    50e2:	0000                	.insn	2, 0x
    50e4:	0104                	.insn	2, 0x0104
    50e6:	0101                	.insn	2, 0x0101
    50e8:	0401                	.insn	2, 0x0401
	...
    514e:	0200                	.insn	2, 0x0200
    5150:	0401                	.insn	2, 0x0401
	...
    51b6:	0200                	.insn	2, 0x0200
    51b8:	0401                	.insn	2, 0x0401
	...
    521e:	0200                	.insn	2, 0x0200
    5220:	0401                	.insn	2, 0x0401
	...
    5276:	0500                	.insn	2, 0x0500
    5278:	0c09                	.insn	2, 0x0c09
    527a:	0509                	.insn	2, 0x0509
	...
    5284:	0000                	.insn	2, 0x
    5286:	0200                	.insn	2, 0x0200
    5288:	0401                	.insn	2, 0x0401
	...
    529a:	00070907          	.insn	4, 0x00070907
	...
    52ba:	0000                	.insn	2, 0x
    52bc:	0700                	.insn	2, 0x0700
    52be:	0c0c                	.insn	2, 0x0c0c
    52c0:	0509                	.insn	2, 0x0509
	...
    52d2:	0700                	.insn	2, 0x0700
    52d4:	0909                	.insn	2, 0x0909
    52d6:	0000                	.insn	2, 0x
    52d8:	0101                	.insn	2, 0x0101
    52da:	0101                	.insn	2, 0x0101
    52dc:	0500                	.insn	2, 0x0500
    52de:	0108                	.insn	2, 0x0108
    52e0:	0101                	.insn	2, 0x0101
    52e2:	0101                	.insn	2, 0x0101
    52e4:	0708                	.insn	2, 0x0708
	...
    52ee:	0200                	.insn	2, 0x0200
    52f0:	0401                	.insn	2, 0x0401
	...
    52fe:	01020b07          	.insn	4, 0x01020b07
    5302:	0101                	.insn	2, 0x0101
    5304:	0101                	.insn	2, 0x0101
    5306:	000a                	.insn	2, 0x000a
    5308:	0000                	.insn	2, 0x
    530a:	0000                	.insn	2, 0x
    530c:	0500                	.insn	2, 0x0500
    530e:	0101                	.insn	2, 0x0101
    5310:	0000000b          	.insn	4, 0x000b
    5314:	0000                	.insn	2, 0x
    5316:	0000                	.insn	2, 0x
    5318:	0000                	.insn	2, 0x
    531a:	0102                	.insn	2, 0x0102
    531c:	0006                	.insn	2, 0x0006
    531e:	0000                	.insn	2, 0x
    5320:	0000                	.insn	2, 0x
    5322:	0600                	.insn	2, 0x0600
    5324:	0102                	.insn	2, 0x0102
    5326:	0101                	.insn	2, 0x0101
    5328:	0101                	.insn	2, 0x0101
    532a:	0508                	.insn	2, 0x0508
    532c:	0000                	.insn	2, 0x
    532e:	0000                	.insn	2, 0x
    5330:	0400                	.insn	2, 0x0400
    5332:	0101                	.insn	2, 0x0101
    5334:	0101                	.insn	2, 0x0101
    5336:	0701                	.insn	2, 0x0701
    5338:	0400                	.insn	2, 0x0400
    533a:	0102                	.insn	2, 0x0102
    533c:	0101                	.insn	2, 0x0101
    533e:	02020003          	lb	zero,32(tp) # 20 <_isr_routine+0x18>
    5342:	0101                	.insn	2, 0x0101
    5344:	020c                	.insn	2, 0x020c
    5346:	0101                	.insn	2, 0x0101
    5348:	01010303          	lb	t1,16(sp)
    534c:	0101                	.insn	2, 0x0101
    534e:	00000007          	.insn	4, 0x0007
    5352:	0000                	.insn	2, 0x
    5354:	0000                	.insn	2, 0x
    5356:	0200                	.insn	2, 0x0200
    5358:	0401                	.insn	2, 0x0401
	...
    5366:	0102                	.insn	2, 0x0102
    5368:	0201                	.insn	2, 0x0201
    536a:	0808                	.insn	2, 0x0808
    536c:	0102                	.insn	2, 0x0102
    536e:	0801                	.insn	2, 0x0801
    5370:	0000                	.insn	2, 0x
    5372:	0000                	.insn	2, 0x
    5374:	0000                	.insn	2, 0x
    5376:	010a                	.insn	2, 0x010a
    5378:	0002                	.insn	2, 0x0002
    537a:	0000                	.insn	2, 0x
    537c:	0000                	.insn	2, 0x
    537e:	0000                	.insn	2, 0x
    5380:	0700                	.insn	2, 0x0700
    5382:	0101                	.insn	2, 0x0101
    5384:	00000007          	.insn	4, 0x0007
    5388:	0500                	.insn	2, 0x0500
    538a:	03010103          	lb	sp,48(sp)
    538e:	0b0a                	.insn	2, 0x0b0a
    5390:	0108                	.insn	2, 0x0108
    5392:	0201                	.insn	2, 0x0201
    5394:	0005                	.insn	2, 0x0005
    5396:	0000                	.insn	2, 0x
    5398:	0c00                	.insn	2, 0x0c00
    539a:	0202                	.insn	2, 0x0202
    539c:	0102                	.insn	2, 0x0102
    539e:	0601                	.insn	2, 0x0601
    53a0:	0108                	.insn	2, 0x0108
    53a2:	0301                	.insn	2, 0x0301
    53a4:	06010103          	lb	sp,96(sp)
    53a8:	0000                	.insn	2, 0x
    53aa:	0101                	.insn	2, 0x0101
    53ac:	0101                	.insn	2, 0x0101
    53ae:	0000050b          	.insn	4, 0x050b
    53b2:	0600                	.insn	2, 0x0600
    53b4:	0101                	.insn	2, 0x0101
    53b6:	00000003          	lb	zero,0(zero) # 0 <_isr_handler>
    53ba:	0000                	.insn	2, 0x
    53bc:	0000                	.insn	2, 0x
    53be:	0200                	.insn	2, 0x0200
    53c0:	0401                	.insn	2, 0x0401
	...
    53ce:	0606                	.insn	2, 0x0606
    53d0:	00000007          	.insn	4, 0x0007
    53d4:	0c00                	.insn	2, 0x0c00
    53d6:	0101                	.insn	2, 0x0101
    53d8:	0009                	.insn	2, 0x0009
    53da:	0000                	.insn	2, 0x
    53dc:	0000                	.insn	2, 0x
    53de:	0109                	.insn	2, 0x0109
    53e0:	0c01                	.insn	2, 0x0c01
    53e2:	0000                	.insn	2, 0x
    53e4:	0000                	.insn	2, 0x
    53e6:	0000                	.insn	2, 0x
    53e8:	0600                	.insn	2, 0x0600
    53ea:	0201                	.insn	2, 0x0201
    53ec:	0000                	.insn	2, 0x
    53ee:	0000                	.insn	2, 0x
    53f0:	0300                	.insn	2, 0x0300
    53f2:	0301                	.insn	2, 0x0301
    53f4:	00000007          	.insn	4, 0x0007
    53f8:	0700                	.insn	2, 0x0700
    53fa:	0102                	.insn	2, 0x0102
    53fc:	0008                	.insn	2, 0x0008
    53fe:	0000                	.insn	2, 0x
    5400:	0000                	.insn	2, 0x
    5402:	0000                	.insn	2, 0x
    5404:	0400                	.insn	2, 0x0400
    5406:	0101                	.insn	2, 0x0101
    5408:	0b01                	.insn	2, 0x0b01
    540a:	0005                	.insn	2, 0x0005
    540c:	0b00                	.insn	2, 0x0b00
    540e:	0301                	.insn	2, 0x0301
    5410:	0000                	.insn	2, 0x
    5412:	0102                	.insn	2, 0x0102
    5414:	0601                	.insn	2, 0x0601
    5416:	0000                	.insn	2, 0x
    5418:	0000                	.insn	2, 0x
    541a:	0000                	.insn	2, 0x
    541c:	0701010b          	.insn	4, 0x0701010b
    5420:	0000                	.insn	2, 0x
    5422:	0000                	.insn	2, 0x
    5424:	0000                	.insn	2, 0x
    5426:	0200                	.insn	2, 0x0200
    5428:	0401                	.insn	2, 0x0401
	...
    543e:	0108                	.insn	2, 0x0108
    5440:	0006                	.insn	2, 0x0006
    5442:	0000                	.insn	2, 0x
    5444:	0000                	.insn	2, 0x
    5446:	0300                	.insn	2, 0x0300
    5448:	0801                	.insn	2, 0x0801
    544a:	0000                	.insn	2, 0x
    544c:	0000                	.insn	2, 0x
    544e:	0000                	.insn	2, 0x
    5450:	0800                	.insn	2, 0x0800
    5452:	0b01                	.insn	2, 0x0b01
    5454:	0000                	.insn	2, 0x
    5456:	0000                	.insn	2, 0x
    5458:	010c                	.insn	2, 0x010c
    545a:	0501                	.insn	2, 0x0501
    545c:	0000                	.insn	2, 0x
    545e:	0000                	.insn	2, 0x
    5460:	0000                	.insn	2, 0x
    5462:	07010107          	.insn	4, 0x07010107
    5466:	0000                	.insn	2, 0x
    5468:	0000                	.insn	2, 0x
    546a:	0000                	.insn	2, 0x
    546c:	0400                	.insn	2, 0x0400
    546e:	0101                	.insn	2, 0x0101
    5470:	000c                	.insn	2, 0x000c
    5472:	0000                	.insn	2, 0x
    5474:	0700                	.insn	2, 0x0700
    5476:	0201                	.insn	2, 0x0201
    5478:	0000                	.insn	2, 0x
    547a:	00030103          	lb	sp,0(t1)
    547e:	0000                	.insn	2, 0x
    5480:	0000                	.insn	2, 0x
    5482:	0000                	.insn	2, 0x
    5484:	0105                	.insn	2, 0x0105
    5486:	0401                	.insn	2, 0x0401
    5488:	0000                	.insn	2, 0x
    548a:	0000                	.insn	2, 0x
    548c:	0000                	.insn	2, 0x
    548e:	0200                	.insn	2, 0x0200
    5490:	0401                	.insn	2, 0x0401
	...
    54a6:	000a010b          	.insn	4, 0x000a010b
    54aa:	0000                	.insn	2, 0x
    54ac:	0000                	.insn	2, 0x
    54ae:	0400                	.insn	2, 0x0400
    54b0:	0101                	.insn	2, 0x0101
    54b2:	00000007          	.insn	4, 0x0007
    54b6:	0000                	.insn	2, 0x
    54b8:	0100                	.insn	2, 0x0100
    54ba:	0901                	.insn	2, 0x0901
    54bc:	0000                	.insn	2, 0x
    54be:	0000                	.insn	2, 0x
    54c0:	0108                	.insn	2, 0x0108
    54c2:	0000000b          	.insn	4, 0x000b
    54c6:	0000                	.insn	2, 0x
    54c8:	0000                	.insn	2, 0x
    54ca:	0800                	.insn	2, 0x0800
    54cc:	0401                	.insn	2, 0x0401
    54ce:	0000                	.insn	2, 0x
    54d0:	0000                	.insn	2, 0x
    54d2:	0000                	.insn	2, 0x
    54d4:	0400                	.insn	2, 0x0400
    54d6:	0301                	.insn	2, 0x0301
    54d8:	0000                	.insn	2, 0x
    54da:	0000                	.insn	2, 0x
    54dc:	0500                	.insn	2, 0x0500
    54de:	0101                	.insn	2, 0x0101
    54e0:	0000                	.insn	2, 0x
    54e2:	00060103          	lb	sp,0(a2) # 80000000 <_stack_end+0x7fef2790>
    54e6:	0000                	.insn	2, 0x
    54e8:	0000                	.insn	2, 0x
    54ea:	0000                	.insn	2, 0x
    54ec:	0100                	.insn	2, 0x0100
    54ee:	0b01                	.insn	2, 0x0b01
    54f0:	0000                	.insn	2, 0x
    54f2:	0000                	.insn	2, 0x
    54f4:	0000                	.insn	2, 0x
    54f6:	0200                	.insn	2, 0x0200
    54f8:	0401                	.insn	2, 0x0401
	...
    550e:	0008010b          	.insn	4, 0x0008010b
    5512:	0000                	.insn	2, 0x
    5514:	0000                	.insn	2, 0x
    5516:	0000                	.insn	2, 0x
    5518:	0101                	.insn	2, 0x0101
    551a:	0000000b          	.insn	4, 0x000b
    551e:	0000                	.insn	2, 0x
    5520:	010c                	.insn	2, 0x010c
    5522:	0002                	.insn	2, 0x0002
    5524:	0000                	.insn	2, 0x
    5526:	0000                	.insn	2, 0x
    5528:	0101                	.insn	2, 0x0101
    552a:	0909090b          	.insn	4, 0x0909090b
    552e:	0909                	.insn	2, 0x0909
    5530:	0909                	.insn	2, 0x0909
    5532:	0a09                	.insn	2, 0x0a09
    5534:	0b01                	.insn	2, 0x0b01
    5536:	0000                	.insn	2, 0x
    5538:	0000                	.insn	2, 0x
    553a:	0000                	.insn	2, 0x
    553c:	0400                	.insn	2, 0x0400
    553e:	0301                	.insn	2, 0x0301
    5540:	0000                	.insn	2, 0x
    5542:	0000                	.insn	2, 0x
    5544:	0000                	.insn	2, 0x
    5546:	0404                	.insn	2, 0x0404
    5548:	0000                	.insn	2, 0x
    554a:	00060103          	lb	sp,0(a2)
    554e:	0000                	.insn	2, 0x
    5550:	0000                	.insn	2, 0x
    5552:	0000                	.insn	2, 0x
    5554:	0300                	.insn	2, 0x0300
    5556:	0a01                	.insn	2, 0x0a01
    5558:	0000                	.insn	2, 0x
    555a:	0000                	.insn	2, 0x
    555c:	0000                	.insn	2, 0x
    555e:	0200                	.insn	2, 0x0200
    5560:	0401                	.insn	2, 0x0401
	...
    556e:	0700                	.insn	2, 0x0700
    5570:	0a06                	.insn	2, 0x0a06
    5572:	0a080303          	lb	t1,160(a6)
    5576:	000a0103          	lb	sp,0(s4)
    557a:	0000                	.insn	2, 0x
    557c:	0000                	.insn	2, 0x
    557e:	0000                	.insn	2, 0x
    5580:	0001010b          	.insn	4, 0x0001010b
    5584:	0000                	.insn	2, 0x
    5586:	0000                	.insn	2, 0x
    5588:	010a                	.insn	2, 0x010a
    558a:	000a                	.insn	2, 0x000a
    558c:	0000                	.insn	2, 0x
    558e:	0500                	.insn	2, 0x0500
    5590:	0101                	.insn	2, 0x0101
    5592:	0101                	.insn	2, 0x0101
    5594:	0101                	.insn	2, 0x0101
    5596:	0101                	.insn	2, 0x0101
    5598:	0101                	.insn	2, 0x0101
    559a:	0101                	.insn	2, 0x0101
    559c:	0a01                	.insn	2, 0x0a01
    559e:	0000                	.insn	2, 0x
    55a0:	0000                	.insn	2, 0x
    55a2:	0000                	.insn	2, 0x
    55a4:	0400                	.insn	2, 0x0400
    55a6:	0301                	.insn	2, 0x0301
	...
    55b0:	0000                	.insn	2, 0x
    55b2:	00060103          	lb	sp,0(a2)
    55b6:	0000                	.insn	2, 0x
    55b8:	0000                	.insn	2, 0x
    55ba:	0000                	.insn	2, 0x
    55bc:	0300                	.insn	2, 0x0300
    55be:	0a01                	.insn	2, 0x0a01
    55c0:	0000                	.insn	2, 0x
    55c2:	0000                	.insn	2, 0x
    55c4:	0000                	.insn	2, 0x
    55c6:	0200                	.insn	2, 0x0200
    55c8:	0401                	.insn	2, 0x0401
	...
    55d6:	0101010b          	.insn	4, 0x0101010b
    55da:	0101                	.insn	2, 0x0101
    55dc:	0101                	.insn	2, 0x0101
    55de:	0101                	.insn	2, 0x0101
    55e0:	000a                	.insn	2, 0x000a
    55e2:	0000                	.insn	2, 0x
    55e4:	0000                	.insn	2, 0x
    55e6:	0000                	.insn	2, 0x
    55e8:	04010107          	.insn	4, 0x04010107
    55ec:	0000                	.insn	2, 0x
    55ee:	0000                	.insn	2, 0x
    55f0:	0102                	.insn	2, 0x0102
    55f2:	000c                	.insn	2, 0x000c
    55f4:	0000                	.insn	2, 0x
    55f6:	0500                	.insn	2, 0x0500
    55f8:	0101                	.insn	2, 0x0101
    55fa:	03030303          	lb	t1,48(t1)
    55fe:	03030303          	lb	t1,48(t1)
    5602:	06030303          	lb	t1,96(t1)
    5606:	0000                	.insn	2, 0x
    5608:	0000                	.insn	2, 0x
    560a:	0000                	.insn	2, 0x
    560c:	0400                	.insn	2, 0x0400
    560e:	0301                	.insn	2, 0x0301
	...
    5618:	0000                	.insn	2, 0x
    561a:	00060103          	lb	sp,0(a2)
    561e:	0000                	.insn	2, 0x
    5620:	0000                	.insn	2, 0x
    5622:	0000                	.insn	2, 0x
    5624:	0200                	.insn	2, 0x0200
    5626:	0b01                	.insn	2, 0x0b01
    5628:	0000                	.insn	2, 0x
    562a:	0000                	.insn	2, 0x
    562c:	0000                	.insn	2, 0x
    562e:	0200                	.insn	2, 0x0200
    5630:	0401                	.insn	2, 0x0401
	...
    563a:	0000                	.insn	2, 0x
    563c:	0600                	.insn	2, 0x0600
    563e:	0101                	.insn	2, 0x0101
    5640:	090a                	.insn	2, 0x090a
    5642:	0000                	.insn	2, 0x
    5644:	0705                	.insn	2, 0x0705
    5646:	0108                	.insn	2, 0x0108
    5648:	000a                	.insn	2, 0x000a
    564a:	0000                	.insn	2, 0x
    564c:	0000                	.insn	2, 0x
    564e:	0000                	.insn	2, 0x
    5650:	0800                	.insn	2, 0x0800
    5652:	0301                	.insn	2, 0x0301
    5654:	0000                	.insn	2, 0x
    5656:	0700                	.insn	2, 0x0700
    5658:	0101                	.insn	2, 0x0101
    565a:	0000                	.insn	2, 0x
    565c:	0000                	.insn	2, 0x
    565e:	0500                	.insn	2, 0x0500
    5660:	0101                	.insn	2, 0x0101
    5662:	0009                	.insn	2, 0x0009
	...
    5674:	0400                	.insn	2, 0x0400
    5676:	0301                	.insn	2, 0x0301
	...
    5680:	0000                	.insn	2, 0x
    5682:	00060103          	lb	sp,0(a2)
    5686:	0000                	.insn	2, 0x
    5688:	0000                	.insn	2, 0x
    568a:	0000                	.insn	2, 0x
    568c:	0100                	.insn	2, 0x0100
    568e:	0c01                	.insn	2, 0x0c01
    5690:	0000                	.insn	2, 0x
    5692:	0000                	.insn	2, 0x
    5694:	0000                	.insn	2, 0x
    5696:	0200                	.insn	2, 0x0200
    5698:	0401                	.insn	2, 0x0401
	...
    56a2:	0000                	.insn	2, 0x
    56a4:	0200                	.insn	2, 0x0200
    56a6:	0a01                	.insn	2, 0x0a01
    56a8:	0000                	.insn	2, 0x
    56aa:	0000                	.insn	2, 0x
    56ac:	0000                	.insn	2, 0x
    56ae:	010a                	.insn	2, 0x010a
    56b0:	0000000b          	.insn	4, 0x000b
    56b4:	0000                	.insn	2, 0x
    56b6:	0000                	.insn	2, 0x
    56b8:	0c00                	.insn	2, 0x0c00
    56ba:	0101                	.insn	2, 0x0101
    56bc:	06000007          	.insn	4, 0x06000007
    56c0:	0801                	.insn	2, 0x0801
    56c2:	0000                	.insn	2, 0x
    56c4:	0000                	.insn	2, 0x
    56c6:	0000                	.insn	2, 0x
    56c8:	0101                	.insn	2, 0x0101
    56ca:	0004                	.insn	2, 0x0004
	...
    56dc:	0400                	.insn	2, 0x0400
    56de:	0301                	.insn	2, 0x0301
	...
    56e8:	0000                	.insn	2, 0x
    56ea:	00060103          	lb	sp,0(a2)
    56ee:	0000                	.insn	2, 0x
    56f0:	0000                	.insn	2, 0x
    56f2:	0000                	.insn	2, 0x
    56f4:	0104                	.insn	2, 0x0104
    56f6:	0501                	.insn	2, 0x0501
    56f8:	0000                	.insn	2, 0x
    56fa:	0000                	.insn	2, 0x
    56fc:	0000                	.insn	2, 0x
    56fe:	0300                	.insn	2, 0x0300
    5700:	0601                	.insn	2, 0x0601
	...
    570a:	0000                	.insn	2, 0x
    570c:	0100                	.insn	2, 0x0100
    570e:	0c01                	.insn	2, 0x0c01
    5710:	0000                	.insn	2, 0x
    5712:	0000                	.insn	2, 0x
    5714:	0000                	.insn	2, 0x
    5716:	0108                	.insn	2, 0x0108
    5718:	0000000b          	.insn	4, 0x000b
    571c:	0000                	.insn	2, 0x
    571e:	0000                	.insn	2, 0x
    5720:	0000                	.insn	2, 0x
    5722:	0102                	.insn	2, 0x0102
    5724:	000a                	.insn	2, 0x000a
    5726:	0300                	.insn	2, 0x0300
    5728:	0401                	.insn	2, 0x0401
    572a:	0000                	.insn	2, 0x
    572c:	0000                	.insn	2, 0x
    572e:	0000                	.insn	2, 0x
    5730:	0108                	.insn	2, 0x0108
    5732:	0008                	.insn	2, 0x0008
	...
    5744:	0400                	.insn	2, 0x0400
    5746:	0301                	.insn	2, 0x0301
	...
    5750:	0000                	.insn	2, 0x
    5752:	00060103          	lb	sp,0(a2)
    5756:	0000                	.insn	2, 0x
    5758:	0000                	.insn	2, 0x
    575a:	0500                	.insn	2, 0x0500
    575c:	0102                	.insn	2, 0x0102
    575e:	000a                	.insn	2, 0x000a
    5760:	0000                	.insn	2, 0x
    5762:	0000                	.insn	2, 0x
    5764:	0000                	.insn	2, 0x
    5766:	0800                	.insn	2, 0x0800
    5768:	0a01                	.insn	2, 0x0a01
	...
    5772:	0000                	.insn	2, 0x
    5774:	0100                	.insn	2, 0x0100
    5776:	0601                	.insn	2, 0x0601
    5778:	0000                	.insn	2, 0x
    577a:	0000                	.insn	2, 0x
    577c:	0c00                	.insn	2, 0x0c00
    577e:	0101                	.insn	2, 0x0101
    5780:	000a                	.insn	2, 0x000a
	...
    578a:	0106                	.insn	2, 0x0106
    578c:	0001                	.insn	2, 0x0001
    578e:	0105                	.insn	2, 0x0105
    5790:	0501                	.insn	2, 0x0501
    5792:	0000                	.insn	2, 0x
    5794:	0000                	.insn	2, 0x
    5796:	0000                	.insn	2, 0x
    5798:	010c                	.insn	2, 0x010c
    579a:	0401                	.insn	2, 0x0401
	...
    57a4:	0004                	.insn	2, 0x0004
    57a6:	0000                	.insn	2, 0x
    57a8:	0000                	.insn	2, 0x
    57aa:	0000                	.insn	2, 0x
    57ac:	0400                	.insn	2, 0x0400
    57ae:	0301                	.insn	2, 0x0301
	...
    57b8:	0000                	.insn	2, 0x
    57ba:	07080103          	lb	sp,112(a6)
    57be:	0000                	.insn	2, 0x
    57c0:	0000                	.insn	2, 0x
    57c2:	020c                	.insn	2, 0x020c
    57c4:	0201                	.insn	2, 0x0201
    57c6:	0005                	.insn	2, 0x0005
    57c8:	0000                	.insn	2, 0x
    57ca:	0000                	.insn	2, 0x
    57cc:	0000                	.insn	2, 0x
    57ce:	0600                	.insn	2, 0x0600
    57d0:	0101                	.insn	2, 0x0101
    57d2:	07000007          	.insn	4, 0x07000007
    57d6:	00000403          	lb	s0,0(zero) # 0 <_isr_handler>
    57da:	0000                	.insn	2, 0x
    57dc:	0300                	.insn	2, 0x0300
    57de:	0201                	.insn	2, 0x0201
    57e0:	0009                	.insn	2, 0x0009
    57e2:	0500                	.insn	2, 0x0500
    57e4:	0102010b          	.insn	4, 0x0102010b
    57e8:	0008                	.insn	2, 0x0008
	...
    57f2:	0105                	.insn	2, 0x0105
    57f4:	0b01                	.insn	2, 0x0b01
    57f6:	0003010b          	.insn	4, 0x0003010b
    57fa:	0000                	.insn	2, 0x
    57fc:	0000                	.insn	2, 0x
    57fe:	0000                	.insn	2, 0x
    5800:	0800                	.insn	2, 0x0800
    5802:	0101                	.insn	2, 0x0101
    5804:	0000050b          	.insn	4, 0x050b
    5808:	0700                	.insn	2, 0x0700
    580a:	0206                	.insn	2, 0x0206
    580c:	0901                	.insn	2, 0x0901
    580e:	0000                	.insn	2, 0x
    5810:	0000                	.insn	2, 0x
    5812:	0505                	.insn	2, 0x0505
    5814:	0605                	.insn	2, 0x0605
    5816:	0301                	.insn	2, 0x0301
    5818:	0505                	.insn	2, 0x0505
    581a:	0505                	.insn	2, 0x0505
    581c:	0005                	.insn	2, 0x0005
    581e:	0000                	.insn	2, 0x
    5820:	0000                	.insn	2, 0x
    5822:	01010103          	lb	sp,16(sp)
    5826:	0302                	.insn	2, 0x0302
    5828:	01010103          	lb	sp,16(sp)
    582c:	0702                	.insn	2, 0x0702
	...
    5836:	0500                	.insn	2, 0x0500
    5838:	0101                	.insn	2, 0x0101
    583a:	0201                	.insn	2, 0x0201
    583c:	0102                	.insn	2, 0x0102
    583e:	0301                	.insn	2, 0x0301
    5840:	0000                	.insn	2, 0x
    5842:	0000                	.insn	2, 0x
    5844:	0900                	.insn	2, 0x0900
    5846:	0101                	.insn	2, 0x0101
    5848:	0101                	.insn	2, 0x0101
    584a:	0102                	.insn	2, 0x0102
    584c:	0a01                	.insn	2, 0x0a01
    584e:	010c                	.insn	2, 0x010c
    5850:	0101                	.insn	2, 0x0101
    5852:	0008                	.insn	2, 0x0008
    5854:	0000                	.insn	2, 0x
    5856:	0000                	.insn	2, 0x
    5858:	0000                	.insn	2, 0x
    585a:	0a00                	.insn	2, 0x0a00
    585c:	0101                	.insn	2, 0x0101
    585e:	0101                	.insn	2, 0x0101
    5860:	0006                	.insn	2, 0x0006
    5862:	0000                	.insn	2, 0x
    5864:	0000                	.insn	2, 0x
    5866:	0000                	.insn	2, 0x
    5868:	0500                	.insn	2, 0x0500
    586a:	01010103          	lb	sp,16(sp)
    586e:	0202                	.insn	2, 0x0202
    5870:	0101                	.insn	2, 0x0101
    5872:	0101                	.insn	2, 0x0101
    5874:	0508                	.insn	2, 0x0508
    5876:	0000                	.insn	2, 0x
    5878:	0400                	.insn	2, 0x0400
    587a:	0101                	.insn	2, 0x0101
    587c:	0101                	.insn	2, 0x0101
    587e:	0101                	.insn	2, 0x0101
    5880:	0101                	.insn	2, 0x0101
    5882:	0101                	.insn	2, 0x0101
    5884:	0601                	.insn	2, 0x0601
    5886:	0000                	.insn	2, 0x
    5888:	0000                	.insn	2, 0x
    588a:	02030103          	lb	sp,32(t1)
    588e:	0101                	.insn	2, 0x0101
    5890:	0101                	.insn	2, 0x0101
    5892:	0602                	.insn	2, 0x0602
	...
    58a0:	0209                	.insn	2, 0x0209
    58a2:	0101                	.insn	2, 0x0101
    58a4:	0201                	.insn	2, 0x0201
    58a6:	0006                	.insn	2, 0x0006
    58a8:	0000                	.insn	2, 0x
    58aa:	0000                	.insn	2, 0x
    58ac:	0000                	.insn	2, 0x
    58ae:	0309                	.insn	2, 0x0309
    58b0:	0101                	.insn	2, 0x0101
    58b2:	0301                	.insn	2, 0x0301
    58b4:	000c                	.insn	2, 0x000c
    58b6:	02020207          	.insn	4, 0x02020207
    58ba:	0000000b          	.insn	4, 0x000b
    58be:	0000                	.insn	2, 0x
    58c0:	0000                	.insn	2, 0x
    58c2:	0900                	.insn	2, 0x0900
    58c4:	0202                	.insn	2, 0x0202
    58c6:	0101                	.insn	2, 0x0101
    58c8:	00000007          	.insn	4, 0x0007
    58cc:	0000                	.insn	2, 0x
    58ce:	0000                	.insn	2, 0x
    58d0:	0000                	.insn	2, 0x
    58d2:	0400                	.insn	2, 0x0400
    58d4:	01010103          	lb	sp,16(sp)
    58d8:	0201                	.insn	2, 0x0201
    58da:	090a                	.insn	2, 0x090a
    58dc:	0000                	.insn	2, 0x
    58de:	0000                	.insn	2, 0x
    58e0:	0c00                	.insn	2, 0x0c00
    58e2:	0202                	.insn	2, 0x0202
    58e4:	0202                	.insn	2, 0x0202
    58e6:	0202                	.insn	2, 0x0202
    58e8:	0202                	.insn	2, 0x0202
    58ea:	0202                	.insn	2, 0x0202
    58ec:	0402                	.insn	2, 0x0402
    58ee:	0000                	.insn	2, 0x
    58f0:	0000                	.insn	2, 0x
    58f2:	00060103          	lb	sp,0(a2)
    58f6:	0705                	.insn	2, 0x0705
    58f8:	00000507          	.insn	4, 0x0507
	...
    5908:	0000                	.insn	2, 0x
    590a:	0905                	.insn	2, 0x0905
    590c:	00000007          	.insn	4, 0x0007
	...
    5918:	0500                	.insn	2, 0x0500
	...
    592a:	0000                	.insn	2, 0x
    592c:	0c00                	.insn	2, 0x0c00
    592e:	0201                	.insn	2, 0x0201
	...
    593c:	0500                	.insn	2, 0x0500
    593e:	00050707          	.insn	4, 0x00050707
	...
    595a:	00060103          	lb	sp,0(a2)
	...
    5992:	0000                	.insn	2, 0x
    5994:	0a00                	.insn	2, 0x0a00
    5996:	0a01                	.insn	2, 0x0a01
	...
    59c0:	0000                	.insn	2, 0x
    59c2:	00060103          	lb	sp,0(a2)
	...
    59fa:	0000                	.insn	2, 0x
    59fc:	09010107          	.insn	4, 0x09010107
	...
    5a28:	0000                	.insn	2, 0x
    5a2a:	00060103          	lb	sp,0(a2)
	...
    5a5e:	0000                	.insn	2, 0x
    5a60:	060c0b03          	lb	s6,96(s8)
    5a64:	0101                	.insn	2, 0x0101
    5a66:	0008                	.insn	2, 0x0008
	...
    5a90:	0000                	.insn	2, 0x
    5a92:	00060103          	lb	sp,0(a2)
	...
    5ac6:	0900                	.insn	2, 0x0900
    5ac8:	0101                	.insn	2, 0x0101
    5aca:	0101                	.insn	2, 0x0101
    5acc:	0201                	.insn	2, 0x0201
    5ace:	0005                	.insn	2, 0x0005
	...
    5af8:	0000                	.insn	2, 0x
    5afa:	020a                	.insn	2, 0x020a
    5afc:	0004                	.insn	2, 0x0004
	...
    5b2e:	0500                	.insn	2, 0x0500
    5b30:	0306                	.insn	2, 0x0306
    5b32:	0201                	.insn	2, 0x0201
    5b34:	0000050b          	.insn	4, 0x050b
	...

00005b60 <letter_images>:
    5b60:	0000                	.insn	2, 0x
    5b62:	0000                	.insn	2, 0x
    5b64:	0600                	.insn	2, 0x0600
    5b66:	00020107          	.insn	4, 0x00020107
    5b6a:	0000                	.insn	2, 0x
    5b6c:	0000                	.insn	2, 0x
    5b6e:	0000                	.insn	2, 0x
    5b70:	0400                	.insn	2, 0x0400
    5b72:	0101                	.insn	2, 0x0101
    5b74:	0201                	.insn	2, 0x0201
    5b76:	0000                	.insn	2, 0x
    5b78:	0000                	.insn	2, 0x
    5b7a:	0000                	.insn	2, 0x
    5b7c:	01010503          	lb	a0,16(sp)
    5b80:	0101                	.insn	2, 0x0101
    5b82:	0002                	.insn	2, 0x0002
    5b84:	0000                	.insn	2, 0x
    5b86:	0000                	.insn	2, 0x
    5b88:	0102                	.insn	2, 0x0102
    5b8a:	0101                	.insn	2, 0x0101
    5b8c:	0104                	.insn	2, 0x0104
    5b8e:	0201                	.insn	2, 0x0201
    5b90:	0000                	.insn	2, 0x
    5b92:	0000                	.insn	2, 0x
    5b94:	0109                	.insn	2, 0x0109
    5b96:	0701                	.insn	2, 0x0701
    5b98:	01010003          	lb	zero,16(sp)
    5b9c:	0002                	.insn	2, 0x0002
    5b9e:	0000                	.insn	2, 0x
    5ba0:	0400                	.insn	2, 0x0400
    5ba2:	0801                	.insn	2, 0x0801
    5ba4:	0000                	.insn	2, 0x
    5ba6:	0100                	.insn	2, 0x0100
    5ba8:	0201                	.insn	2, 0x0201
	...
    5bb2:	0000                	.insn	2, 0x
    5bb4:	0101                	.insn	2, 0x0101
    5bb6:	0002                	.insn	2, 0x0002
	...
    5bc0:	0100                	.insn	2, 0x0100
    5bc2:	0201                	.insn	2, 0x0201
	...
    5bcc:	0000                	.insn	2, 0x
    5bce:	0101                	.insn	2, 0x0101
    5bd0:	0002                	.insn	2, 0x0002
	...
    5bda:	0100                	.insn	2, 0x0100
    5bdc:	0201                	.insn	2, 0x0201
	...
    5be6:	0000                	.insn	2, 0x
    5be8:	0101                	.insn	2, 0x0101
    5bea:	0002                	.insn	2, 0x0002
	...
    5bf4:	0100                	.insn	2, 0x0100
    5bf6:	0201                	.insn	2, 0x0201
	...
    5c00:	0000                	.insn	2, 0x
    5c02:	0101                	.insn	2, 0x0101
    5c04:	0002                	.insn	2, 0x0002
	...
    5c0e:	0100                	.insn	2, 0x0100
    5c10:	0201                	.insn	2, 0x0201
	...
    5c1a:	0000                	.insn	2, 0x
    5c1c:	0101                	.insn	2, 0x0101
    5c1e:	0002                	.insn	2, 0x0002
	...
    5c28:	0100                	.insn	2, 0x0100
    5c2a:	0201                	.insn	2, 0x0201
	...
    5c34:	0000                	.insn	2, 0x
    5c36:	0101                	.insn	2, 0x0101
    5c38:	0002                	.insn	2, 0x0002
	...
    5c42:	0100                	.insn	2, 0x0100
    5c44:	0201                	.insn	2, 0x0201
    5c46:	0000                	.insn	2, 0x
    5c48:	0000                	.insn	2, 0x
    5c4a:	0300                	.insn	2, 0x0300
    5c4c:	03030303          	lb	t1,48(t1)
    5c50:	0101                	.insn	2, 0x0101
    5c52:	0304                	.insn	2, 0x0304
    5c54:	00030303          	lb	t1,0(t1)
    5c58:	0105                	.insn	2, 0x0105
    5c5a:	0101                	.insn	2, 0x0101
    5c5c:	0101                	.insn	2, 0x0101
    5c5e:	0101                	.insn	2, 0x0101
    5c60:	0101                	.insn	2, 0x0101
    5c62:	0101                	.insn	2, 0x0101
    5c64:	0500                	.insn	2, 0x0500
    5c66:	0101                	.insn	2, 0x0101
    5c68:	0101                	.insn	2, 0x0101
    5c6a:	0101                	.insn	2, 0x0101
    5c6c:	0101                	.insn	2, 0x0101
    5c6e:	0101                	.insn	2, 0x0101
    5c70:	0001                	.insn	2, 0x0001
    5c72:	0200                	.insn	2, 0x0200
    5c74:	0c08                	.insn	2, 0x0c08
    5c76:	06010107          	.insn	4, 0x06010107
    5c7a:	0008                	.insn	2, 0x0008
    5c7c:	0000                	.insn	2, 0x
    5c7e:	0500                	.insn	2, 0x0500
    5c80:	0101                	.insn	2, 0x0101
    5c82:	0101                	.insn	2, 0x0101
    5c84:	0101                	.insn	2, 0x0101
    5c86:	0101                	.insn	2, 0x0101
    5c88:	0006                	.insn	2, 0x0006
    5c8a:	0000                	.insn	2, 0x
    5c8c:	0706                	.insn	2, 0x0706
    5c8e:	0408                	.insn	2, 0x0408
    5c90:	0202                	.insn	2, 0x0202
    5c92:	0504                	.insn	2, 0x0504
    5c94:	0101                	.insn	2, 0x0101
    5c96:	000a                	.insn	2, 0x000a
    5c98:	0200                	.insn	2, 0x0200
    5c9a:	0000                	.insn	2, 0x
    5c9c:	0000                	.insn	2, 0x
    5c9e:	0000                	.insn	2, 0x
    5ca0:	0a00                	.insn	2, 0x0a00
    5ca2:	0101                	.insn	2, 0x0101
	...
    5cac:	0000                	.insn	2, 0x
    5cae:	0102                	.insn	2, 0x0102
    5cb0:	0401                	.insn	2, 0x0401
	...
    5cba:	0000                	.insn	2, 0x
    5cbc:	0101                	.insn	2, 0x0101
    5cbe:	00000003          	lb	zero,0(zero) # 0 <_isr_handler>
    5cc2:	0000                	.insn	2, 0x
    5cc4:	0000                	.insn	2, 0x
    5cc6:	0000                	.insn	2, 0x
    5cc8:	0100                	.insn	2, 0x0100
    5cca:	0401                	.insn	2, 0x0401
	...
    5cd4:	0900                	.insn	2, 0x0900
    5cd6:	0101                	.insn	2, 0x0101
	...
    5ce0:	0000                	.insn	2, 0x
    5ce2:	0105                	.insn	2, 0x0105
    5ce4:	000a                	.insn	2, 0x000a
	...
    5cee:	0109                	.insn	2, 0x0109
    5cf0:	0901                	.insn	2, 0x0901
	...
    5cfa:	0600                	.insn	2, 0x0600
    5cfc:	0501                	.insn	2, 0x0501
	...
    5d06:	0500                	.insn	2, 0x0500
    5d08:	0601                	.insn	2, 0x0601
	...
    5d12:	0b00                	.insn	2, 0x0b00
    5d14:	0701                	.insn	2, 0x0701
    5d16:	0002                	.insn	2, 0x0002
    5d18:	0000                	.insn	2, 0x
    5d1a:	0000                	.insn	2, 0x
    5d1c:	0000                	.insn	2, 0x
    5d1e:	0300                	.insn	2, 0x0300
    5d20:	0101                	.insn	2, 0x0101
    5d22:	0009                	.insn	2, 0x0009
    5d24:	0000                	.insn	2, 0x
    5d26:	0000                	.insn	2, 0x
    5d28:	0000                	.insn	2, 0x
    5d2a:	0300                	.insn	2, 0x0300
    5d2c:	0101                	.insn	2, 0x0101
    5d2e:	0004                	.insn	2, 0x0004
    5d30:	0000                	.insn	2, 0x
    5d32:	0000                	.insn	2, 0x
    5d34:	0000                	.insn	2, 0x
    5d36:	0300                	.insn	2, 0x0300
    5d38:	0101                	.insn	2, 0x0101
    5d3a:	00000003          	lb	zero,0(zero) # 0 <_isr_handler>
    5d3e:	0000                	.insn	2, 0x
    5d40:	0000                	.insn	2, 0x
    5d42:	0300                	.insn	2, 0x0300
    5d44:	0101                	.insn	2, 0x0101
    5d46:	0004                	.insn	2, 0x0004
    5d48:	0000                	.insn	2, 0x
    5d4a:	0000                	.insn	2, 0x
    5d4c:	0000                	.insn	2, 0x
    5d4e:	0800                	.insn	2, 0x0800
    5d50:	0701                	.insn	2, 0x0701
    5d52:	0004                	.insn	2, 0x0004
    5d54:	0000                	.insn	2, 0x
    5d56:	0000                	.insn	2, 0x
    5d58:	0000                	.insn	2, 0x
    5d5a:	0500                	.insn	2, 0x0500
    5d5c:	0101                	.insn	2, 0x0101
    5d5e:	02020203          	lb	tp,32(tp) # 20 <_isr_routine+0x18>
    5d62:	0202                	.insn	2, 0x0202
    5d64:	0202                	.insn	2, 0x0202
    5d66:	0202                	.insn	2, 0x0202
    5d68:	0101                	.insn	2, 0x0101
    5d6a:	0101                	.insn	2, 0x0101
    5d6c:	0101                	.insn	2, 0x0101
    5d6e:	0101                	.insn	2, 0x0101
    5d70:	0101                	.insn	2, 0x0101
    5d72:	0101                	.insn	2, 0x0101
    5d74:	0101                	.insn	2, 0x0101
    5d76:	0101                	.insn	2, 0x0101
    5d78:	0101                	.insn	2, 0x0101
    5d7a:	0101                	.insn	2, 0x0101
    5d7c:	0101                	.insn	2, 0x0101
    5d7e:	0101                	.insn	2, 0x0101
    5d80:	0101                	.insn	2, 0x0101
    5d82:	0101                	.insn	2, 0x0101
    5d84:	0101                	.insn	2, 0x0101
    5d86:	0101                	.insn	2, 0x0101
    5d88:	0101                	.insn	2, 0x0101
    5d8a:	0101                	.insn	2, 0x0101
    5d8c:	0701                	.insn	2, 0x0701
    5d8e:	0101                	.insn	2, 0x0101
    5d90:	0101                	.insn	2, 0x0101
    5d92:	0101                	.insn	2, 0x0101
    5d94:	0101                	.insn	2, 0x0101
    5d96:	0101                	.insn	2, 0x0101
    5d98:	0701                	.insn	2, 0x0701
    5d9a:	0202                	.insn	2, 0x0202
    5d9c:	0202                	.insn	2, 0x0202
    5d9e:	0202                	.insn	2, 0x0202
    5da0:	0702                	.insn	2, 0x0702
    5da2:	0104                	.insn	2, 0x0104
    5da4:	0004                	.insn	2, 0x0004
    5da6:	0000                	.insn	2, 0x
    5da8:	0000                	.insn	2, 0x
    5daa:	0000                	.insn	2, 0x
    5dac:	0a00                	.insn	2, 0x0a00
    5dae:	0301                	.insn	2, 0x0301
    5db0:	0002                	.insn	2, 0x0002
    5db2:	0000                	.insn	2, 0x
    5db4:	0000                	.insn	2, 0x
    5db6:	0000                	.insn	2, 0x
    5db8:	0108                	.insn	2, 0x0108
    5dba:	0801                	.insn	2, 0x0801
    5dbc:	0000                	.insn	2, 0x
    5dbe:	0000                	.insn	2, 0x
    5dc0:	0000                	.insn	2, 0x
    5dc2:	0200                	.insn	2, 0x0200
    5dc4:	0101                	.insn	2, 0x0101
    5dc6:	0009                	.insn	2, 0x0009
    5dc8:	0000                	.insn	2, 0x
    5dca:	0000                	.insn	2, 0x
    5dcc:	0000                	.insn	2, 0x
    5dce:	0400                	.insn	2, 0x0400
    5dd0:	0501                	.insn	2, 0x0501
	...
    5dda:	010a                	.insn	2, 0x010a
    5ddc:	0000000b          	.insn	4, 0x000b
    5de0:	0000                	.insn	2, 0x
    5de2:	0000                	.insn	2, 0x
    5de4:	0600                	.insn	2, 0x0600
    5de6:	0301                	.insn	2, 0x0301
    5de8:	0002                	.insn	2, 0x0002
    5dea:	0000                	.insn	2, 0x
    5dec:	0000                	.insn	2, 0x
    5dee:	0000                	.insn	2, 0x
    5df0:	0100                	.insn	2, 0x0100
    5df2:	0101                	.insn	2, 0x0101
    5df4:	0301                	.insn	2, 0x0301
    5df6:	0705                	.insn	2, 0x0705
    5df8:	0000                	.insn	2, 0x
    5dfa:	0000                	.insn	2, 0x
    5dfc:	0302                	.insn	2, 0x0302
    5dfe:	01010103          	lb	sp,16(sp)
    5e02:	0101                	.insn	2, 0x0101
    5e04:	0006                	.insn	2, 0x0006
    5e06:	0000                	.insn	2, 0x
    5e08:	0000                	.insn	2, 0x
    5e0a:	0000                	.insn	2, 0x
    5e0c:	0900                	.insn	2, 0x0900
    5e0e:	0104                	.insn	2, 0x0104
    5e10:	0701                	.insn	2, 0x0701
	...
    5e1a:	0400                	.insn	2, 0x0400
    5e1c:	0501                	.insn	2, 0x0501
	...
    5e26:	0600                	.insn	2, 0x0600
    5e28:	0301                	.insn	2, 0x0301
	...
    5e32:	0800                	.insn	2, 0x0800
    5e34:	0101                	.insn	2, 0x0101
	...
    5e3e:	0600                	.insn	2, 0x0600
    5e40:	0301                	.insn	2, 0x0301
	...
    5e4a:	0500                	.insn	2, 0x0500
    5e4c:	0501                	.insn	2, 0x0501
	...
    5e56:	0109                	.insn	2, 0x0109
    5e58:	0701                	.insn	2, 0x0701
    5e5a:	0c09                	.insn	2, 0x0c09
    5e5c:	0208                	.insn	2, 0x0208
    5e5e:	0202                	.insn	2, 0x0202
    5e60:	0b06                	.insn	2, 0x0b06
    5e62:	0101                	.insn	2, 0x0101
    5e64:	000a                	.insn	2, 0x000a
    5e66:	0104                	.insn	2, 0x0104
    5e68:	0101                	.insn	2, 0x0101
    5e6a:	0101                	.insn	2, 0x0101
    5e6c:	0101                	.insn	2, 0x0101
    5e6e:	0c01                	.insn	2, 0x0c01
    5e70:	0000                	.insn	2, 0x
    5e72:	0506                	.insn	2, 0x0506
    5e74:	0304                	.insn	2, 0x0304
    5e76:	0301                	.insn	2, 0x0301
    5e78:	00020c0b          	.insn	4, 0x00020c0b
	...
    5e84:	0102                	.insn	2, 0x0102
    5e86:	0101                	.insn	2, 0x0101
    5e88:	0005                	.insn	2, 0x0005
	...
    5e92:	0000                	.insn	2, 0x
    5e94:	0400                	.insn	2, 0x0400
    5e96:	0101                	.insn	2, 0x0101
    5e98:	0601                	.insn	2, 0x0601
	...
    5ea6:	01010103          	lb	sp,16(sp)
    5eaa:	000a                	.insn	2, 0x000a
	...
    5eb4:	0000                	.insn	2, 0x
    5eb6:	0102                	.insn	2, 0x0102
    5eb8:	0601                	.insn	2, 0x0601
    5eba:	0101                	.insn	2, 0x0101
    5ebc:	0005                	.insn	2, 0x0005
	...
    5ec6:	0400                	.insn	2, 0x0400
    5ec8:	0301                	.insn	2, 0x0301
    5eca:	0700                	.insn	2, 0x0700
    5ecc:	0601                	.insn	2, 0x0601
	...
    5ed6:	0000                	.insn	2, 0x
    5ed8:	00040103          	lb	sp,0(s0)
    5edc:	0108                	.insn	2, 0x0108
    5ede:	00000003          	lb	zero,0(zero) # 0 <_isr_handler>
    5ee2:	0000                	.insn	2, 0x
    5ee4:	0000                	.insn	2, 0x
    5ee6:	0000                	.insn	2, 0x
    5ee8:	0102                	.insn	2, 0x0102
    5eea:	0201                	.insn	2, 0x0201
    5eec:	0900                	.insn	2, 0x0900
    5eee:	0101                	.insn	2, 0x0101
    5ef0:	0005                	.insn	2, 0x0005
    5ef2:	0000                	.insn	2, 0x
    5ef4:	0000                	.insn	2, 0x
    5ef6:	0000                	.insn	2, 0x
    5ef8:	0400                	.insn	2, 0x0400
    5efa:	0701                	.insn	2, 0x0701
    5efc:	0000                	.insn	2, 0x
    5efe:	0100                	.insn	2, 0x0100
    5f00:	0601                	.insn	2, 0x0601
	...
    5f0a:	00080103          	lb	sp,0(a6)
    5f0e:	0000                	.insn	2, 0x
    5f10:	0003010b          	.insn	4, 0x0003010b
    5f14:	0000                	.insn	2, 0x
    5f16:	0000                	.insn	2, 0x
    5f18:	0000                	.insn	2, 0x
    5f1a:	0102                	.insn	2, 0x0102
    5f1c:	0901                	.insn	2, 0x0901
    5f1e:	0000                	.insn	2, 0x
    5f20:	0c00                	.insn	2, 0x0c00
    5f22:	0101                	.insn	2, 0x0101
    5f24:	0005                	.insn	2, 0x0005
    5f26:	0000                	.insn	2, 0x
    5f28:	0000                	.insn	2, 0x
    5f2a:	0400                	.insn	2, 0x0400
    5f2c:	0701                	.insn	2, 0x0701
    5f2e:	0000                	.insn	2, 0x
    5f30:	0000                	.insn	2, 0x
    5f32:	0100                	.insn	2, 0x0100
    5f34:	0401                	.insn	2, 0x0401
    5f36:	0000                	.insn	2, 0x
    5f38:	0000                	.insn	2, 0x
    5f3a:	0000                	.insn	2, 0x
    5f3c:	000b0103          	lb	sp,0(s6)
    5f40:	0000                	.insn	2, 0x
    5f42:	0000                	.insn	2, 0x
    5f44:	010a                	.insn	2, 0x010a
    5f46:	00000003          	lb	zero,0(zero) # 0 <_isr_handler>
    5f4a:	0000                	.insn	2, 0x
    5f4c:	0102                	.insn	2, 0x0102
    5f4e:	0901                	.insn	2, 0x0901
    5f50:	0000                	.insn	2, 0x
    5f52:	0000                	.insn	2, 0x
    5f54:	0600                	.insn	2, 0x0600
    5f56:	0101                	.insn	2, 0x0101
    5f58:	0005                	.insn	2, 0x0005
    5f5a:	0000                	.insn	2, 0x
    5f5c:	0400                	.insn	2, 0x0400
    5f5e:	0101                	.insn	2, 0x0101
    5f60:	0101                	.insn	2, 0x0101
    5f62:	0101                	.insn	2, 0x0101
    5f64:	0101                	.insn	2, 0x0101
    5f66:	0101                	.insn	2, 0x0101
    5f68:	0401                	.insn	2, 0x0401
    5f6a:	0000                	.insn	2, 0x
    5f6c:	0000                	.insn	2, 0x
    5f6e:	01010103          	lb	sp,16(sp)
    5f72:	0101                	.insn	2, 0x0101
    5f74:	0101                	.insn	2, 0x0101
    5f76:	0101                	.insn	2, 0x0101
    5f78:	0101                	.insn	2, 0x0101
    5f7a:	00000003          	lb	zero,0(zero) # 0 <_isr_handler>
    5f7e:	0102                	.insn	2, 0x0102
    5f80:	0c01                	.insn	2, 0x0c01
    5f82:	0202                	.insn	2, 0x0202
    5f84:	0202                	.insn	2, 0x0202
    5f86:	0202                	.insn	2, 0x0202
    5f88:	0802                	.insn	2, 0x0802
    5f8a:	0101                	.insn	2, 0x0101
    5f8c:	0005                	.insn	2, 0x0005
    5f8e:	0400                	.insn	2, 0x0400
    5f90:	0701                	.insn	2, 0x0701
	...
    5f9a:	0105                	.insn	2, 0x0105
    5f9c:	0401                	.insn	2, 0x0401
    5f9e:	0000                	.insn	2, 0x
    5fa0:	00080103          	lb	sp,0(a6)
	...
    5fac:	00030103          	lb	sp,0(t1)
    5fb0:	0102                	.insn	2, 0x0102
    5fb2:	0901                	.insn	2, 0x0901
	...
    5fbc:	0600                	.insn	2, 0x0600
    5fbe:	0101                	.insn	2, 0x0101
    5fc0:	0402                	.insn	2, 0x0402
    5fc2:	0701                	.insn	2, 0x0701
	...
    5fcc:	0000                	.insn	2, 0x
    5fce:	0105                	.insn	2, 0x0105
    5fd0:	0401                	.insn	2, 0x0401
    5fd2:	00080103          	lb	sp,0(a6)
	...
    5fde:	0000                	.insn	2, 0x
    5fe0:	010a                	.insn	2, 0x010a
    5fe2:	03060703          	lb	a4,48(a2)
    5fe6:	03010103          	lb	sp,48(sp)
    5fea:	0704                	.insn	2, 0x0704
    5fec:	0005                	.insn	2, 0x0005
    5fee:	0000                	.insn	2, 0x
    5ff0:	0101                	.insn	2, 0x0101
    5ff2:	0101                	.insn	2, 0x0101
    5ff4:	0101                	.insn	2, 0x0101
    5ff6:	0101                	.insn	2, 0x0101
    5ff8:	0101                	.insn	2, 0x0101
    5ffa:	0804                	.insn	2, 0x0804
    5ffc:	0100                	.insn	2, 0x0100
    5ffe:	0a01                	.insn	2, 0x0a01
    6000:	0809                	.insn	2, 0x0809
    6002:	0908                	.insn	2, 0x0908
    6004:	0402                	.insn	2, 0x0402
    6006:	0101                	.insn	2, 0x0101
    6008:	0006                	.insn	2, 0x0006
    600a:	0101                	.insn	2, 0x0101
    600c:	0002                	.insn	2, 0x0002
    600e:	0000                	.insn	2, 0x
    6010:	0000                	.insn	2, 0x
    6012:	0400                	.insn	2, 0x0400
    6014:	0101                	.insn	2, 0x0101
    6016:	0109                	.insn	2, 0x0109
    6018:	0201                	.insn	2, 0x0201
    601a:	0000                	.insn	2, 0x
    601c:	0000                	.insn	2, 0x
    601e:	0000                	.insn	2, 0x
    6020:	0105                	.insn	2, 0x0105
    6022:	0501                	.insn	2, 0x0501
    6024:	0101                	.insn	2, 0x0101
    6026:	0002                	.insn	2, 0x0002
    6028:	0000                	.insn	2, 0x
    602a:	0000                	.insn	2, 0x
    602c:	0900                	.insn	2, 0x0900
    602e:	0101                	.insn	2, 0x0101
    6030:	0201010b          	.insn	4, 0x0201010b
    6034:	0000                	.insn	2, 0x
    6036:	0000                	.insn	2, 0x
    6038:	0000                	.insn	2, 0x
    603a:	0102                	.insn	2, 0x0102
    603c:	0801                	.insn	2, 0x0801
    603e:	0101                	.insn	2, 0x0101
    6040:	0002                	.insn	2, 0x0002
    6042:	0000                	.insn	2, 0x
    6044:	0000                	.insn	2, 0x
    6046:	0308                	.insn	2, 0x0308
    6048:	0a01                	.insn	2, 0x0a01
    604a:	0100                	.insn	2, 0x0100
    604c:	0201                	.insn	2, 0x0201
    604e:	0000                	.insn	2, 0x
    6050:	0000                	.insn	2, 0x
    6052:	0305                	.insn	2, 0x0305
    6054:	0601                	.insn	2, 0x0601
    6056:	0000                	.insn	2, 0x
    6058:	0101                	.insn	2, 0x0101
    605a:	0604                	.insn	2, 0x0604
    605c:	0406                	.insn	2, 0x0406
    605e:	05030103          	lb	sp,80(t1)
    6062:	0000                	.insn	2, 0x
    6064:	0100                	.insn	2, 0x0100
    6066:	0101                	.insn	2, 0x0101
    6068:	0101                	.insn	2, 0x0101
    606a:	0101                	.insn	2, 0x0101
    606c:	0101                	.insn	2, 0x0101
    606e:	0204                	.insn	2, 0x0204
    6070:	0000                	.insn	2, 0x
    6072:	0101                	.insn	2, 0x0101
    6074:	050a                	.insn	2, 0x050a
    6076:	0505                	.insn	2, 0x0505
    6078:	0a02                	.insn	2, 0x0a02
    607a:	07010103          	lb	sp,112(sp)
    607e:	0100                	.insn	2, 0x0100
    6080:	0201                	.insn	2, 0x0201
    6082:	0000                	.insn	2, 0x
    6084:	0000                	.insn	2, 0x
    6086:	0000                	.insn	2, 0x
    6088:	02010107          	.insn	4, 0x02010107
    608c:	0101                	.insn	2, 0x0101
    608e:	0002                	.insn	2, 0x0002
    6090:	0000                	.insn	2, 0x
    6092:	0000                	.insn	2, 0x
    6094:	0000                	.insn	2, 0x
    6096:	01040103          	lb	sp,16(s0)
    609a:	0201                	.insn	2, 0x0201
    609c:	0000                	.insn	2, 0x
    609e:	0000                	.insn	2, 0x
    60a0:	0000                	.insn	2, 0x
    60a2:	0700                	.insn	2, 0x0700
    60a4:	0101                	.insn	2, 0x0101
    60a6:	0101                	.insn	2, 0x0101
    60a8:	0002                	.insn	2, 0x0002
    60aa:	0000                	.insn	2, 0x
    60ac:	0000                	.insn	2, 0x
    60ae:	0000                	.insn	2, 0x
    60b0:	01030107          	.insn	4, 0x01030107
    60b4:	0201                	.insn	2, 0x0201
    60b6:	0000                	.insn	2, 0x
    60b8:	0000                	.insn	2, 0x
    60ba:	0000                	.insn	2, 0x
    60bc:	0300                	.insn	2, 0x0300
    60be:	0601                	.insn	2, 0x0601
    60c0:	0101                	.insn	2, 0x0101
    60c2:	0002                	.insn	2, 0x0002
    60c4:	0000                	.insn	2, 0x
    60c6:	0000                	.insn	2, 0x
    60c8:	0a00                	.insn	2, 0x0a00
    60ca:	0101                	.insn	2, 0x0101
    60cc:	0105                	.insn	2, 0x0105
    60ce:	0a01                	.insn	2, 0x0a01
    60d0:	0809                	.insn	2, 0x0809
    60d2:	0908                	.insn	2, 0x0908
    60d4:	0402                	.insn	2, 0x0402
    60d6:	0101                	.insn	2, 0x0101
    60d8:	0006                	.insn	2, 0x0006
    60da:	0101                	.insn	2, 0x0101
    60dc:	0101                	.insn	2, 0x0101
    60de:	0101                	.insn	2, 0x0101
    60e0:	0101                	.insn	2, 0x0101
    60e2:	0101                	.insn	2, 0x0101
    60e4:	000a                	.insn	2, 0x000a
    60e6:	0700                	.insn	2, 0x0700
    60e8:	0304                	.insn	2, 0x0304
    60ea:	0101                	.insn	2, 0x0101
    60ec:	0301                	.insn	2, 0x0301
    60ee:	0c06                	.insn	2, 0x0c06
    60f0:	0009                	.insn	2, 0x0009
    60f2:	0000                	.insn	2, 0x
    60f4:	0000                	.insn	2, 0x
    60f6:	0000                	.insn	2, 0x
    60f8:	0900                	.insn	2, 0x0900
    60fa:	0206                	.insn	2, 0x0206
    60fc:	0101                	.insn	2, 0x0101
    60fe:	0602                	.insn	2, 0x0602
    6100:	0005                	.insn	2, 0x0005
    6102:	0000                	.insn	2, 0x
    6104:	0a00                	.insn	2, 0x0a00
    6106:	0102                	.insn	2, 0x0102
    6108:	0101                	.insn	2, 0x0101
    610a:	0101                	.insn	2, 0x0101
    610c:	0101                	.insn	2, 0x0101
    610e:	0401                	.insn	2, 0x0401
    6110:	0000                	.insn	2, 0x
    6112:	0109                	.insn	2, 0x0109
    6114:	0101                	.insn	2, 0x0101
    6116:	0a04                	.insn	2, 0x0a04
    6118:	06070303          	lb	t1,96(a4)
    611c:	0401                	.insn	2, 0x0401
    611e:	0300                	.insn	2, 0x0300
    6120:	0101                	.insn	2, 0x0101
    6122:	0302                	.insn	2, 0x0302
    6124:	0000                	.insn	2, 0x
    6126:	0000                	.insn	2, 0x
    6128:	0500                	.insn	2, 0x0500
    612a:	0401                	.insn	2, 0x0401
    612c:	0600                	.insn	2, 0x0600
    612e:	0101                	.insn	2, 0x0101
    6130:	00000003          	lb	zero,0(zero) # 0 <_isr_handler>
    6134:	0000                	.insn	2, 0x
    6136:	0500                	.insn	2, 0x0500
    6138:	0401                	.insn	2, 0x0401
    613a:	08010103          	lb	sp,128(sp)
    613e:	0000                	.insn	2, 0x
    6140:	0000                	.insn	2, 0x
    6142:	0000                	.insn	2, 0x
    6144:	0a00                	.insn	2, 0x0a00
    6146:	0904                	.insn	2, 0x0904
    6148:	0105                	.insn	2, 0x0105
    614a:	0b01                	.insn	2, 0x0b01
	...
    6154:	0000                	.insn	2, 0x
    6156:	0106                	.insn	2, 0x0106
    6158:	0002                	.insn	2, 0x0002
	...
    6162:	0000                	.insn	2, 0x
    6164:	0102                	.insn	2, 0x0102
    6166:	0004                	.insn	2, 0x0004
	...
    6170:	0000                	.insn	2, 0x
    6172:	0102                	.insn	2, 0x0102
    6174:	0004                	.insn	2, 0x0004
	...
    617e:	0000                	.insn	2, 0x
    6180:	0101                	.insn	2, 0x0101
    6182:	0008                	.insn	2, 0x0008
	...
    618c:	0000                	.insn	2, 0x
    618e:	0101                	.insn	2, 0x0101
    6190:	0004                	.insn	2, 0x0004
	...
    619a:	0000                	.insn	2, 0x
    619c:	0102                	.insn	2, 0x0102
    619e:	0006                	.insn	2, 0x0006
	...
    61a8:	0000                	.insn	2, 0x
    61aa:	0106                	.insn	2, 0x0106
    61ac:	0002                	.insn	2, 0x0002
	...
    61b6:	0000                	.insn	2, 0x
    61b8:	0105                	.insn	2, 0x0105
    61ba:	0301                	.insn	2, 0x0301
	...
    61c4:	0000                	.insn	2, 0x
    61c6:	08010107          	.insn	4, 0x08010107
    61ca:	0000                	.insn	2, 0x
    61cc:	0000                	.insn	2, 0x
    61ce:	0000                	.insn	2, 0x
    61d0:	0b00                	.insn	2, 0x0b00
    61d2:	0505                	.insn	2, 0x0505
    61d4:	0c00                	.insn	2, 0x0c00
    61d6:	0101                	.insn	2, 0x0101
    61d8:	00000003          	lb	zero,0(zero) # 0 <_isr_handler>
    61dc:	0000                	.insn	2, 0x
    61de:	0300                	.insn	2, 0x0300
    61e0:	0101                	.insn	2, 0x0101
    61e2:	0700                	.insn	2, 0x0700
    61e4:	0101                	.insn	2, 0x0101
    61e6:	0702                	.insn	2, 0x0702
    61e8:	0000                	.insn	2, 0x
    61ea:	0000                	.insn	2, 0x
    61ec:	0300                	.insn	2, 0x0300
    61ee:	0101                	.insn	2, 0x0101
    61f0:	0000                	.insn	2, 0x
    61f2:	0105                	.insn	2, 0x0105
    61f4:	0101                	.insn	2, 0x0101
    61f6:	0a04                	.insn	2, 0x0a04
    61f8:	08070303          	lb	t1,128(a4)
    61fc:	0101                	.insn	2, 0x0101
    61fe:	0000                	.insn	2, 0x
    6200:	0900                	.insn	2, 0x0900
    6202:	0101                	.insn	2, 0x0101
    6204:	0101                	.insn	2, 0x0101
    6206:	0101                	.insn	2, 0x0101
    6208:	0101                	.insn	2, 0x0101
    620a:	0601                	.insn	2, 0x0601
    620c:	0000                	.insn	2, 0x
    620e:	0000                	.insn	2, 0x
    6210:	0206050b          	.insn	4, 0x0206050b
    6214:	0201                	.insn	2, 0x0201
    6216:	080c                	.insn	2, 0x080c
    6218:	00000007          	.insn	4, 0x0007
    621c:	0000                	.insn	2, 0x
    621e:	0000                	.insn	2, 0x
    6220:	0000                	.insn	2, 0x
    6222:	0300                	.insn	2, 0x0300
    6224:	0101                	.insn	2, 0x0101
	...
    6232:	010a                	.insn	2, 0x010a
    6234:	0101                	.insn	2, 0x0101
	...
    6242:	0106                	.insn	2, 0x0106
    6244:	0101                	.insn	2, 0x0101
	...
    624e:	0000                	.insn	2, 0x
    6250:	0b00                	.insn	2, 0x0b00
    6252:	0101                	.insn	2, 0x0101
    6254:	0101                	.insn	2, 0x0101
	...
    625e:	0000                	.insn	2, 0x
    6260:	0104                	.insn	2, 0x0104
    6262:	0406                	.insn	2, 0x0406
    6264:	0101                	.insn	2, 0x0101
	...
    626e:	0200                	.insn	2, 0x0200
    6270:	0101                	.insn	2, 0x0101
    6272:	0208                	.insn	2, 0x0208
    6274:	0101                	.insn	2, 0x0101
	...
    627e:	0109                	.insn	2, 0x0109
    6280:	0301                	.insn	2, 0x0301
    6282:	0200                	.insn	2, 0x0200
    6284:	0101                	.insn	2, 0x0101
	...
    628e:	00050107          	.insn	4, 0x00050107
    6292:	0200                	.insn	2, 0x0200
    6294:	0101                	.insn	2, 0x0101
    6296:	0000                	.insn	2, 0x
    6298:	0000                	.insn	2, 0x
    629a:	0000                	.insn	2, 0x
    629c:	0500                	.insn	2, 0x0500
    629e:	0701                	.insn	2, 0x0701
    62a0:	0000                	.insn	2, 0x
    62a2:	0200                	.insn	2, 0x0200
    62a4:	0101                	.insn	2, 0x0101
    62a6:	0000                	.insn	2, 0x
    62a8:	0000                	.insn	2, 0x
    62aa:	0000                	.insn	2, 0x
    62ac:	0104                	.insn	2, 0x0104
    62ae:	0a01                	.insn	2, 0x0a01
    62b0:	0000                	.insn	2, 0x
    62b2:	0200                	.insn	2, 0x0200
    62b4:	0101                	.insn	2, 0x0101
    62b6:	0000                	.insn	2, 0x
    62b8:	0000                	.insn	2, 0x
    62ba:	0800                	.insn	2, 0x0800
    62bc:	0101                	.insn	2, 0x0101
    62be:	0002                	.insn	2, 0x0002
    62c0:	0000                	.insn	2, 0x
    62c2:	0200                	.insn	2, 0x0200
    62c4:	0101                	.insn	2, 0x0101
    62c6:	0000                	.insn	2, 0x
    62c8:	0000                	.insn	2, 0x
    62ca:	0609                	.insn	2, 0x0609
    62cc:	0401                	.insn	2, 0x0401
    62ce:	0000                	.insn	2, 0x
    62d0:	0000                	.insn	2, 0x
    62d2:	0200                	.insn	2, 0x0200
    62d4:	0101                	.insn	2, 0x0101
    62d6:	0000                	.insn	2, 0x
    62d8:	0000                	.insn	2, 0x
    62da:	04010107          	.insn	4, 0x04010107
    62de:	0404                	.insn	2, 0x0404
    62e0:	0404                	.insn	2, 0x0404
    62e2:	0504                	.insn	2, 0x0504
    62e4:	0101                	.insn	2, 0x0101
    62e6:	0404                	.insn	2, 0x0404
    62e8:	0404                	.insn	2, 0x0404
    62ea:	0101                	.insn	2, 0x0101
    62ec:	0101                	.insn	2, 0x0101
    62ee:	0101                	.insn	2, 0x0101
    62f0:	0101                	.insn	2, 0x0101
    62f2:	0101                	.insn	2, 0x0101
    62f4:	0101                	.insn	2, 0x0101
    62f6:	0101                	.insn	2, 0x0101
    62f8:	0101                	.insn	2, 0x0101
    62fa:	03030303          	lb	t1,48(t1)
    62fe:	03030303          	lb	t1,48(t1)
    6302:	01010503          	lb	a0,16(sp)
    6306:	03030303          	lb	t1,48(t1)
	...
    6312:	0200                	.insn	2, 0x0200
    6314:	0101                	.insn	2, 0x0101
	...
    6322:	0200                	.insn	2, 0x0200
    6324:	0101                	.insn	2, 0x0101
	...
    6332:	0200                	.insn	2, 0x0200
    6334:	0101                	.insn	2, 0x0101
	...
    6342:	0200                	.insn	2, 0x0200
    6344:	0101                	.insn	2, 0x0101
	...
    6352:	0200                	.insn	2, 0x0200
    6354:	0101                	.insn	2, 0x0101
	...
    6362:	0200                	.insn	2, 0x0200
    6364:	0101                	.insn	2, 0x0101
    6366:	0000                	.insn	2, 0x
    6368:	0000                	.insn	2, 0x
    636a:	0200                	.insn	2, 0x0200
    636c:	0101                	.insn	2, 0x0101
    636e:	0101                	.insn	2, 0x0101
    6370:	0101                	.insn	2, 0x0101
    6372:	0101                	.insn	2, 0x0101
    6374:	0701                	.insn	2, 0x0701
    6376:	0200                	.insn	2, 0x0200
    6378:	0101                	.insn	2, 0x0101
    637a:	0101                	.insn	2, 0x0101
    637c:	0101                	.insn	2, 0x0101
    637e:	0101                	.insn	2, 0x0101
    6380:	0701                	.insn	2, 0x0701
    6382:	0200                	.insn	2, 0x0200
    6384:	0401                	.insn	2, 0x0401
    6386:	03030303          	lb	t1,48(t1)
    638a:	00030303          	lb	t1,0(t1)
    638e:	0200                	.insn	2, 0x0200
    6390:	0401                	.insn	2, 0x0401
	...
    639a:	0200                	.insn	2, 0x0200
    639c:	0401                	.insn	2, 0x0401
	...
    63a6:	0200                	.insn	2, 0x0200
    63a8:	0401                	.insn	2, 0x0401
	...
    63b2:	0200                	.insn	2, 0x0200
    63b4:	0401                	.insn	2, 0x0401
	...
    63be:	0200                	.insn	2, 0x0200
    63c0:	0401                	.insn	2, 0x0401
	...
    63ca:	0200                	.insn	2, 0x0200
    63cc:	0101                	.insn	2, 0x0101
    63ce:	0606                	.insn	2, 0x0606
    63d0:	0a04                	.insn	2, 0x0a04
    63d2:	0002                	.insn	2, 0x0002
    63d4:	0000                	.insn	2, 0x
    63d6:	0200                	.insn	2, 0x0200
    63d8:	0101                	.insn	2, 0x0101
    63da:	0101                	.insn	2, 0x0101
    63dc:	0101                	.insn	2, 0x0101
    63de:	0401                	.insn	2, 0x0401
    63e0:	00000003          	lb	zero,0(zero) # 0 <_isr_handler>
    63e4:	0000                	.insn	2, 0x
    63e6:	0300                	.insn	2, 0x0300
    63e8:	0a08                	.insn	2, 0x0a08
    63ea:	0101                	.insn	2, 0x0101
    63ec:	0006                	.insn	2, 0x0006
	...
    63f6:	0102                	.insn	2, 0x0102
    63f8:	0c01                	.insn	2, 0x0c01
	...
    6402:	0500                	.insn	2, 0x0500
    6404:	0401                	.insn	2, 0x0401
	...
    640e:	0800                	.insn	2, 0x0800
    6410:	0101                	.insn	2, 0x0101
	...
    641a:	0800                	.insn	2, 0x0800
    641c:	0101                	.insn	2, 0x0101
	...
    6426:	0200                	.insn	2, 0x0200
    6428:	0601                	.insn	2, 0x0601
	...
    6432:	0a00                	.insn	2, 0x0a00
    6434:	0501                	.insn	2, 0x0501
	...
    643e:	0102                	.insn	2, 0x0102
    6440:	0901                	.insn	2, 0x0901
    6442:	09070607          	.insn	4, 0x09070607
    6446:	05080303          	lb	t1,80(a6)
    644a:	0101                	.insn	2, 0x0101
    644c:	0005                	.insn	2, 0x0005
    644e:	0104                	.insn	2, 0x0104
    6450:	0101                	.insn	2, 0x0101
    6452:	0101                	.insn	2, 0x0101
    6454:	0101                	.insn	2, 0x0101
    6456:	0501                	.insn	2, 0x0501
    6458:	0000                	.insn	2, 0x
    645a:	060b0703          	lb	a4,96(s6)
    645e:	0101                	.insn	2, 0x0101
    6460:	0504                	.insn	2, 0x0504
    6462:	0009                	.insn	2, 0x0009
	...
    646c:	0600                	.insn	2, 0x0600
    646e:	070a                	.insn	2, 0x070a
    6470:	0009                	.insn	2, 0x0009
	...
    647a:	0104                	.insn	2, 0x0104
    647c:	0101                	.insn	2, 0x0101
    647e:	0201                	.insn	2, 0x0201
    6480:	0000                	.insn	2, 0x
    6482:	0000                	.insn	2, 0x
    6484:	0000                	.insn	2, 0x
    6486:	0302                	.insn	2, 0x0302
    6488:	0101                	.insn	2, 0x0101
    648a:	0805                	.insn	2, 0x0805
    648c:	0000                	.insn	2, 0x
    648e:	0000                	.insn	2, 0x
    6490:	0000                	.insn	2, 0x
    6492:	0200                	.insn	2, 0x0200
    6494:	0109                	.insn	2, 0x0109
    6496:	00000203          	lb	tp,0(zero) # 0 <_isr_handler>
    649a:	0000                	.insn	2, 0x
    649c:	0000                	.insn	2, 0x
    649e:	0000                	.insn	2, 0x
    64a0:	0906                	.insn	2, 0x0906
    64a2:	0701                	.insn	2, 0x0701
	...
    64ac:	0000                	.insn	2, 0x
    64ae:	0105                	.insn	2, 0x0105
    64b0:	00000003          	lb	zero,0(zero) # 0 <_isr_handler>
    64b4:	0000                	.insn	2, 0x
    64b6:	0000                	.insn	2, 0x
    64b8:	0000                	.insn	2, 0x
    64ba:	0800                	.insn	2, 0x0800
    64bc:	0101                	.insn	2, 0x0101
    64be:	0002                	.insn	2, 0x0002
	...
    64c8:	0500                	.insn	2, 0x0500
    64ca:	0401                	.insn	2, 0x0401
	...
    64d4:	0000                	.insn	2, 0x
    64d6:	0106                	.insn	2, 0x0106
    64d8:	0601                	.insn	2, 0x0601
    64da:	0600                	.insn	2, 0x0600
    64dc:	0c08                	.insn	2, 0x0c08
    64de:	0608                	.insn	2, 0x0608
    64e0:	0000                	.insn	2, 0x
    64e2:	0000                	.insn	2, 0x
    64e4:	0207010b          	.insn	4, 0x0207010b
    64e8:	01010107          	.insn	4, 0x01010107
    64ec:	0101                	.insn	2, 0x0101
    64ee:	00000807          	.insn	4, 0x0807
    64f2:	0105                	.insn	2, 0x0105
    64f4:	03010103          	lb	sp,48(sp)
    64f8:	0405                	.insn	2, 0x0405
    64fa:	01010107          	.insn	4, 0x01010107
    64fe:	0103000b          	.insn	4, 0x0103000b
    6502:	0701                	.insn	2, 0x0701
    6504:	0006                	.insn	2, 0x0006
    6506:	0000                	.insn	2, 0x
    6508:	0600                	.insn	2, 0x0600
    650a:	02010107          	.insn	4, 0x02010107
    650e:	0109                	.insn	2, 0x0109
    6510:	0005                	.insn	2, 0x0005
    6512:	0000                	.insn	2, 0x
    6514:	0000                	.insn	2, 0x
    6516:	0000                	.insn	2, 0x
    6518:	0900                	.insn	2, 0x0900
    651a:	0501                	.insn	2, 0x0501
    651c:	0101                	.insn	2, 0x0101
    651e:	0008                	.insn	2, 0x0008
    6520:	0000                	.insn	2, 0x
    6522:	0000                	.insn	2, 0x
    6524:	0000                	.insn	2, 0x
    6526:	0400                	.insn	2, 0x0400
    6528:	0901                	.insn	2, 0x0901
    652a:	0101                	.insn	2, 0x0101
    652c:	000c                	.insn	2, 0x000c
    652e:	0000                	.insn	2, 0x
    6530:	0000                	.insn	2, 0x
    6532:	0000                	.insn	2, 0x
    6534:	0b00                	.insn	2, 0x0b00
    6536:	0101                	.insn	2, 0x0101
    6538:	000a0103          	lb	sp,0(s4)
    653c:	0000                	.insn	2, 0x
    653e:	0000                	.insn	2, 0x
    6540:	0000                	.insn	2, 0x
    6542:	0a00                	.insn	2, 0x0a00
    6544:	0901                	.insn	2, 0x0901
    6546:	0104                	.insn	2, 0x0104
    6548:	00000003          	lb	zero,0(zero) # 0 <_isr_handler>
    654c:	0000                	.insn	2, 0x
    654e:	0000                	.insn	2, 0x
    6550:	0300                	.insn	2, 0x0300
    6552:	0501                	.insn	2, 0x0501
    6554:	0102                	.insn	2, 0x0102
    6556:	0a01                	.insn	2, 0x0a01
    6558:	0000                	.insn	2, 0x
    655a:	0000                	.insn	2, 0x
    655c:	0000                	.insn	2, 0x
    655e:	0801010b          	.insn	4, 0x0801010b
    6562:	0a00                	.insn	2, 0x0a00
    6564:	0101                	.insn	2, 0x0101
    6566:	0205                	.insn	2, 0x0205
    6568:	0000                	.insn	2, 0x
    656a:	0402                	.insn	2, 0x0402
    656c:	0101                	.insn	2, 0x0101
    656e:	0004                	.insn	2, 0x0004
    6570:	0000                	.insn	2, 0x
    6572:	010a                	.insn	2, 0x010a
    6574:	0101                	.insn	2, 0x0101
    6576:	0101                	.insn	2, 0x0101
    6578:	0101                	.insn	2, 0x0101
    657a:	0401                	.insn	2, 0x0401
    657c:	0000                	.insn	2, 0x
    657e:	0000                	.insn	2, 0x
    6580:	0200                	.insn	2, 0x0200
    6582:	0304                	.insn	2, 0x0304
    6584:	0101                	.insn	2, 0x0101
    6586:	00020403          	lb	s0,0(tp) # 0 <_isr_handler>
    658a:	0000                	.insn	2, 0x
    658c:	0101                	.insn	2, 0x0101
    658e:	0101                	.insn	2, 0x0101
    6590:	0101                	.insn	2, 0x0101
    6592:	0101                	.insn	2, 0x0101
    6594:	0101                	.insn	2, 0x0101
    6596:	0101                	.insn	2, 0x0101
    6598:	0101                	.insn	2, 0x0101
    659a:	0101                	.insn	2, 0x0101
    659c:	0101                	.insn	2, 0x0101
    659e:	0101                	.insn	2, 0x0101
    65a0:	0101                	.insn	2, 0x0101
    65a2:	0101                	.insn	2, 0x0101
    65a4:	0101                	.insn	2, 0x0101
    65a6:	0202                	.insn	2, 0x0202
    65a8:	0202                	.insn	2, 0x0202
    65aa:	0202                	.insn	2, 0x0202
    65ac:	0202                	.insn	2, 0x0202
    65ae:	0202                	.insn	2, 0x0202
    65b0:	0109                	.insn	2, 0x0109
    65b2:	0004                	.insn	2, 0x0004
	...
    65bc:	0100                	.insn	2, 0x0100
    65be:	0801                	.insn	2, 0x0801
	...
    65c8:	0c00                	.insn	2, 0x0c00
    65ca:	0501                	.insn	2, 0x0501
	...
    65d4:	0000                	.insn	2, 0x
    65d6:	00060103          	lb	sp,0(a2)
	...
    65e2:	010a                	.insn	2, 0x010a
    65e4:	0005                	.insn	2, 0x0005
	...
    65ee:	0300                	.insn	2, 0x0300
    65f0:	0601                	.insn	2, 0x0601
	...
    65fa:	0a00                	.insn	2, 0x0a00
    65fc:	0301                	.insn	2, 0x0301
	...
    6606:	0000                	.insn	2, 0x
    6608:	000a0103          	lb	sp,0(s4)
	...
    6614:	0106                	.insn	2, 0x0106
    6616:	00000003          	lb	zero,0(zero) # 0 <_isr_handler>
    661a:	0000                	.insn	2, 0x
    661c:	0000                	.insn	2, 0x
    661e:	0000                	.insn	2, 0x
    6620:	0500                	.insn	2, 0x0500
    6622:	0c01                	.insn	2, 0x0c01
	...
    662c:	0600                	.insn	2, 0x0600
    662e:	0101                	.insn	2, 0x0101
    6630:	0002                	.insn	2, 0x0002
	...
    663a:	0105                	.insn	2, 0x0105
    663c:	0000000b          	.insn	4, 0x000b
    6640:	0000                	.insn	2, 0x
    6642:	0000                	.insn	2, 0x
    6644:	0000                	.insn	2, 0x
    6646:	0108                	.insn	2, 0x0108
    6648:	0201                	.insn	2, 0x0201
	...
    6652:	0400                	.insn	2, 0x0400
    6654:	0b01                	.insn	2, 0x0b01
	...
    665e:	0700                	.insn	2, 0x0700
    6660:	0101                	.insn	2, 0x0101
    6662:	00000007          	.insn	4, 0x0007
    6666:	0000                	.insn	2, 0x
    6668:	0000                	.insn	2, 0x
    666a:	0000                	.insn	2, 0x
    666c:	0104                	.insn	2, 0x0104
    666e:	0009                	.insn	2, 0x0009
	...
    6678:	07010107          	.insn	4, 0x07010107
	...
    6684:	0900                	.insn	2, 0x0900
    6686:	0401                	.insn	2, 0x0401
	...
    6690:	0200                	.insn	2, 0x0200
    6692:	0101                	.insn	2, 0x0101
    6694:	0008                	.insn	2, 0x0008
	...
    669e:	0000                	.insn	2, 0x
    66a0:	0102090b          	.insn	4, 0x0102090b
    66a4:	0a01                	.insn	2, 0x0a01
    66a6:	0008                	.insn	2, 0x0008
    66a8:	0000                	.insn	2, 0x
    66aa:	0300                	.insn	2, 0x0300
    66ac:	010a                	.insn	2, 0x010a
    66ae:	0101                	.insn	2, 0x0101
    66b0:	0101                	.insn	2, 0x0101
    66b2:	0101                	.insn	2, 0x0101
    66b4:	0502                	.insn	2, 0x0502
    66b6:	0000                	.insn	2, 0x
    66b8:	010a                	.insn	2, 0x010a
    66ba:	0801                	.insn	2, 0x0801
    66bc:	07030003          	lb	zero,112(t1)
    66c0:	0101                	.insn	2, 0x0101
    66c2:	0002                	.insn	2, 0x0002
    66c4:	0106                	.insn	2, 0x0106
    66c6:	0601                	.insn	2, 0x0601
    66c8:	0000                	.insn	2, 0x
    66ca:	0000                	.insn	2, 0x
    66cc:	0600                	.insn	2, 0x0600
    66ce:	0101                	.insn	2, 0x0101
    66d0:	0401080b          	.insn	4, 0x0401080b
    66d4:	0000                	.insn	2, 0x
    66d6:	0000                	.insn	2, 0x
    66d8:	0000                	.insn	2, 0x
    66da:	0400                	.insn	2, 0x0400
    66dc:	0801                	.insn	2, 0x0801
    66de:	0108                	.insn	2, 0x0108
    66e0:	0004                	.insn	2, 0x0004
    66e2:	0000                	.insn	2, 0x
    66e4:	0000                	.insn	2, 0x
    66e6:	0000                	.insn	2, 0x
    66e8:	0104                	.insn	2, 0x0104
    66ea:	01010b0b          	.insn	4, 0x01010b0b
    66ee:	0005                	.insn	2, 0x0005
    66f0:	0000                	.insn	2, 0x
    66f2:	0000                	.insn	2, 0x
    66f4:	05010103          	lb	sp,80(sp)
    66f8:	0400                	.insn	2, 0x0400
    66fa:	0201                	.insn	2, 0x0201
    66fc:	0005                	.insn	2, 0x0005
    66fe:	0000                	.insn	2, 0x
    6700:	0900                	.insn	2, 0x0900
    6702:	0901                	.insn	2, 0x0901
    6704:	0000                	.insn	2, 0x
    6706:	0205                	.insn	2, 0x0205
    6708:	0101                	.insn	2, 0x0101
    670a:	0308                	.insn	2, 0x0308
    670c:	0900                	.insn	2, 0x0900
    670e:	0201                	.insn	2, 0x0201
    6710:	00000003          	lb	zero,0(zero) # 0 <_isr_handler>
    6714:	01010c03          	lb	s8,16(sp)
    6718:	0201                	.insn	2, 0x0201
    671a:	0a01                	.insn	2, 0x0a01
    671c:	00000003          	lb	zero,0(zero) # 0 <_isr_handler>
    6720:	0000                	.insn	2, 0x
    6722:	0108                	.insn	2, 0x0108
    6724:	0101                	.insn	2, 0x0101
    6726:	0101                	.insn	2, 0x0101
    6728:	030c                	.insn	2, 0x030c
    672a:	0000                	.insn	2, 0x
    672c:	0300                	.insn	2, 0x0300
    672e:	0104                	.insn	2, 0x0104
    6730:	0604                	.insn	2, 0x0604
    6732:	0905                	.insn	2, 0x0905
    6734:	0101                	.insn	2, 0x0101
    6736:	0502                	.insn	2, 0x0502
    6738:	0000                	.insn	2, 0x
    673a:	0104                	.insn	2, 0x0104
    673c:	000a                	.insn	2, 0x000a
    673e:	0000                	.insn	2, 0x
    6740:	0600                	.insn	2, 0x0600
    6742:	0102                	.insn	2, 0x0102
    6744:	0301                	.insn	2, 0x0301
    6746:	00020107          	.insn	4, 0x00020107
    674a:	0000                	.insn	2, 0x
    674c:	0000                	.insn	2, 0x
    674e:	0300                	.insn	2, 0x0300
    6750:	0102                	.insn	2, 0x0102
    6752:	0409                	.insn	2, 0x0409
    6754:	0701                	.insn	2, 0x0701
    6756:	0000                	.insn	2, 0x
    6758:	0000                	.insn	2, 0x
    675a:	0000                	.insn	2, 0x
    675c:	0700                	.insn	2, 0x0700
    675e:	0201                	.insn	2, 0x0201
    6760:	0101                	.insn	2, 0x0101
    6762:	0006                	.insn	2, 0x0006
    6764:	0000                	.insn	2, 0x
    6766:	0000                	.insn	2, 0x
    6768:	0000                	.insn	2, 0x
    676a:	0106                	.insn	2, 0x0106
    676c:	0201                	.insn	2, 0x0201
    676e:	0701                	.insn	2, 0x0701
    6770:	0000                	.insn	2, 0x
    6772:	0000                	.insn	2, 0x
    6774:	0000                	.insn	2, 0x
    6776:	0700                	.insn	2, 0x0700
    6778:	0401                	.insn	2, 0x0401
    677a:	0109                	.insn	2, 0x0109
    677c:	0002                	.insn	2, 0x0002
    677e:	0000                	.insn	2, 0x
    6780:	0000                	.insn	2, 0x
    6782:	0300                	.insn	2, 0x0300
    6784:	0102                	.insn	2, 0x0102
    6786:	050c                	.insn	2, 0x050c
    6788:	0101                	.insn	2, 0x0101
    678a:	0b02                	.insn	2, 0x0b02
    678c:	0000                	.insn	2, 0x
    678e:	01020703          	lb	a4,16(tp) # 10 <_isr_routine+0x8>
    6792:	0302                	.insn	2, 0x0302
    6794:	0600                	.insn	2, 0x0600
    6796:	0102                	.insn	2, 0x0102
    6798:	0101                	.insn	2, 0x0101
    679a:	0101                	.insn	2, 0x0101
    679c:	0101                	.insn	2, 0x0101
    679e:	0502                	.insn	2, 0x0502
    67a0:	0000                	.insn	2, 0x
    67a2:	0300                	.insn	2, 0x0300
    67a4:	0408                	.insn	2, 0x0408
    67a6:	0101                	.insn	2, 0x0101
    67a8:	0a02                	.insn	2, 0x0a02
    67aa:	00000007          	.insn	4, 0x0007
    67ae:	0000                	.insn	2, 0x
    67b0:	0a00                	.insn	2, 0x0a00
    67b2:	01010203          	lb	tp,16(sp)
    67b6:	0302                	.insn	2, 0x0302
    67b8:	0004                	.insn	2, 0x0004
    67ba:	0000                	.insn	2, 0x
    67bc:	0000                	.insn	2, 0x
    67be:	0109                	.insn	2, 0x0109
    67c0:	0101                	.insn	2, 0x0101
    67c2:	0101                	.insn	2, 0x0101
    67c4:	0101                	.insn	2, 0x0101
    67c6:	0301                	.insn	2, 0x0301
    67c8:	0000                	.insn	2, 0x
    67ca:	0600                	.insn	2, 0x0600
    67cc:	0101                	.insn	2, 0x0101
    67ce:	00000007          	.insn	4, 0x0007
    67d2:	0904                	.insn	2, 0x0904
    67d4:	0101                	.insn	2, 0x0101
    67d6:	0005                	.insn	2, 0x0005
    67d8:	0108                	.insn	2, 0x0108
    67da:	0401                	.insn	2, 0x0401
    67dc:	0000                	.insn	2, 0x
    67de:	0000                	.insn	2, 0x
    67e0:	0000                	.insn	2, 0x
    67e2:	04010103          	lb	sp,64(sp)
    67e6:	0106                	.insn	2, 0x0106
    67e8:	0009                	.insn	2, 0x0009
    67ea:	0000                	.insn	2, 0x
    67ec:	0000                	.insn	2, 0x
    67ee:	0000                	.insn	2, 0x
    67f0:	0200                	.insn	2, 0x0200
    67f2:	0301                	.insn	2, 0x0301
    67f4:	0102                	.insn	2, 0x0102
    67f6:	00000007          	.insn	4, 0x0007
    67fa:	0000                	.insn	2, 0x
    67fc:	0000                	.insn	2, 0x
    67fe:	0300                	.insn	2, 0x0300
    6800:	0b01                	.insn	2, 0x0b01
    6802:	0101                	.insn	2, 0x0101
    6804:	00000007          	.insn	4, 0x0007
    6808:	0000                	.insn	2, 0x
    680a:	0000                	.insn	2, 0x
    680c:	0700                	.insn	2, 0x0700
    680e:	0101                	.insn	2, 0x0101
    6810:	0102                	.insn	2, 0x0102
    6812:	00000003          	lb	zero,0(zero) # 0 <_isr_handler>
    6816:	0000                	.insn	2, 0x
    6818:	0000                	.insn	2, 0x
    681a:	0a00                	.insn	2, 0x0a00
    681c:	0101                	.insn	2, 0x0101
    681e:	00020103          	lb	sp,0(tp) # 0 <_isr_handler>
    6822:	0000                	.insn	2, 0x
    6824:	0000                	.insn	2, 0x
    6826:	0000                	.insn	2, 0x
    6828:	0800                	.insn	2, 0x0800
    682a:	0201                	.insn	2, 0x0201
    682c:	010c                	.insn	2, 0x010c
    682e:	0601                	.insn	2, 0x0601
    6830:	000c                	.insn	2, 0x000c
    6832:	0000                	.insn	2, 0x
    6834:	0000                	.insn	2, 0x
    6836:	0b010107          	.insn	4, 0x0b010107
    683a:	0800                	.insn	2, 0x0800
    683c:	0101                	.insn	2, 0x0101
    683e:	0b01                	.insn	2, 0x0b01
    6840:	0309                	.insn	2, 0x0309
    6842:	0106                	.insn	2, 0x0106
    6844:	0201                	.insn	2, 0x0201
    6846:	0601                	.insn	2, 0x0601
    6848:	0000                	.insn	2, 0x
    684a:	0604                	.insn	2, 0x0604
    684c:	0101                	.insn	2, 0x0101
    684e:	0101                	.insn	2, 0x0101
    6850:	0201                	.insn	2, 0x0201
    6852:	05010907          	.insn	4, 0x05010907
    6856:	0000                	.insn	2, 0x
    6858:	0000                	.insn	2, 0x
    685a:	0a00                	.insn	2, 0x0a00
    685c:	0a08                	.insn	2, 0x0a08
    685e:	0004                	.insn	2, 0x0004
    6860:	0200                	.insn	2, 0x0200
    6862:	0a01                	.insn	2, 0x0a01
	...
    686c:	0000                	.insn	2, 0x
    686e:	0108                	.insn	2, 0x0108
    6870:	0002                	.insn	2, 0x0002
	...
    687a:	0000                	.insn	2, 0x
    687c:	0005010b          	.insn	4, 0x0005010b
	...
    6888:	0500                	.insn	2, 0x0500
    688a:	0201                	.insn	2, 0x0201
    688c:	000c                	.insn	2, 0x000c
	...
    6896:	08010107          	.insn	4, 0x08010107
	...
    68a2:	0300                	.insn	2, 0x0300
    68a4:	0101                	.insn	2, 0x0101
    68a6:	0005                	.insn	2, 0x0005
    68a8:	0000                	.insn	2, 0x
    68aa:	0000                	.insn	2, 0x
    68ac:	0000                	.insn	2, 0x
    68ae:	0504                	.insn	2, 0x0504
    68b0:	0102                	.insn	2, 0x0102
    68b2:	0501                	.insn	2, 0x0501
    68b4:	0000                	.insn	2, 0x
    68b6:	0000                	.insn	2, 0x
    68b8:	0000                	.insn	2, 0x
    68ba:	0104                	.insn	2, 0x0104
    68bc:	0101                	.insn	2, 0x0101
    68be:	0601                	.insn	2, 0x0601
    68c0:	0004                	.insn	2, 0x0004
    68c2:	0000                	.insn	2, 0x
    68c4:	0000                	.insn	2, 0x
    68c6:	0000                	.insn	2, 0x
    68c8:	0200                	.insn	2, 0x0200
    68ca:	0506                	.insn	2, 0x0506
    68cc:	0004                	.insn	2, 0x0004
	...
    68d6:	0400                	.insn	2, 0x0400
    68d8:	0308                	.insn	2, 0x0308
    68da:	0101                	.insn	2, 0x0101
    68dc:	00040b03          	lb	s6,0(s0)
    68e0:	0000                	.insn	2, 0x
    68e2:	0000                	.insn	2, 0x
    68e4:	0209                	.insn	2, 0x0209
    68e6:	0101                	.insn	2, 0x0101
    68e8:	0101                	.insn	2, 0x0101
    68ea:	0101                	.insn	2, 0x0101
    68ec:	0a01                	.insn	2, 0x0a01
    68ee:	0000                	.insn	2, 0x
    68f0:	0400                	.insn	2, 0x0400
    68f2:	0102                	.insn	2, 0x0102
    68f4:	090c                	.insn	2, 0x090c
    68f6:	0000                	.insn	2, 0x
    68f8:	0306                	.insn	2, 0x0306
    68fa:	0101                	.insn	2, 0x0101
    68fc:	0006                	.insn	2, 0x0006
    68fe:	0700                	.insn	2, 0x0700
    6900:	0301                	.insn	2, 0x0301
    6902:	0000                	.insn	2, 0x
    6904:	0000                	.insn	2, 0x
    6906:	0000                	.insn	2, 0x
    6908:	00030103          	lb	sp,0(t1)
    690c:	0104                	.insn	2, 0x0104
    690e:	0601                	.insn	2, 0x0601
    6910:	0000                	.insn	2, 0x
    6912:	0000                	.insn	2, 0x
    6914:	0000                	.insn	2, 0x
    6916:	010a                	.insn	2, 0x010a
    6918:	0901                	.insn	2, 0x0901
    691a:	0105                	.insn	2, 0x0105
    691c:	0002                	.insn	2, 0x0002
    691e:	0000                	.insn	2, 0x
    6920:	0000                	.insn	2, 0x
    6922:	0000                	.insn	2, 0x
    6924:	0109                	.insn	2, 0x0109
    6926:	0801                	.insn	2, 0x0801
    6928:	00070107          	.insn	4, 0x00070107
    692c:	0000                	.insn	2, 0x
    692e:	0000                	.insn	2, 0x
    6930:	0600                	.insn	2, 0x0600
    6932:	0101                	.insn	2, 0x0101
    6934:	0701                	.insn	2, 0x0701
    6936:	000b0103          	lb	sp,0(s6)
    693a:	0000                	.insn	2, 0x
    693c:	0000                	.insn	2, 0x
    693e:	0106                	.insn	2, 0x0106
    6940:	0201                	.insn	2, 0x0201
    6942:	0301                	.insn	2, 0x0301
    6944:	0102                	.insn	2, 0x0102
    6946:	0008                	.insn	2, 0x0008
    6948:	0000                	.insn	2, 0x
    694a:	0a00                	.insn	2, 0x0a00
    694c:	0101                	.insn	2, 0x0101
    694e:	0508                	.insn	2, 0x0508
    6950:	0201                	.insn	2, 0x0201
    6952:	0101                	.insn	2, 0x0101
    6954:	0005                	.insn	2, 0x0005
    6956:	0000                	.insn	2, 0x
    6958:	0105                	.insn	2, 0x0105
    695a:	0501                	.insn	2, 0x0501
    695c:	0500                	.insn	2, 0x0500
    695e:	0101                	.insn	2, 0x0101
    6960:	0101                	.insn	2, 0x0101
    6962:	000a                	.insn	2, 0x000a
    6964:	0800                	.insn	2, 0x0800
    6966:	0101                	.insn	2, 0x0101
    6968:	000a                	.insn	2, 0x000a
    696a:	0a00                	.insn	2, 0x0a00
    696c:	0101                	.insn	2, 0x0101
    696e:	0101                	.insn	2, 0x0101
    6970:	0005                	.insn	2, 0x0005
    6972:	0601010b          	.insn	4, 0x0601010b
    6976:	0000                	.insn	2, 0x
    6978:	0a00                	.insn	2, 0x0a00
    697a:	0101                	.insn	2, 0x0101
    697c:	0102                	.insn	2, 0x0102
    697e:	0708                	.insn	2, 0x0708
    6980:	0201                	.insn	2, 0x0201
    6982:	0009                	.insn	2, 0x0009
    6984:	0000                	.insn	2, 0x
    6986:	0500                	.insn	2, 0x0500
    6988:	0201                	.insn	2, 0x0201
    698a:	01010103          	lb	sp,16(sp)
    698e:	0902                	.insn	2, 0x0902
    6990:	0000                	.insn	2, 0x
    6992:	0000                	.insn	2, 0x
    6994:	0800                	.insn	2, 0x0800
    6996:	0301                	.insn	2, 0x0301
    6998:	03010107          	.insn	4, 0x03010107
    699c:	0004                	.insn	2, 0x0004
    699e:	0000                	.insn	2, 0x
    69a0:	0000                	.insn	2, 0x
    69a2:	0700                	.insn	2, 0x0700
    69a4:	0701                	.insn	2, 0x0701
    69a6:	0105                	.insn	2, 0x0105
    69a8:	0401                	.insn	2, 0x0401
    69aa:	0000                	.insn	2, 0x
    69ac:	0000                	.insn	2, 0x
    69ae:	0000                	.insn	2, 0x
    69b0:	0200                	.insn	2, 0x0200
    69b2:	0501                	.insn	2, 0x0501
    69b4:	0104                	.insn	2, 0x0104
    69b6:	0501                	.insn	2, 0x0501
    69b8:	0000                	.insn	2, 0x
    69ba:	0000                	.insn	2, 0x
    69bc:	0000                	.insn	2, 0x
    69be:	0106                	.insn	2, 0x0106
    69c0:	0401                	.insn	2, 0x0401
    69c2:	0700                	.insn	2, 0x0700
    69c4:	0201                	.insn	2, 0x0201
    69c6:	0004                	.insn	2, 0x0004
    69c8:	0000                	.insn	2, 0x
    69ca:	0000                	.insn	2, 0x
    69cc:	00070103          	lb	sp,0(a4)
    69d0:	0400                	.insn	2, 0x0400
    69d2:	0101                	.insn	2, 0x0101
    69d4:	00000603          	lb	a2,0(zero) # 0 <_isr_handler>
    69d8:	0c09                	.insn	2, 0x0c09
    69da:	0201                	.insn	2, 0x0201
    69dc:	0004                	.insn	2, 0x0004
    69de:	0000                	.insn	2, 0x
    69e0:	0206                	.insn	2, 0x0206
    69e2:	0101                	.insn	2, 0x0101
    69e4:	0101                	.insn	2, 0x0101
    69e6:	0101                	.insn	2, 0x0101
    69e8:	0602                	.insn	2, 0x0602
    69ea:	0000                	.insn	2, 0x
    69ec:	0000                	.insn	2, 0x
    69ee:	0400                	.insn	2, 0x0400
    69f0:	0308                	.insn	2, 0x0308
    69f2:	0101                	.insn	2, 0x0101
    69f4:	00040803          	lb	a6,0(s0)
    69f8:	0000                	.insn	2, 0x
	...

000069fc <image_data>:
    69fc:	0000                	.insn	2, 0x
    69fe:	0000                	.insn	2, 0x
    6a00:	0600                	.insn	2, 0x0600
    6a02:	03030303          	lb	t1,48(t1)
    6a06:	00000303          	lb	t1,0(zero) # 0 <_isr_handler>
    6a0a:	0000                	.insn	2, 0x
    6a0c:	0300                	.insn	2, 0x0300
    6a0e:	03030303          	lb	t1,48(t1)
    6a12:	00000003          	lb	zero,0(zero) # 0 <_isr_handler>
    6a16:	0400                	.insn	2, 0x0400
    6a18:	03030303          	lb	t1,48(t1)
    6a1c:	0006                	.insn	2, 0x0006
    6a1e:	0000                	.insn	2, 0x
    6a20:	0000                	.insn	2, 0x
    6a22:	0400                	.insn	2, 0x0400
    6a24:	03030303          	lb	t1,48(t1)
    6a28:	00000403          	lb	s0,0(zero) # 0 <_isr_handler>
    6a2c:	0000                	.insn	2, 0x
    6a2e:	0000                	.insn	2, 0x
    6a30:	0306                	.insn	2, 0x0306
    6a32:	06030303          	lb	t1,96(t1)
    6a36:	0000                	.insn	2, 0x
    6a38:	0000                	.insn	2, 0x
    6a3a:	03030303          	lb	t1,48(t1)
    6a3e:	03030303          	lb	t1,48(t1)
    6a42:	03030303          	lb	t1,48(t1)
    6a46:	03030303          	lb	t1,48(t1)
    6a4a:	03030303          	lb	t1,48(t1)
	...
    6a5a:	0000                	.insn	2, 0x
    6a5c:	0306                	.insn	2, 0x0306
    6a5e:	03030303          	lb	t1,48(t1)
    6a62:	00000603          	lb	a2,0(zero) # 0 <_isr_handler>
    6a66:	0000                	.insn	2, 0x
    6a68:	0000                	.insn	2, 0x
    6a6a:	0000                	.insn	2, 0x
    6a6c:	0600                	.insn	2, 0x0600
    6a6e:	03030303          	lb	t1,48(t1)
    6a72:	00000003          	lb	zero,0(zero) # 0 <_isr_handler>
    6a76:	0000                	.insn	2, 0x
    6a78:	0000                	.insn	2, 0x
    6a7a:	03030303          	lb	t1,48(t1)
    6a7e:	00000303          	lb	t1,0(zero) # 0 <_isr_handler>
    6a82:	0000                	.insn	2, 0x
    6a84:	0000                	.insn	2, 0x
    6a86:	03030303          	lb	t1,48(t1)
    6a8a:	00000303          	lb	t1,0(zero) # 0 <_isr_handler>
    6a8e:	0304                	.insn	2, 0x0304
    6a90:	03030303          	lb	t1,48(t1)
    6a94:	03030303          	lb	t1,48(t1)
    6a98:	04030303          	lb	t1,64(t1)
    6a9c:	0000                	.insn	2, 0x
    6a9e:	0000                	.insn	2, 0x
    6aa0:	0306                	.insn	2, 0x0306
    6aa2:	0c09                	.insn	2, 0x0c09
    6aa4:	0c21                	.insn	2, 0x0c21
    6aa6:	0309                	.insn	2, 0x0309
    6aa8:	00000403          	lb	s0,0(zero) # 0 <_isr_handler>
    6aac:	0300                	.insn	2, 0x0300
    6aae:	03030303          	lb	t1,48(t1)
    6ab2:	00000003          	lb	zero,0(zero) # 0 <_isr_handler>
    6ab6:	0400                	.insn	2, 0x0400
    6ab8:	03030303          	lb	t1,48(t1)
    6abc:	0006                	.insn	2, 0x0006
    6abe:	0000                	.insn	2, 0x
    6ac0:	0000                	.insn	2, 0x
    6ac2:	0600                	.insn	2, 0x0600
    6ac4:	03030303          	lb	t1,48(t1)
    6ac8:	00000403          	lb	s0,0(zero) # 0 <_isr_handler>
    6acc:	0000                	.insn	2, 0x
    6ace:	0000                	.insn	2, 0x
    6ad0:	0306                	.insn	2, 0x0306
    6ad2:	06030303          	lb	t1,96(t1)
    6ad6:	0000                	.insn	2, 0x
    6ad8:	0000                	.insn	2, 0x
    6ada:	03030303          	lb	t1,48(t1)
    6ade:	03060303          	lb	t1,48(a2)
    6ae2:	03030303          	lb	t1,48(t1)
    6ae6:	03030303          	lb	t1,48(t1)
    6aea:	03030303          	lb	t1,48(t1)
	...
    6afa:	0400                	.insn	2, 0x0400
    6afc:	0b0c0e03          	lb	t3,176(s8)
    6b00:	030e0c0b          	.insn	4, 0x030e0c0b
    6b04:	0006                	.insn	2, 0x0006
    6b06:	0000                	.insn	2, 0x
    6b08:	0000                	.insn	2, 0x
    6b0a:	0000                	.insn	2, 0x
    6b0c:	0300                	.insn	2, 0x0300
    6b0e:	03030303          	lb	t1,48(t1)
    6b12:	00000003          	lb	zero,0(zero) # 0 <_isr_handler>
    6b16:	0000                	.insn	2, 0x
    6b18:	0000                	.insn	2, 0x
    6b1a:	03030303          	lb	t1,48(t1)
    6b1e:	00000303          	lb	t1,0(zero) # 0 <_isr_handler>
    6b22:	0000                	.insn	2, 0x
    6b24:	0000                	.insn	2, 0x
    6b26:	03030303          	lb	t1,48(t1)
    6b2a:	00000303          	lb	t1,0(zero) # 0 <_isr_handler>
    6b2e:	0304                	.insn	2, 0x0304
    6b30:	03030303          	lb	t1,48(t1)
    6b34:	03030303          	lb	t1,48(t1)
    6b38:	04030303          	lb	t1,64(t1)
    6b3c:	0000                	.insn	2, 0x
    6b3e:	0400                	.insn	2, 0x0400
    6b40:	02020703          	lb	a4,32(tp) # 20 <_isr_routine+0x18>
    6b44:	0202                	.insn	2, 0x0202
    6b46:	0b02                	.insn	2, 0x0b02
    6b48:	030e                	.insn	2, 0x030e
    6b4a:	0000                	.insn	2, 0x
    6b4c:	0700                	.insn	2, 0x0700
    6b4e:	0a0a                	.insn	2, 0x0a0a
    6b50:	0a0a                	.insn	2, 0x0a0a
    6b52:	00000407          	.insn	4, 0x0407
    6b56:	0400                	.insn	2, 0x0400
    6b58:	0a0c                	.insn	2, 0x0a0c
    6b5a:	0a0a                	.insn	2, 0x0a0a
    6b5c:	0006                	.insn	2, 0x0006
    6b5e:	0000                	.insn	2, 0x
    6b60:	0000                	.insn	2, 0x
    6b62:	0600                	.insn	2, 0x0600
    6b64:	0a0a0a0b          	.insn	4, 0x0a0a0a0b
    6b68:	0000060b          	.insn	4, 0x060b
    6b6c:	0000                	.insn	2, 0x
    6b6e:	0000                	.insn	2, 0x
    6b70:	0a0a0a03          	lb	s4,160(s4)
    6b74:	030a                	.insn	2, 0x030a
    6b76:	0000                	.insn	2, 0x
    6b78:	0400                	.insn	2, 0x0400
    6b7a:	0a0a0a07          	.insn	4, 0x0a0a0a07
    6b7e:	090a                	.insn	2, 0x090a
    6b80:	0900                	.insn	2, 0x0900
    6b82:	0a0a                	.insn	2, 0x0a0a
    6b84:	0a0a                	.insn	2, 0x0a0a
    6b86:	0a0a                	.insn	2, 0x0a0a
    6b88:	0a0a                	.insn	2, 0x0a0a
    6b8a:	0a0a                	.insn	2, 0x0a0a
    6b8c:	0e0a                	.insn	2, 0x0e0a
	...
    6b9a:	0300                	.insn	2, 0x0300
    6b9c:	0209                	.insn	2, 0x0209
    6b9e:	0202                	.insn	2, 0x0202
    6ba0:	0202                	.insn	2, 0x0202
    6ba2:	0902                	.insn	2, 0x0902
    6ba4:	00000403          	lb	s0,0(zero) # 0 <_isr_handler>
    6ba8:	0000                	.insn	2, 0x
    6baa:	0000                	.insn	2, 0x
    6bac:	0e00                	.insn	2, 0x0e00
    6bae:	0a0a                	.insn	2, 0x0a0a
    6bb0:	0a0a                	.insn	2, 0x0a0a
    6bb2:	00000407          	.insn	4, 0x0407
    6bb6:	0000                	.insn	2, 0x
    6bb8:	0000                	.insn	2, 0x
    6bba:	0a09                	.insn	2, 0x0a09
    6bbc:	0a0a                	.insn	2, 0x0a0a
    6bbe:	070a                	.insn	2, 0x070a
    6bc0:	0000                	.insn	2, 0x
    6bc2:	0000                	.insn	2, 0x
    6bc4:	0400                	.insn	2, 0x0400
    6bc6:	0a0a0a07          	.insn	4, 0x0a0a0a07
    6bca:	090a                	.insn	2, 0x090a
    6bcc:	0000                	.insn	2, 0x
    6bce:	0c04                	.insn	2, 0x0c04
    6bd0:	0a0a                	.insn	2, 0x0a0a
    6bd2:	0a0a                	.insn	2, 0x0a0a
    6bd4:	0a0a                	.insn	2, 0x0a0a
    6bd6:	0a0a                	.insn	2, 0x0a0a
    6bd8:	0a0a                	.insn	2, 0x0a0a
    6bda:	040c                	.insn	2, 0x040c
    6bdc:	0000                	.insn	2, 0x
    6bde:	0300                	.insn	2, 0x0300
    6be0:	02020207          	.insn	4, 0x02020207
    6be4:	0208                	.insn	2, 0x0208
    6be6:	0202                	.insn	2, 0x0202
    6be8:	0e0a                	.insn	2, 0x0e0a
    6bea:	07000003          	lb	zero,112(zero) # 70 <_isr_routine+0x68>
    6bee:	0202                	.insn	2, 0x0202
    6bf0:	0202                	.insn	2, 0x0202
    6bf2:	0000060b          	.insn	4, 0x060b
    6bf6:	0400                	.insn	2, 0x0400
    6bf8:	0202020b          	.insn	4, 0x0202020b
    6bfc:	0006                	.insn	2, 0x0006
    6bfe:	0000                	.insn	2, 0x
    6c00:	0000                	.insn	2, 0x
    6c02:	0300                	.insn	2, 0x0300
    6c04:	0202                	.insn	2, 0x0202
    6c06:	0202                	.insn	2, 0x0202
    6c08:	0602                	.insn	2, 0x0602
    6c0a:	0000                	.insn	2, 0x
    6c0c:	0000                	.insn	2, 0x
    6c0e:	0000                	.insn	2, 0x
    6c10:	02020203          	lb	tp,32(tp) # 20 <_isr_routine+0x18>
    6c14:	0302                	.insn	2, 0x0302
    6c16:	0000                	.insn	2, 0x
    6c18:	0400                	.insn	2, 0x0400
    6c1a:	0221                	.insn	2, 0x0221
    6c1c:	0202                	.insn	2, 0x0202
    6c1e:	0e02                	.insn	2, 0x0e02
    6c20:	0900                	.insn	2, 0x0900
    6c22:	0202                	.insn	2, 0x0202
    6c24:	0202                	.insn	2, 0x0202
    6c26:	0202                	.insn	2, 0x0202
    6c28:	0202                	.insn	2, 0x0202
    6c2a:	0202                	.insn	2, 0x0202
    6c2c:	0e02                	.insn	2, 0x0e02
	...
    6c3a:	0906                	.insn	2, 0x0906
    6c3c:	0202                	.insn	2, 0x0202
    6c3e:	0802                	.insn	2, 0x0802
    6c40:	0208                	.insn	2, 0x0208
    6c42:	0202                	.insn	2, 0x0202
    6c44:	00000307          	.insn	4, 0x0307
    6c48:	0000                	.insn	2, 0x
    6c4a:	0000                	.insn	2, 0x
    6c4c:	0700                	.insn	2, 0x0700
    6c4e:	0202                	.insn	2, 0x0202
    6c50:	0202                	.insn	2, 0x0202
    6c52:	0000040b          	.insn	4, 0x040b
    6c56:	0000                	.insn	2, 0x
    6c58:	0000                	.insn	2, 0x
    6c5a:	02020207          	.insn	4, 0x02020207
    6c5e:	0c02                	.insn	2, 0x0c02
    6c60:	0004                	.insn	2, 0x0004
    6c62:	0000                	.insn	2, 0x
    6c64:	0400                	.insn	2, 0x0400
    6c66:	0202020b          	.insn	4, 0x0202020b
    6c6a:	0902                	.insn	2, 0x0902
    6c6c:	0000                	.insn	2, 0x
    6c6e:	0b04                	.insn	2, 0x0b04
    6c70:	0202                	.insn	2, 0x0202
    6c72:	0202                	.insn	2, 0x0202
    6c74:	0202                	.insn	2, 0x0202
    6c76:	0202                	.insn	2, 0x0202
    6c78:	0202                	.insn	2, 0x0202
    6c7a:	0000040b          	.insn	4, 0x040b
    6c7e:	0e04                	.insn	2, 0x0e04
    6c80:	020a                	.insn	2, 0x020a
    6c82:	0101                	.insn	2, 0x0101
    6c84:	0101                	.insn	2, 0x0101
    6c86:	0201                	.insn	2, 0x0201
    6c88:	0a02                	.insn	2, 0x0a02
    6c8a:	07000003          	lb	zero,112(zero) # 70 <_isr_routine+0x68>
    6c8e:	0802                	.insn	2, 0x0802
    6c90:	0808                	.insn	2, 0x0808
    6c92:	060a                	.insn	2, 0x060a
    6c94:	0000                	.insn	2, 0x
    6c96:	0400                	.insn	2, 0x0400
    6c98:	0208080b          	.insn	4, 0x0208080b
    6c9c:	0006                	.insn	2, 0x0006
    6c9e:	0000                	.insn	2, 0x
    6ca0:	0000                	.insn	2, 0x
    6ca2:	0e00                	.insn	2, 0x0e00
    6ca4:	0802                	.insn	2, 0x0802
    6ca6:	0808                	.insn	2, 0x0808
    6ca8:	0302                	.insn	2, 0x0302
    6caa:	0000                	.insn	2, 0x
    6cac:	0000                	.insn	2, 0x
    6cae:	0000                	.insn	2, 0x
    6cb0:	08080203          	lb	tp,128(a6)
    6cb4:	0302                	.insn	2, 0x0302
    6cb6:	0000                	.insn	2, 0x
    6cb8:	0600                	.insn	2, 0x0600
    6cba:	080a                	.insn	2, 0x080a
    6cbc:	0808                	.insn	2, 0x0808
    6cbe:	060a                	.insn	2, 0x060a
    6cc0:	0900                	.insn	2, 0x0900
    6cc2:	0802                	.insn	2, 0x0802
    6cc4:	0808                	.insn	2, 0x0808
    6cc6:	0808                	.insn	2, 0x0808
    6cc8:	0808                	.insn	2, 0x0808
    6cca:	0808                	.insn	2, 0x0808
    6ccc:	0e02                	.insn	2, 0x0e02
	...
    6cda:	01020a03          	lb	s4,16(tp) # 10 <_isr_routine+0x8>
    6cde:	0101                	.insn	2, 0x0101
    6ce0:	0101                	.insn	2, 0x0101
    6ce2:	0201                	.insn	2, 0x0201
    6ce4:	0e02                	.insn	2, 0x0e02
    6ce6:	0006                	.insn	2, 0x0006
    6ce8:	0000                	.insn	2, 0x
    6cea:	0000                	.insn	2, 0x
    6cec:	0700                	.insn	2, 0x0700
    6cee:	0802                	.insn	2, 0x0802
    6cf0:	0808                	.insn	2, 0x0808
    6cf2:	060a                	.insn	2, 0x060a
    6cf4:	0000                	.insn	2, 0x
    6cf6:	0000                	.insn	2, 0x
    6cf8:	0000                	.insn	2, 0x
    6cfa:	08080207          	.insn	4, 0x08080207
    6cfe:	0b08                	.insn	2, 0x0b08
    6d00:	0004                	.insn	2, 0x0004
    6d02:	0000                	.insn	2, 0x
    6d04:	0600                	.insn	2, 0x0600
    6d06:	080a                	.insn	2, 0x080a
    6d08:	0808                	.insn	2, 0x0808
    6d0a:	0902                	.insn	2, 0x0902
    6d0c:	0000                	.insn	2, 0x
    6d0e:	0b04                	.insn	2, 0x0b04
    6d10:	0808                	.insn	2, 0x0808
    6d12:	0808                	.insn	2, 0x0808
    6d14:	0808                	.insn	2, 0x0808
    6d16:	0808                	.insn	2, 0x0808
    6d18:	0808                	.insn	2, 0x0808
    6d1a:	0000040b          	.insn	4, 0x040b
    6d1e:	0c06                	.insn	2, 0x0c06
    6d20:	0102                	.insn	2, 0x0102
    6d22:	0101                	.insn	2, 0x0101
    6d24:	0101                	.insn	2, 0x0101
    6d26:	0101                	.insn	2, 0x0101
    6d28:	020d                	.insn	2, 0x020d
    6d2a:	000e                	.insn	2, 0x000e
    6d2c:	0700                	.insn	2, 0x0700
    6d2e:	0101                	.insn	2, 0x0101
    6d30:	0101                	.insn	2, 0x0101
    6d32:	0e02                	.insn	2, 0x0e02
    6d34:	0000                	.insn	2, 0x
    6d36:	0400                	.insn	2, 0x0400
    6d38:	0201010b          	.insn	4, 0x0201010b
    6d3c:	0006                	.insn	2, 0x0006
    6d3e:	0000                	.insn	2, 0x
    6d40:	0000                	.insn	2, 0x
    6d42:	0900                	.insn	2, 0x0900
    6d44:	0108                	.insn	2, 0x0108
    6d46:	0101                	.insn	2, 0x0101
    6d48:	0e08                	.insn	2, 0x0e08
    6d4a:	0000                	.insn	2, 0x
    6d4c:	0000                	.insn	2, 0x
    6d4e:	0000                	.insn	2, 0x
    6d50:	01010203          	lb	tp,16(sp)
    6d54:	0302                	.insn	2, 0x0302
    6d56:	0000                	.insn	2, 0x
    6d58:	0e00                	.insn	2, 0x0e00
    6d5a:	0102                	.insn	2, 0x0102
    6d5c:	0d01                	.insn	2, 0x0d01
    6d5e:	040c                	.insn	2, 0x040c
    6d60:	0900                	.insn	2, 0x0900
    6d62:	0108                	.insn	2, 0x0108
    6d64:	0101                	.insn	2, 0x0101
    6d66:	0101                	.insn	2, 0x0101
    6d68:	0101                	.insn	2, 0x0101
    6d6a:	0101                	.insn	2, 0x0101
    6d6c:	0e08                	.insn	2, 0x0e08
	...
    6d76:	0000                	.insn	2, 0x
    6d78:	0400                	.insn	2, 0x0400
    6d7a:	01010207          	.insn	4, 0x01010207
    6d7e:	0101                	.insn	2, 0x0101
    6d80:	0101                	.insn	2, 0x0101
    6d82:	0101                	.insn	2, 0x0101
    6d84:	0a02                	.insn	2, 0x0a02
    6d86:	0006                	.insn	2, 0x0006
    6d88:	0000                	.insn	2, 0x
    6d8a:	0000                	.insn	2, 0x
    6d8c:	0c04                	.insn	2, 0x0c04
    6d8e:	0101                	.insn	2, 0x0101
    6d90:	0101                	.insn	2, 0x0101
    6d92:	060a                	.insn	2, 0x060a
    6d94:	0000                	.insn	2, 0x
    6d96:	0000                	.insn	2, 0x
    6d98:	0000                	.insn	2, 0x
    6d9a:	01010d07          	.insn	4, 0x01010d07
    6d9e:	0a01                	.insn	2, 0x0a01
    6da0:	0006                	.insn	2, 0x0006
    6da2:	0000                	.insn	2, 0x
    6da4:	0600                	.insn	2, 0x0600
    6da6:	0102                	.insn	2, 0x0102
    6da8:	0101                	.insn	2, 0x0101
    6daa:	0908                	.insn	2, 0x0908
    6dac:	0000                	.insn	2, 0x
    6dae:	0b04                	.insn	2, 0x0b04
    6db0:	0101                	.insn	2, 0x0101
    6db2:	0101                	.insn	2, 0x0101
    6db4:	0101                	.insn	2, 0x0101
    6db6:	0101                	.insn	2, 0x0101
    6db8:	0101                	.insn	2, 0x0101
    6dba:	0000040b          	.insn	4, 0x040b
    6dbe:	010d0a03          	lb	s4,16(s10)
    6dc2:	0101                	.insn	2, 0x0101
    6dc4:	0101                	.insn	2, 0x0101
    6dc6:	0101                	.insn	2, 0x0101
    6dc8:	0201                	.insn	2, 0x0201
    6dca:	000e                	.insn	2, 0x000e
    6dcc:	0700                	.insn	2, 0x0700
    6dce:	0101                	.insn	2, 0x0101
    6dd0:	0101                	.insn	2, 0x0101
    6dd2:	0908                	.insn	2, 0x0908
    6dd4:	0000                	.insn	2, 0x
    6dd6:	0400                	.insn	2, 0x0400
    6dd8:	0201010b          	.insn	4, 0x0201010b
    6ddc:	0006                	.insn	2, 0x0006
    6dde:	0000                	.insn	2, 0x
    6de0:	0000                	.insn	2, 0x
    6de2:	0700                	.insn	2, 0x0700
    6de4:	010d                	.insn	2, 0x010d
    6de6:	0101                	.insn	2, 0x0101
    6de8:	0908                	.insn	2, 0x0908
    6dea:	0000                	.insn	2, 0x
    6dec:	0000                	.insn	2, 0x
    6dee:	0000                	.insn	2, 0x
    6df0:	01010203          	lb	tp,16(sp)
    6df4:	0302                	.insn	2, 0x0302
    6df6:	0000                	.insn	2, 0x
    6df8:	0700                	.insn	2, 0x0700
    6dfa:	0108                	.insn	2, 0x0108
    6dfc:	0201                	.insn	2, 0x0201
    6dfe:	0009                	.insn	2, 0x0009
    6e00:	0900                	.insn	2, 0x0900
    6e02:	0108                	.insn	2, 0x0108
    6e04:	0101                	.insn	2, 0x0101
    6e06:	0101                	.insn	2, 0x0101
    6e08:	0101                	.insn	2, 0x0101
    6e0a:	0101                	.insn	2, 0x0101
    6e0c:	0e08                	.insn	2, 0x0e08
	...
    6e16:	0000                	.insn	2, 0x
    6e18:	0300                	.insn	2, 0x0300
    6e1a:	0101080b          	.insn	4, 0x0101080b
    6e1e:	0101                	.insn	2, 0x0101
    6e20:	0101                	.insn	2, 0x0101
    6e22:	0101                	.insn	2, 0x0101
    6e24:	0201                	.insn	2, 0x0201
    6e26:	0006                	.insn	2, 0x0006
    6e28:	0000                	.insn	2, 0x
    6e2a:	0000                	.insn	2, 0x
    6e2c:	0b04                	.insn	2, 0x0b04
    6e2e:	0101                	.insn	2, 0x0101
    6e30:	0101                	.insn	2, 0x0101
    6e32:	0302                	.insn	2, 0x0302
    6e34:	0000                	.insn	2, 0x
    6e36:	0000                	.insn	2, 0x
    6e38:	0000                	.insn	2, 0x
    6e3a:	01010d07          	.insn	4, 0x01010d07
    6e3e:	0201                	.insn	2, 0x0201
    6e40:	00000003          	lb	zero,0(zero) # 0 <_isr_handler>
    6e44:	0300                	.insn	2, 0x0300
    6e46:	0102                	.insn	2, 0x0102
    6e48:	0101                	.insn	2, 0x0101
    6e4a:	0908                	.insn	2, 0x0908
    6e4c:	0000                	.insn	2, 0x
    6e4e:	0b04                	.insn	2, 0x0b04
    6e50:	0101                	.insn	2, 0x0101
    6e52:	0101                	.insn	2, 0x0101
    6e54:	0101                	.insn	2, 0x0101
    6e56:	0101                	.insn	2, 0x0101
    6e58:	0101                	.insn	2, 0x0101
    6e5a:	0000040b          	.insn	4, 0x040b
    6e5e:	0209                	.insn	2, 0x0209
    6e60:	0101                	.insn	2, 0x0101
    6e62:	0101                	.insn	2, 0x0101
    6e64:	0101                	.insn	2, 0x0101
    6e66:	0101                	.insn	2, 0x0101
    6e68:	0801                	.insn	2, 0x0801
    6e6a:	000e                	.insn	2, 0x000e
    6e6c:	0700                	.insn	2, 0x0700
    6e6e:	0101                	.insn	2, 0x0101
    6e70:	0101                	.insn	2, 0x0101
    6e72:	0c0d                	.insn	2, 0x0c0d
    6e74:	0004                	.insn	2, 0x0004
    6e76:	0400                	.insn	2, 0x0400
    6e78:	0201010b          	.insn	4, 0x0201010b
    6e7c:	0006                	.insn	2, 0x0006
    6e7e:	0000                	.insn	2, 0x
    6e80:	0000                	.insn	2, 0x
    6e82:	0c00                	.insn	2, 0x0c00
    6e84:	0101                	.insn	2, 0x0101
    6e86:	0101                	.insn	2, 0x0101
    6e88:	070d                	.insn	2, 0x070d
    6e8a:	0000                	.insn	2, 0x
    6e8c:	0000                	.insn	2, 0x
    6e8e:	0000                	.insn	2, 0x
    6e90:	01010203          	lb	tp,16(sp)
    6e94:	0302                	.insn	2, 0x0302
    6e96:	0000                	.insn	2, 0x
    6e98:	0c04                	.insn	2, 0x0c04
    6e9a:	0101                	.insn	2, 0x0101
    6e9c:	0201                	.insn	2, 0x0201
    6e9e:	000e                	.insn	2, 0x000e
    6ea0:	0900                	.insn	2, 0x0900
    6ea2:	0108                	.insn	2, 0x0108
    6ea4:	0101                	.insn	2, 0x0101
    6ea6:	0101                	.insn	2, 0x0101
    6ea8:	0101                	.insn	2, 0x0101
    6eaa:	0101                	.insn	2, 0x0101
    6eac:	0e08                	.insn	2, 0x0e08
	...
    6eb6:	0000                	.insn	2, 0x
    6eb8:	0e00                	.insn	2, 0x0e00
    6eba:	0102                	.insn	2, 0x0102
    6ebc:	0101                	.insn	2, 0x0101
    6ebe:	0101                	.insn	2, 0x0101
    6ec0:	0101                	.insn	2, 0x0101
    6ec2:	0101                	.insn	2, 0x0101
    6ec4:	0201                	.insn	2, 0x0201
    6ec6:	0006                	.insn	2, 0x0006
    6ec8:	0000                	.insn	2, 0x
    6eca:	0000                	.insn	2, 0x
    6ecc:	0b06                	.insn	2, 0x0b06
    6ece:	0101                	.insn	2, 0x0101
    6ed0:	0101                	.insn	2, 0x0101
    6ed2:	0e02                	.insn	2, 0x0e02
    6ed4:	0000                	.insn	2, 0x
    6ed6:	0000                	.insn	2, 0x
    6ed8:	0000                	.insn	2, 0x
    6eda:	01010d07          	.insn	4, 0x01010d07
    6ede:	0201                	.insn	2, 0x0201
    6ee0:	000e                	.insn	2, 0x000e
    6ee2:	0000                	.insn	2, 0x
    6ee4:	0900                	.insn	2, 0x0900
    6ee6:	0108                	.insn	2, 0x0108
    6ee8:	0101                	.insn	2, 0x0101
    6eea:	0908                	.insn	2, 0x0908
    6eec:	0000                	.insn	2, 0x
    6eee:	0b04                	.insn	2, 0x0b04
    6ef0:	0101                	.insn	2, 0x0101
    6ef2:	0101                	.insn	2, 0x0101
    6ef4:	0101                	.insn	2, 0x0101
    6ef6:	0101                	.insn	2, 0x0101
    6ef8:	0101                	.insn	2, 0x0101
    6efa:	0400040b          	.insn	4, 0x0400040b
    6efe:	0d0c                	.insn	2, 0x0d0c
    6f00:	0101                	.insn	2, 0x0101
    6f02:	0101                	.insn	2, 0x0101
    6f04:	0108                	.insn	2, 0x0108
    6f06:	0101                	.insn	2, 0x0101
    6f08:	0801                	.insn	2, 0x0801
    6f0a:	000e                	.insn	2, 0x000e
    6f0c:	0700                	.insn	2, 0x0700
    6f0e:	0101                	.insn	2, 0x0101
    6f10:	0101                	.insn	2, 0x0101
    6f12:	0b01                	.insn	2, 0x0b01
    6f14:	0006                	.insn	2, 0x0006
    6f16:	0400                	.insn	2, 0x0400
    6f18:	0201010b          	.insn	4, 0x0201010b
    6f1c:	0006                	.insn	2, 0x0006
    6f1e:	0000                	.insn	2, 0x
    6f20:	0000                	.insn	2, 0x
    6f22:	0c04                	.insn	2, 0x0c04
    6f24:	0101                	.insn	2, 0x0101
    6f26:	0101                	.insn	2, 0x0101
    6f28:	0c01                	.insn	2, 0x0c01
    6f2a:	0004                	.insn	2, 0x0004
    6f2c:	0000                	.insn	2, 0x
    6f2e:	0000                	.insn	2, 0x
    6f30:	01010203          	lb	tp,16(sp)
    6f34:	0302                	.insn	2, 0x0302
    6f36:	0000                	.insn	2, 0x
    6f38:	0a06                	.insn	2, 0x0a06
    6f3a:	0101                	.insn	2, 0x0101
    6f3c:	0a01                	.insn	2, 0x0a01
    6f3e:	0006                	.insn	2, 0x0006
    6f40:	0900                	.insn	2, 0x0900
    6f42:	0108                	.insn	2, 0x0108
    6f44:	0101                	.insn	2, 0x0101
    6f46:	0101                	.insn	2, 0x0101
    6f48:	0101                	.insn	2, 0x0101
    6f4a:	0101                	.insn	2, 0x0101
    6f4c:	0e08                	.insn	2, 0x0e08
	...
    6f56:	0000                	.insn	2, 0x
    6f58:	0c04                	.insn	2, 0x0c04
    6f5a:	0108                	.insn	2, 0x0108
    6f5c:	0101                	.insn	2, 0x0101
    6f5e:	0101                	.insn	2, 0x0101
    6f60:	010d                	.insn	2, 0x010d
    6f62:	0101                	.insn	2, 0x0101
    6f64:	0201                	.insn	2, 0x0201
    6f66:	0006                	.insn	2, 0x0006
    6f68:	0000                	.insn	2, 0x
    6f6a:	0000                	.insn	2, 0x
    6f6c:	0a06                	.insn	2, 0x0a06
    6f6e:	0101                	.insn	2, 0x0101
    6f70:	0101                	.insn	2, 0x0101
    6f72:	0908                	.insn	2, 0x0908
    6f74:	0000                	.insn	2, 0x
    6f76:	0000                	.insn	2, 0x
    6f78:	0000                	.insn	2, 0x
    6f7a:	01010d07          	.insn	4, 0x01010d07
    6f7e:	0801                	.insn	2, 0x0801
    6f80:	0009                	.insn	2, 0x0009
    6f82:	0000                	.insn	2, 0x
    6f84:	0700                	.insn	2, 0x0700
    6f86:	010d                	.insn	2, 0x010d
    6f88:	0101                	.insn	2, 0x0101
    6f8a:	0908                	.insn	2, 0x0908
    6f8c:	0000                	.insn	2, 0x
    6f8e:	0b04                	.insn	2, 0x0b04
    6f90:	0101                	.insn	2, 0x0101
    6f92:	0101                	.insn	2, 0x0101
    6f94:	0101                	.insn	2, 0x0101
    6f96:	0101                	.insn	2, 0x0101
    6f98:	0101                	.insn	2, 0x0101
    6f9a:	0600040b          	.insn	4, 0x0600040b
    6f9e:	010a                	.insn	2, 0x010a
    6fa0:	0101                	.insn	2, 0x0101
    6fa2:	0208                	.insn	2, 0x0208
    6fa4:	0202                	.insn	2, 0x0202
    6fa6:	0102                	.insn	2, 0x0102
    6fa8:	0801                	.insn	2, 0x0801
    6faa:	000e                	.insn	2, 0x000e
    6fac:	0700                	.insn	2, 0x0700
    6fae:	0101                	.insn	2, 0x0101
    6fb0:	0101                	.insn	2, 0x0101
    6fb2:	0a01                	.insn	2, 0x0a01
    6fb4:	0006                	.insn	2, 0x0006
    6fb6:	0400                	.insn	2, 0x0400
    6fb8:	0201010b          	.insn	4, 0x0201010b
    6fbc:	0006                	.insn	2, 0x0006
    6fbe:	0000                	.insn	2, 0x
    6fc0:	0000                	.insn	2, 0x
    6fc2:	0b04                	.insn	2, 0x0b04
    6fc4:	0101                	.insn	2, 0x0101
    6fc6:	0101                	.insn	2, 0x0101
    6fc8:	2101                	.insn	2, 0x2101
    6fca:	0004                	.insn	2, 0x0004
    6fcc:	0000                	.insn	2, 0x
    6fce:	0000                	.insn	2, 0x
    6fd0:	01010203          	lb	tp,16(sp)
    6fd4:	0302                	.insn	2, 0x0302
    6fd6:	0000                	.insn	2, 0x
    6fd8:	020e                	.insn	2, 0x020e
    6fda:	0101                	.insn	2, 0x0101
    6fdc:	0c0d                	.insn	2, 0x0c0d
    6fde:	0004                	.insn	2, 0x0004
    6fe0:	0900                	.insn	2, 0x0900
    6fe2:	0108                	.insn	2, 0x0108
    6fe4:	0101                	.insn	2, 0x0101
    6fe6:	0101                	.insn	2, 0x0101
    6fe8:	0101                	.insn	2, 0x0101
    6fea:	0101                	.insn	2, 0x0101
    6fec:	0e08                	.insn	2, 0x0e08
	...
    6ff6:	0000                	.insn	2, 0x
    6ff8:	0a06                	.insn	2, 0x0a06
    6ffa:	0101                	.insn	2, 0x0101
    6ffc:	0101                	.insn	2, 0x0101
    6ffe:	0208                	.insn	2, 0x0208
    7000:	0202                	.insn	2, 0x0202
    7002:	010d                	.insn	2, 0x010d
    7004:	0201                	.insn	2, 0x0201
    7006:	0006                	.insn	2, 0x0006
    7008:	0000                	.insn	2, 0x
    700a:	0000                	.insn	2, 0x
    700c:	01010203          	lb	tp,16(sp)
    7010:	0101                	.insn	2, 0x0101
    7012:	070d                	.insn	2, 0x070d
    7014:	0000                	.insn	2, 0x
    7016:	0000                	.insn	2, 0x
    7018:	0000                	.insn	2, 0x
    701a:	01010d07          	.insn	4, 0x01010d07
    701e:	0d01                	.insn	2, 0x0d01
    7020:	00000007          	.insn	4, 0x0007
    7024:	0c00                	.insn	2, 0x0c00
    7026:	0101                	.insn	2, 0x0101
    7028:	0101                	.insn	2, 0x0101
    702a:	0908                	.insn	2, 0x0908
    702c:	0000                	.insn	2, 0x
    702e:	0b04                	.insn	2, 0x0b04
    7030:	0101                	.insn	2, 0x0101
    7032:	0101                	.insn	2, 0x0101
    7034:	0101                	.insn	2, 0x0101
    7036:	0101                	.insn	2, 0x0101
    7038:	0101                	.insn	2, 0x0101
    703a:	0300040b          	.insn	4, 0x0300040b
    703e:	0102                	.insn	2, 0x0102
    7040:	0101                	.insn	2, 0x0101
    7042:	0202                	.insn	2, 0x0202
    7044:	0a0a                	.insn	2, 0x0a0a
    7046:	0202                	.insn	2, 0x0202
    7048:	0801                	.insn	2, 0x0801
    704a:	000e                	.insn	2, 0x000e
    704c:	0700                	.insn	2, 0x0700
    704e:	0101                	.insn	2, 0x0101
    7050:	0101                	.insn	2, 0x0101
    7052:	0201                	.insn	2, 0x0201
    7054:	000e                	.insn	2, 0x000e
    7056:	0400                	.insn	2, 0x0400
    7058:	0201010b          	.insn	4, 0x0201010b
    705c:	0006                	.insn	2, 0x0006
    705e:	0000                	.insn	2, 0x
    7060:	0000                	.insn	2, 0x
    7062:	0a06                	.insn	2, 0x0a06
    7064:	0101                	.insn	2, 0x0101
    7066:	0101                	.insn	2, 0x0101
    7068:	0b01                	.insn	2, 0x0b01
    706a:	0004                	.insn	2, 0x0004
    706c:	0000                	.insn	2, 0x
    706e:	0000                	.insn	2, 0x
    7070:	01010203          	lb	tp,16(sp)
    7074:	0302                	.insn	2, 0x0302
    7076:	0000                	.insn	2, 0x
    7078:	01010807          	.insn	4, 0x01010807
    707c:	0902                	.insn	2, 0x0902
    707e:	0000                	.insn	2, 0x
    7080:	0900                	.insn	2, 0x0900
    7082:	0108                	.insn	2, 0x0108
    7084:	0201                	.insn	2, 0x0201
    7086:	0202                	.insn	2, 0x0202
    7088:	0202                	.insn	2, 0x0202
    708a:	0202                	.insn	2, 0x0202
    708c:	0e02                	.insn	2, 0x0e02
	...
    7096:	0000                	.insn	2, 0x
    7098:	020e                	.insn	2, 0x020e
    709a:	0101                	.insn	2, 0x0101
    709c:	0d01                	.insn	2, 0x0d01
    709e:	0202                	.insn	2, 0x0202
    70a0:	020a                	.insn	2, 0x020a
    70a2:	0102                	.insn	2, 0x0102
    70a4:	0201                	.insn	2, 0x0201
    70a6:	0006                	.insn	2, 0x0006
    70a8:	0000                	.insn	2, 0x
    70aa:	0000                	.insn	2, 0x
    70ac:	020e                	.insn	2, 0x020e
    70ae:	0101                	.insn	2, 0x0101
    70b0:	0101                	.insn	2, 0x0101
    70b2:	0c01                	.insn	2, 0x0c01
    70b4:	0000                	.insn	2, 0x
    70b6:	0000                	.insn	2, 0x
    70b8:	0000                	.insn	2, 0x
    70ba:	01010d07          	.insn	4, 0x01010d07
    70be:	0101                	.insn	2, 0x0101
    70c0:	040c                	.insn	2, 0x040c
    70c2:	0000                	.insn	2, 0x
    70c4:	0c04                	.insn	2, 0x0c04
    70c6:	0101                	.insn	2, 0x0101
    70c8:	0101                	.insn	2, 0x0101
    70ca:	0908                	.insn	2, 0x0908
    70cc:	0000                	.insn	2, 0x
    70ce:	0b04                	.insn	2, 0x0b04
    70d0:	0101                	.insn	2, 0x0101
    70d2:	020d                	.insn	2, 0x020d
    70d4:	0202                	.insn	2, 0x0202
    70d6:	0202                	.insn	2, 0x0202
    70d8:	0202                	.insn	2, 0x0202
    70da:	0900040b          	.insn	4, 0x0900040b
    70de:	0108                	.insn	2, 0x0108
    70e0:	0801                	.insn	2, 0x0801
    70e2:	0e0a                	.insn	2, 0x0e0a
    70e4:	020c0e03          	lb	t3,32(s8)
    70e8:	080d                	.insn	2, 0x080d
    70ea:	000e                	.insn	2, 0x000e
    70ec:	0700                	.insn	2, 0x0700
    70ee:	0101                	.insn	2, 0x0101
    70f0:	0101                	.insn	2, 0x0101
    70f2:	0801                	.insn	2, 0x0801
    70f4:	0009                	.insn	2, 0x0009
    70f6:	0400                	.insn	2, 0x0400
    70f8:	0201010b          	.insn	4, 0x0201010b
    70fc:	0006                	.insn	2, 0x0006
    70fe:	0000                	.insn	2, 0x
    7100:	0000                	.insn	2, 0x
    7102:	0206                	.insn	2, 0x0206
    7104:	0101                	.insn	2, 0x0101
    7106:	0101                	.insn	2, 0x0101
    7108:	0a01                	.insn	2, 0x0a01
    710a:	0006                	.insn	2, 0x0006
    710c:	0000                	.insn	2, 0x
    710e:	0000                	.insn	2, 0x
    7110:	01010203          	lb	tp,16(sp)
    7114:	0302                	.insn	2, 0x0302
    7116:	0400                	.insn	2, 0x0400
    7118:	0d0c                	.insn	2, 0x0d0c
    711a:	0101                	.insn	2, 0x0101
    711c:	0302                	.insn	2, 0x0302
    711e:	0000                	.insn	2, 0x
    7120:	0900                	.insn	2, 0x0900
    7122:	0108                	.insn	2, 0x0108
    7124:	0201                	.insn	2, 0x0201
    7126:	0202                	.insn	2, 0x0202
    7128:	0202                	.insn	2, 0x0202
    712a:	0202                	.insn	2, 0x0202
    712c:	0e02                	.insn	2, 0x0e02
	...
    7136:	0000                	.insn	2, 0x
    7138:	0209                	.insn	2, 0x0209
    713a:	0101                	.insn	2, 0x0101
    713c:	0201                	.insn	2, 0x0201
    713e:	09030e0b          	.insn	4, 0x09030e0b
    7142:	020a                	.insn	2, 0x020a
    7144:	0201                	.insn	2, 0x0201
    7146:	0006                	.insn	2, 0x0006
    7148:	0000                	.insn	2, 0x
    714a:	0000                	.insn	2, 0x
    714c:	0809                	.insn	2, 0x0809
    714e:	0101                	.insn	2, 0x0101
    7150:	0101                	.insn	2, 0x0101
    7152:	0c01                	.insn	2, 0x0c01
    7154:	0004                	.insn	2, 0x0004
    7156:	0000                	.insn	2, 0x
    7158:	0000                	.insn	2, 0x
    715a:	01010d07          	.insn	4, 0x01010d07
    715e:	0101                	.insn	2, 0x0101
    7160:	0000040b          	.insn	4, 0x040b
    7164:	0b06                	.insn	2, 0x0b06
    7166:	0101                	.insn	2, 0x0101
    7168:	0101                	.insn	2, 0x0101
    716a:	0908                	.insn	2, 0x0908
    716c:	0000                	.insn	2, 0x
    716e:	0b04                	.insn	2, 0x0b04
    7170:	0101                	.insn	2, 0x0101
    7172:	020d                	.insn	2, 0x020d
    7174:	0202                	.insn	2, 0x0202
    7176:	0202                	.insn	2, 0x0202
    7178:	0202                	.insn	2, 0x0202
    717a:	0700040b          	.insn	4, 0x0700040b
    717e:	010d                	.insn	2, 0x010d
    7180:	0201                	.insn	2, 0x0201
    7182:	0309                	.insn	2, 0x0309
    7184:	0c030303          	lb	t1,192(t1)
    7188:	0202                	.insn	2, 0x0202
    718a:	000e                	.insn	2, 0x000e
    718c:	0700                	.insn	2, 0x0700
    718e:	0101                	.insn	2, 0x0101
    7190:	0101                	.insn	2, 0x0101
    7192:	0d01                	.insn	2, 0x0d01
    7194:	040c                	.insn	2, 0x040c
    7196:	0400                	.insn	2, 0x0400
    7198:	0201010b          	.insn	4, 0x0201010b
    719c:	0006                	.insn	2, 0x0006
    719e:	0000                	.insn	2, 0x
    71a0:	0000                	.insn	2, 0x
    71a2:	01010203          	lb	tp,16(sp)
    71a6:	0101                	.insn	2, 0x0101
    71a8:	0201                	.insn	2, 0x0201
    71aa:	0006                	.insn	2, 0x0006
    71ac:	0000                	.insn	2, 0x
    71ae:	0000                	.insn	2, 0x
    71b0:	01010203          	lb	tp,16(sp)
    71b4:	0302                	.insn	2, 0x0302
    71b6:	0600                	.insn	2, 0x0600
    71b8:	010a                	.insn	2, 0x010a
    71ba:	0101                	.insn	2, 0x0101
    71bc:	0000060b          	.insn	4, 0x060b
    71c0:	0900                	.insn	2, 0x0900
    71c2:	0108                	.insn	2, 0x0108
    71c4:	0a01                	.insn	2, 0x0a01
    71c6:	0e0e                	.insn	2, 0x0e0e
    71c8:	0e0e                	.insn	2, 0x0e0e
    71ca:	0e0e                	.insn	2, 0x0e0e
    71cc:	030e                	.insn	2, 0x030e
	...
    71d6:	0400                	.insn	2, 0x0400
    71d8:	0d0c                	.insn	2, 0x0d0c
    71da:	0101                	.insn	2, 0x0101
    71dc:	0a01                	.insn	2, 0x0a01
    71de:	030e                	.insn	2, 0x030e
    71e0:	020e0303          	lb	t1,32(t3)
    71e4:	020d                	.insn	2, 0x020d
    71e6:	0006                	.insn	2, 0x0006
    71e8:	0000                	.insn	2, 0x
    71ea:	0000                	.insn	2, 0x
    71ec:	01010807          	.insn	4, 0x01010807
    71f0:	0101                	.insn	2, 0x0101
    71f2:	0b01                	.insn	2, 0x0b01
    71f4:	0004                	.insn	2, 0x0004
    71f6:	0000                	.insn	2, 0x
    71f8:	0000                	.insn	2, 0x
    71fa:	01010d07          	.insn	4, 0x01010d07
    71fe:	0101                	.insn	2, 0x0101
    7200:	060a                	.insn	2, 0x060a
    7202:	0000                	.insn	2, 0x
    7204:	0a06                	.insn	2, 0x0a06
    7206:	0101                	.insn	2, 0x0101
    7208:	0101                	.insn	2, 0x0101
    720a:	0908                	.insn	2, 0x0908
    720c:	0000                	.insn	2, 0x
    720e:	0b04                	.insn	2, 0x0b04
    7210:	0101                	.insn	2, 0x0101
    7212:	070d                	.insn	2, 0x070d
    7214:	0e0e                	.insn	2, 0x0e0e
    7216:	0e0e                	.insn	2, 0x0e0e
    7218:	0e0e                	.insn	2, 0x0e0e
    721a:	040e                	.insn	2, 0x040e
    721c:	0c00                	.insn	2, 0x0c00
    721e:	0101                	.insn	2, 0x0101
    7220:	0a01                	.insn	2, 0x0a01
    7222:	00000403          	lb	s0,0(zero) # 0 <_isr_handler>
    7226:	020a0e03          	lb	t3,32(s4)
    722a:	000e                	.insn	2, 0x000e
    722c:	0700                	.insn	2, 0x0700
    722e:	0101                	.insn	2, 0x0101
    7230:	0101                	.insn	2, 0x0101
    7232:	0101                	.insn	2, 0x0101
    7234:	0400040b          	.insn	4, 0x0400040b
    7238:	0201010b          	.insn	4, 0x0201010b
    723c:	0006                	.insn	2, 0x0006
    723e:	0000                	.insn	2, 0x
    7240:	0000                	.insn	2, 0x
    7242:	080e                	.insn	2, 0x080e
    7244:	0101                	.insn	2, 0x0101
    7246:	0101                	.insn	2, 0x0101
    7248:	0201                	.insn	2, 0x0201
    724a:	000e                	.insn	2, 0x000e
    724c:	0000                	.insn	2, 0x
    724e:	0000                	.insn	2, 0x
    7250:	01010203          	lb	tp,16(sp)
    7254:	0302                	.insn	2, 0x0302
    7256:	0e00                	.insn	2, 0x0e00
    7258:	0102                	.insn	2, 0x0102
    725a:	0801                	.insn	2, 0x0801
    725c:	040c                	.insn	2, 0x040c
    725e:	0000                	.insn	2, 0x
    7260:	0900                	.insn	2, 0x0900
    7262:	0108                	.insn	2, 0x0108
    7264:	0a01                	.insn	2, 0x0a01
    7266:	03030303          	lb	t1,48(t1)
    726a:	03030303          	lb	t1,48(t1)
	...
    7276:	0400                	.insn	2, 0x0400
    7278:	0101010b          	.insn	4, 0x0101010b
    727c:	0702                	.insn	2, 0x0702
    727e:	04000403          	lb	s0,64(zero) # 40 <_isr_routine+0x38>
    7282:	02020703          	lb	a4,32(tp) # 20 <_isr_routine+0x18>
    7286:	0006                	.insn	2, 0x0006
    7288:	0000                	.insn	2, 0x
    728a:	0000                	.insn	2, 0x
    728c:	01010107          	.insn	4, 0x01010107
    7290:	0101                	.insn	2, 0x0101
    7292:	0a01                	.insn	2, 0x0a01
    7294:	0006                	.insn	2, 0x0006
    7296:	0000                	.insn	2, 0x
    7298:	0000                	.insn	2, 0x
    729a:	01010d07          	.insn	4, 0x01010d07
    729e:	0101                	.insn	2, 0x0101
    72a0:	0602                	.insn	2, 0x0602
    72a2:	0000                	.insn	2, 0x
    72a4:	01010203          	lb	tp,16(sp)
    72a8:	0101                	.insn	2, 0x0101
    72aa:	0908                	.insn	2, 0x0908
    72ac:	0000                	.insn	2, 0x
    72ae:	0b04                	.insn	2, 0x0b04
    72b0:	0101                	.insn	2, 0x0101
    72b2:	070d                	.insn	2, 0x070d
    72b4:	03030303          	lb	t1,48(t1)
    72b8:	04030303          	lb	t1,64(t1)
    72bc:	0c04                	.insn	2, 0x0c04
    72be:	0101                	.insn	2, 0x0101
    72c0:	0c01                	.insn	2, 0x0c01
    72c2:	0004                	.insn	2, 0x0004
    72c4:	0000                	.insn	2, 0x
    72c6:	0300                	.insn	2, 0x0300
    72c8:	0209                	.insn	2, 0x0209
    72ca:	000e                	.insn	2, 0x000e
    72cc:	0700                	.insn	2, 0x0700
    72ce:	0101                	.insn	2, 0x0101
    72d0:	0101                	.insn	2, 0x0101
    72d2:	0101                	.insn	2, 0x0101
    72d4:	060a                	.insn	2, 0x060a
    72d6:	0400                	.insn	2, 0x0400
    72d8:	0201010b          	.insn	4, 0x0201010b
    72dc:	0006                	.insn	2, 0x0006
    72de:	0000                	.insn	2, 0x
    72e0:	0000                	.insn	2, 0x
    72e2:	0809                	.insn	2, 0x0809
    72e4:	0101                	.insn	2, 0x0101
    72e6:	010d                	.insn	2, 0x010d
    72e8:	0801                	.insn	2, 0x0801
    72ea:	0009                	.insn	2, 0x0009
    72ec:	0000                	.insn	2, 0x
    72ee:	0000                	.insn	2, 0x
    72f0:	01010203          	lb	tp,16(sp)
    72f4:	0302                	.insn	2, 0x0302
    72f6:	0900                	.insn	2, 0x0900
    72f8:	0108                	.insn	2, 0x0108
    72fa:	0201                	.insn	2, 0x0201
    72fc:	0009                	.insn	2, 0x0009
    72fe:	0000                	.insn	2, 0x
    7300:	0900                	.insn	2, 0x0900
    7302:	0108                	.insn	2, 0x0108
    7304:	0a01                	.insn	2, 0x0a01
    7306:	0406                	.insn	2, 0x0406
    7308:	0404                	.insn	2, 0x0404
    730a:	0404                	.insn	2, 0x0404
    730c:	0404                	.insn	2, 0x0404
	...
    7316:	0600                	.insn	2, 0x0600
    7318:	010a                	.insn	2, 0x010a
    731a:	0101                	.insn	2, 0x0101
    731c:	0e02                	.insn	2, 0x0e02
    731e:	0004                	.insn	2, 0x0004
    7320:	0000                	.insn	2, 0x
    7322:	0e04                	.insn	2, 0x0e04
    7324:	020a                	.insn	2, 0x020a
    7326:	0006                	.insn	2, 0x0006
    7328:	0000                	.insn	2, 0x
    732a:	0400                	.insn	2, 0x0400
    732c:	010c                	.insn	2, 0x010c
    732e:	0101                	.insn	2, 0x0101
    7330:	010d                	.insn	2, 0x010d
    7332:	0201                	.insn	2, 0x0201
    7334:	0006                	.insn	2, 0x0006
    7336:	0000                	.insn	2, 0x
    7338:	0000                	.insn	2, 0x
    733a:	01010d07          	.insn	4, 0x01010d07
    733e:	0101                	.insn	2, 0x0101
    7340:	0e02                	.insn	2, 0x0e02
    7342:	0000                	.insn	2, 0x
    7344:	080e                	.insn	2, 0x080e
    7346:	0101                	.insn	2, 0x0101
    7348:	0101                	.insn	2, 0x0101
    734a:	0908                	.insn	2, 0x0908
    734c:	0000                	.insn	2, 0x
    734e:	0b04                	.insn	2, 0x0b04
    7350:	0101                	.insn	2, 0x0101
    7352:	070d                	.insn	2, 0x070d
    7354:	0404                	.insn	2, 0x0404
    7356:	0404                	.insn	2, 0x0404
    7358:	0404                	.insn	2, 0x0404
    735a:	0004                	.insn	2, 0x0004
    735c:	0c04                	.insn	2, 0x0c04
    735e:	0101                	.insn	2, 0x0101
    7360:	0c01                	.insn	2, 0x0c01
    7362:	0000                	.insn	2, 0x
    7364:	0000                	.insn	2, 0x
    7366:	0000                	.insn	2, 0x
    7368:	000e0a03          	lb	s4,0(t3)
    736c:	0700                	.insn	2, 0x0700
    736e:	0101                	.insn	2, 0x0101
    7370:	0101                	.insn	2, 0x0101
    7372:	0101                	.insn	2, 0x0101
    7374:	0e02                	.insn	2, 0x0e02
    7376:	0400                	.insn	2, 0x0400
    7378:	0201010b          	.insn	4, 0x0201010b
    737c:	0006                	.insn	2, 0x0006
    737e:	0000                	.insn	2, 0x
    7380:	0000                	.insn	2, 0x
    7382:	0d010d07          	.insn	4, 0x0d010d07
    7386:	0102                	.insn	2, 0x0102
    7388:	0d01                	.insn	2, 0x0d01
    738a:	00000007          	.insn	4, 0x0007
    738e:	0000                	.insn	2, 0x
    7390:	01010203          	lb	tp,16(sp)
    7394:	0302                	.insn	2, 0x0302
    7396:	0c04                	.insn	2, 0x0c04
    7398:	010d                	.insn	2, 0x010d
    739a:	0201                	.insn	2, 0x0201
    739c:	00000003          	lb	zero,0(zero) # 0 <_isr_handler>
    73a0:	0900                	.insn	2, 0x0900
    73a2:	0108                	.insn	2, 0x0108
    73a4:	0a01                	.insn	2, 0x0a01
    73a6:	0004                	.insn	2, 0x0004
	...
    73b4:	0000                	.insn	2, 0x
    73b6:	0300                	.insn	2, 0x0300
    73b8:	0102                	.insn	2, 0x0102
    73ba:	0101                	.insn	2, 0x0101
    73bc:	0000060b          	.insn	4, 0x060b
    73c0:	0000                	.insn	2, 0x
    73c2:	0600                	.insn	2, 0x0600
    73c4:	00060207          	.insn	4, 0x00060207
    73c8:	0000                	.insn	2, 0x
    73ca:	0400                	.insn	2, 0x0400
    73cc:	0201010b          	.insn	4, 0x0201010b
    73d0:	0102                	.insn	2, 0x0102
    73d2:	0201                	.insn	2, 0x0201
    73d4:	00000003          	lb	zero,0(zero) # 0 <_isr_handler>
    73d8:	0000                	.insn	2, 0x
    73da:	01010d07          	.insn	4, 0x01010d07
    73de:	0101                	.insn	2, 0x0101
    73e0:	0908                	.insn	2, 0x0908
    73e2:	0000                	.insn	2, 0x
    73e4:	0809                	.insn	2, 0x0809
    73e6:	0101                	.insn	2, 0x0101
    73e8:	0101                	.insn	2, 0x0101
    73ea:	0908                	.insn	2, 0x0908
    73ec:	0000                	.insn	2, 0x
    73ee:	0b04                	.insn	2, 0x0b04
    73f0:	0101                	.insn	2, 0x0101
    73f2:	070d                	.insn	2, 0x070d
	...
    73fc:	2104                	.insn	2, 0x2104
    73fe:	0101                	.insn	2, 0x0101
    7400:	0c01                	.insn	2, 0x0c01
    7402:	0004                	.insn	2, 0x0004
    7404:	0000                	.insn	2, 0x
    7406:	0000                	.insn	2, 0x
    7408:	0906                	.insn	2, 0x0906
    740a:	07000003          	lb	zero,112(zero) # 70 <_isr_routine+0x68>
    740e:	0101                	.insn	2, 0x0101
    7410:	0101                	.insn	2, 0x0101
    7412:	0101                	.insn	2, 0x0101
    7414:	0908                	.insn	2, 0x0908
    7416:	0400                	.insn	2, 0x0400
    7418:	0201010b          	.insn	4, 0x0201010b
    741c:	0006                	.insn	2, 0x0006
    741e:	0000                	.insn	2, 0x
    7420:	0400                	.insn	2, 0x0400
    7422:	010c                	.insn	2, 0x010c
    7424:	0d01                	.insn	2, 0x0d01
    7426:	0d01010b          	.insn	4, 0x0d01010b
    742a:	00000007          	.insn	4, 0x0007
    742e:	0000                	.insn	2, 0x
    7430:	01010203          	lb	tp,16(sp)
    7434:	0302                	.insn	2, 0x0302
    7436:	0a06                	.insn	2, 0x0a06
    7438:	0101                	.insn	2, 0x0101
    743a:	0b01                	.insn	2, 0x0b01
    743c:	0006                	.insn	2, 0x0006
    743e:	0000                	.insn	2, 0x
    7440:	0900                	.insn	2, 0x0900
    7442:	0108                	.insn	2, 0x0108
    7444:	0a01                	.insn	2, 0x0a01
    7446:	0004                	.insn	2, 0x0004
	...
    7454:	0000                	.insn	2, 0x
    7456:	0900                	.insn	2, 0x0900
    7458:	0108                	.insn	2, 0x0108
    745a:	0d01                	.insn	2, 0x0d01
    745c:	00000407          	.insn	4, 0x0407
    7460:	0000                	.insn	2, 0x
    7462:	0000                	.insn	2, 0x
    7464:	020e                	.insn	2, 0x020e
    7466:	0006                	.insn	2, 0x0006
    7468:	0000                	.insn	2, 0x
    746a:	0600                	.insn	2, 0x0600
    746c:	010a                	.insn	2, 0x010a
    746e:	0201                	.insn	2, 0x0201
    7470:	0801010b          	.insn	4, 0x0801010b
    7474:	000e                	.insn	2, 0x000e
    7476:	0000                	.insn	2, 0x
    7478:	0000                	.insn	2, 0x
    747a:	01010d07          	.insn	4, 0x01010d07
    747e:	0101                	.insn	2, 0x0101
    7480:	070d                	.insn	2, 0x070d
    7482:	0000                	.insn	2, 0x
    7484:	01010d07          	.insn	4, 0x01010d07
    7488:	0101                	.insn	2, 0x0101
    748a:	0908                	.insn	2, 0x0908
    748c:	0000                	.insn	2, 0x
    748e:	0b04                	.insn	2, 0x0b04
    7490:	0101                	.insn	2, 0x0101
    7492:	070d                	.insn	2, 0x070d
	...
    749c:	0b04                	.insn	2, 0x0b04
    749e:	0101                	.insn	2, 0x0101
    74a0:	0b01                	.insn	2, 0x0b01
    74a2:	0006                	.insn	2, 0x0006
    74a4:	0000                	.insn	2, 0x
    74a6:	0000                	.insn	2, 0x
    74a8:	0300                	.insn	2, 0x0300
    74aa:	07000003          	lb	zero,112(zero) # 70 <_isr_routine+0x68>
    74ae:	0101                	.insn	2, 0x0101
    74b0:	0801                	.insn	2, 0x0801
    74b2:	0101                	.insn	2, 0x0101
    74b4:	070d                	.insn	2, 0x070d
    74b6:	0404                	.insn	2, 0x0404
    74b8:	0201010b          	.insn	4, 0x0201010b
    74bc:	0006                	.insn	2, 0x0006
    74be:	0000                	.insn	2, 0x
    74c0:	0400                	.insn	2, 0x0400
    74c2:	0121                	.insn	2, 0x0121
    74c4:	0801                	.insn	2, 0x0801
    74c6:	0d0c                	.insn	2, 0x0d0c
    74c8:	0101                	.insn	2, 0x0101
    74ca:	040c                	.insn	2, 0x040c
    74cc:	0000                	.insn	2, 0x
    74ce:	0000                	.insn	2, 0x
    74d0:	01010203          	lb	tp,16(sp)
    74d4:	0302                	.insn	2, 0x0302
    74d6:	020e                	.insn	2, 0x020e
    74d8:	0101                	.insn	2, 0x0101
    74da:	0708                	.insn	2, 0x0708
    74dc:	0004                	.insn	2, 0x0004
    74de:	0000                	.insn	2, 0x
    74e0:	0900                	.insn	2, 0x0900
    74e2:	0108                	.insn	2, 0x0108
    74e4:	0a01                	.insn	2, 0x0a01
    74e6:	0004                	.insn	2, 0x0004
	...
    74f4:	0000                	.insn	2, 0x
    74f6:	0700                	.insn	2, 0x0700
    74f8:	010d                	.insn	2, 0x010d
    74fa:	0801                	.insn	2, 0x0801
    74fc:	0009                	.insn	2, 0x0009
    74fe:	0000                	.insn	2, 0x
    7500:	0000                	.insn	2, 0x
    7502:	0000                	.insn	2, 0x
    7504:	0c06                	.insn	2, 0x0c06
    7506:	0006                	.insn	2, 0x0006
    7508:	0000                	.insn	2, 0x
    750a:	0600                	.insn	2, 0x0600
    750c:	010a                	.insn	2, 0x010a
    750e:	0a01                	.insn	2, 0x0a01
    7510:	0121                	.insn	2, 0x0121
    7512:	0801                	.insn	2, 0x0801
    7514:	0009                	.insn	2, 0x0009
    7516:	0000                	.insn	2, 0x
    7518:	0000                	.insn	2, 0x
    751a:	01010d07          	.insn	4, 0x01010d07
    751e:	0101                	.insn	2, 0x0101
    7520:	0c01                	.insn	2, 0x0c01
    7522:	0404                	.insn	2, 0x0404
    7524:	010c                	.insn	2, 0x010c
    7526:	0101                	.insn	2, 0x0101
    7528:	0101                	.insn	2, 0x0101
    752a:	0908                	.insn	2, 0x0908
    752c:	0000                	.insn	2, 0x
    752e:	0b04                	.insn	2, 0x0b04
    7530:	0101                	.insn	2, 0x0101
    7532:	070d                	.insn	2, 0x070d
	...
    753c:	0c04                	.insn	2, 0x0c04
    753e:	0101                	.insn	2, 0x0101
    7540:	0a01                	.insn	2, 0x0a01
    7542:	060e                	.insn	2, 0x060e
    7544:	0000                	.insn	2, 0x
    7546:	0000                	.insn	2, 0x
    7548:	0600                	.insn	2, 0x0600
    754a:	0006                	.insn	2, 0x0006
    754c:	0700                	.insn	2, 0x0700
    754e:	0101                	.insn	2, 0x0101
    7550:	020d                	.insn	2, 0x020d
    7552:	0101                	.insn	2, 0x0101
    7554:	0b01                	.insn	2, 0x0b01
    7556:	0404                	.insn	2, 0x0404
    7558:	0201010b          	.insn	4, 0x0201010b
    755c:	0006                	.insn	2, 0x0006
    755e:	0000                	.insn	2, 0x
    7560:	0400                	.insn	2, 0x0400
    7562:	0201010b          	.insn	4, 0x0201010b
    7566:	01010807          	.insn	4, 0x01010807
    756a:	0000040b          	.insn	4, 0x040b
    756e:	0000                	.insn	2, 0x
    7570:	01010203          	lb	tp,16(sp)
    7574:	0302                	.insn	2, 0x0302
    7576:	0209                	.insn	2, 0x0209
    7578:	0101                	.insn	2, 0x0101
    757a:	0902                	.insn	2, 0x0902
    757c:	0000                	.insn	2, 0x
    757e:	0000                	.insn	2, 0x
    7580:	0900                	.insn	2, 0x0900
    7582:	0108                	.insn	2, 0x0108
    7584:	0a01                	.insn	2, 0x0a01
    7586:	0006                	.insn	2, 0x0006
	...
    7594:	0000                	.insn	2, 0x
    7596:	0700                	.insn	2, 0x0700
    7598:	010d                	.insn	2, 0x010d
    759a:	0201                	.insn	2, 0x0201
    759c:	00000003          	lb	zero,0(zero) # 0 <_isr_handler>
    75a0:	0000                	.insn	2, 0x
    75a2:	0000                	.insn	2, 0x
    75a4:	0304                	.insn	2, 0x0304
    75a6:	0006                	.insn	2, 0x0006
    75a8:	0000                	.insn	2, 0x
    75aa:	0300                	.insn	2, 0x0300
    75ac:	0102                	.insn	2, 0x0102
    75ae:	0a01                	.insn	2, 0x0a01
    75b0:	010c                	.insn	2, 0x010c
    75b2:	0d01                	.insn	2, 0x0d01
    75b4:	00000007          	.insn	4, 0x0007
    75b8:	0000                	.insn	2, 0x
    75ba:	01010d07          	.insn	4, 0x01010d07
    75be:	0101                	.insn	2, 0x0101
    75c0:	0b01                	.insn	2, 0x0b01
    75c2:	0404                	.insn	2, 0x0404
    75c4:	0101010b          	.insn	4, 0x0101010b
    75c8:	0101                	.insn	2, 0x0101
    75ca:	0908                	.insn	2, 0x0908
    75cc:	0000                	.insn	2, 0x
    75ce:	0b04                	.insn	2, 0x0b04
    75d0:	0101                	.insn	2, 0x0101
    75d2:	070d                	.insn	2, 0x070d
    75d4:	0004                	.insn	2, 0x0004
    75d6:	0000                	.insn	2, 0x
    75d8:	0000                	.insn	2, 0x
    75da:	0000                	.insn	2, 0x
    75dc:	0c04                	.insn	2, 0x0c04
    75de:	0101                	.insn	2, 0x0101
    75e0:	0201                	.insn	2, 0x0201
    75e2:	04030307          	.insn	4, 0x04030307
    75e6:	0000                	.insn	2, 0x
    75e8:	0000                	.insn	2, 0x
    75ea:	0000                	.insn	2, 0x
    75ec:	0700                	.insn	2, 0x0700
    75ee:	0101                	.insn	2, 0x0101
    75f0:	0b0d                	.insn	2, 0x0b0d
    75f2:	010d                	.insn	2, 0x010d
    75f4:	0a01                	.insn	2, 0x0a01
    75f6:	0406                	.insn	2, 0x0406
    75f8:	0201010b          	.insn	4, 0x0201010b
    75fc:	0006                	.insn	2, 0x0006
    75fe:	0000                	.insn	2, 0x
    7600:	0600                	.insn	2, 0x0600
    7602:	010a                	.insn	2, 0x010a
    7604:	0201                	.insn	2, 0x0201
    7606:	080e                	.insn	2, 0x080e
    7608:	0101                	.insn	2, 0x0101
    760a:	060a                	.insn	2, 0x060a
    760c:	0000                	.insn	2, 0x
    760e:	0000                	.insn	2, 0x
    7610:	01010203          	lb	tp,16(sp)
    7614:	0e02                	.insn	2, 0x0e02
    7616:	0d0c                	.insn	2, 0x0d0c
    7618:	0101                	.insn	2, 0x0101
    761a:	030a                	.insn	2, 0x030a
    761c:	0000                	.insn	2, 0x
    761e:	0000                	.insn	2, 0x
    7620:	0900                	.insn	2, 0x0900
    7622:	0108                	.insn	2, 0x0108
    7624:	0a01                	.insn	2, 0x0a01
    7626:	03030303          	lb	t1,48(t1)
    762a:	04030303          	lb	t1,64(t1)
	...
    7636:	0c00                	.insn	2, 0x0c00
    7638:	0101                	.insn	2, 0x0101
    763a:	0a01                	.insn	2, 0x0a01
    763c:	0006                	.insn	2, 0x0006
    763e:	0000                	.insn	2, 0x
    7640:	0000                	.insn	2, 0x
    7642:	0000                	.insn	2, 0x
    7644:	0300                	.insn	2, 0x0300
    7646:	0006                	.insn	2, 0x0006
    7648:	0000                	.insn	2, 0x
    764a:	0e00                	.insn	2, 0x0e00
    764c:	0102                	.insn	2, 0x0102
    764e:	0b01                	.insn	2, 0x0b01
    7650:	01010d07          	.insn	4, 0x01010d07
    7654:	000c                	.insn	2, 0x000c
    7656:	0000                	.insn	2, 0x
    7658:	0000                	.insn	2, 0x
    765a:	01010d07          	.insn	4, 0x01010d07
    765e:	0d02                	.insn	2, 0x0d02
    7660:	0a01                	.insn	2, 0x0a01
    7662:	0606                	.insn	2, 0x0606
    7664:	010a                	.insn	2, 0x010a
    7666:	0202                	.insn	2, 0x0202
    7668:	0101                	.insn	2, 0x0101
    766a:	0908                	.insn	2, 0x0908
    766c:	0000                	.insn	2, 0x
    766e:	0b04                	.insn	2, 0x0b04
    7670:	0101                	.insn	2, 0x0101
    7672:	070d                	.insn	2, 0x070d
    7674:	03030303          	lb	t1,48(t1)
    7678:	00030303          	lb	t1,0(t1)
    767c:	0c00                	.insn	2, 0x0c00
    767e:	0101                	.insn	2, 0x0101
    7680:	0801                	.insn	2, 0x0801
    7682:	0702                	.insn	2, 0x0702
    7684:	00040303          	lb	t1,0(s0)
    7688:	0000                	.insn	2, 0x
    768a:	0000                	.insn	2, 0x
    768c:	0700                	.insn	2, 0x0700
    768e:	0101                	.insn	2, 0x0101
    7690:	0c0d                	.insn	2, 0x0c0d
    7692:	0108                	.insn	2, 0x0108
    7694:	0201                	.insn	2, 0x0201
    7696:	010b0403          	lb	s0,16(s6)
    769a:	0201                	.insn	2, 0x0201
    769c:	0006                	.insn	2, 0x0006
    769e:	0000                	.insn	2, 0x
    76a0:	0600                	.insn	2, 0x0600
    76a2:	0102                	.insn	2, 0x0102
    76a4:	0a01                	.insn	2, 0x0a01
    76a6:	020e                	.insn	2, 0x020e
    76a8:	0101                	.insn	2, 0x0101
    76aa:	060a                	.insn	2, 0x060a
    76ac:	0000                	.insn	2, 0x
    76ae:	0000                	.insn	2, 0x
    76b0:	01010203          	lb	tp,16(sp)
    76b4:	0e02                	.insn	2, 0x0e02
    76b6:	0101010b          	.insn	4, 0x0101010b
    76ba:	0621                	.insn	2, 0x0621
    76bc:	0000                	.insn	2, 0x
    76be:	0000                	.insn	2, 0x
    76c0:	0900                	.insn	2, 0x0900
    76c2:	0108                	.insn	2, 0x0108
    76c4:	0a01                	.insn	2, 0x0a01
    76c6:	03030303          	lb	t1,48(t1)
    76ca:	04030303          	lb	t1,64(t1)
	...
    76d6:	0c04                	.insn	2, 0x0c04
    76d8:	0101                	.insn	2, 0x0101
    76da:	0b01                	.insn	2, 0x0b01
    76dc:	0006                	.insn	2, 0x0006
	...
    76ea:	0900                	.insn	2, 0x0900
    76ec:	0108                	.insn	2, 0x0108
    76ee:	0c01                	.insn	2, 0x0c01
    76f0:	01010d07          	.insn	4, 0x01010d07
    76f4:	040c                	.insn	2, 0x040c
    76f6:	0000                	.insn	2, 0x
    76f8:	0000                	.insn	2, 0x
    76fa:	01010d07          	.insn	4, 0x01010d07
    76fe:	080a                	.insn	2, 0x080a
    7700:	0201                	.insn	2, 0x0201
    7702:	0306                	.insn	2, 0x0306
    7704:	0102                	.insn	2, 0x0102
    7706:	0a02                	.insn	2, 0x0a02
    7708:	0101                	.insn	2, 0x0101
    770a:	0908                	.insn	2, 0x0908
    770c:	0000                	.insn	2, 0x
    770e:	0b04                	.insn	2, 0x0b04
    7710:	0101                	.insn	2, 0x0101
    7712:	070d                	.insn	2, 0x070d
    7714:	03030303          	lb	t1,48(t1)
    7718:	00030303          	lb	t1,0(t1)
    771c:	0c00                	.insn	2, 0x0c00
    771e:	0101                	.insn	2, 0x0101
    7720:	0101                	.insn	2, 0x0101
    7722:	0202                	.insn	2, 0x0202
    7724:	04030e0b          	.insn	4, 0x04030e0b
    7728:	0000                	.insn	2, 0x
    772a:	0000                	.insn	2, 0x
    772c:	0700                	.insn	2, 0x0700
    772e:	0101                	.insn	2, 0x0101
    7730:	070d                	.insn	2, 0x070d
    7732:	0102                	.insn	2, 0x0102
    7734:	0801                	.insn	2, 0x0801
    7736:	0609                	.insn	2, 0x0609
    7738:	0201010b          	.insn	4, 0x0201010b
    773c:	0006                	.insn	2, 0x0006
    773e:	0000                	.insn	2, 0x
    7740:	0300                	.insn	2, 0x0300
    7742:	0102                	.insn	2, 0x0102
    7744:	0b01                	.insn	2, 0x0b01
    7746:	01010203          	lb	tp,16(sp)
    774a:	0302                	.insn	2, 0x0302
    774c:	0000                	.insn	2, 0x
    774e:	0000                	.insn	2, 0x
    7750:	01010203          	lb	tp,16(sp)
    7754:	0e02                	.insn	2, 0x0e02
    7756:	0102                	.insn	2, 0x0102
    7758:	0801                	.insn	2, 0x0801
    775a:	00000407          	.insn	4, 0x0407
    775e:	0000                	.insn	2, 0x
    7760:	0900                	.insn	2, 0x0900
    7762:	0108                	.insn	2, 0x0108
    7764:	0201                	.insn	2, 0x0201
    7766:	0202                	.insn	2, 0x0202
    7768:	0202                	.insn	2, 0x0202
    776a:	0202                	.insn	2, 0x0202
    776c:	0000040b          	.insn	4, 0x040b
    7770:	0000                	.insn	2, 0x
    7772:	0000                	.insn	2, 0x
    7774:	0000                	.insn	2, 0x
    7776:	0b04                	.insn	2, 0x0b04
    7778:	0101                	.insn	2, 0x0101
    777a:	0b01                	.insn	2, 0x0b01
    777c:	0004                	.insn	2, 0x0004
	...
    778a:	0700                	.insn	2, 0x0700
    778c:	010d                	.insn	2, 0x010d
    778e:	0c01                	.insn	2, 0x0c01
    7790:	0809                	.insn	2, 0x0809
    7792:	0101                	.insn	2, 0x0101
    7794:	0000040b          	.insn	4, 0x040b
    7798:	0000                	.insn	2, 0x
    779a:	01010d07          	.insn	4, 0x01010d07
    779e:	0201080b          	.insn	4, 0x0201080b
    77a2:	01020e03          	lb	t3,16(tp) # 10 <_isr_routine+0x8>
    77a6:	0a0a                	.insn	2, 0x0a0a
    77a8:	0101                	.insn	2, 0x0101
    77aa:	0908                	.insn	2, 0x0908
    77ac:	0000                	.insn	2, 0x
    77ae:	0b04                	.insn	2, 0x0b04
    77b0:	0101                	.insn	2, 0x0101
    77b2:	020d                	.insn	2, 0x020d
    77b4:	0202                	.insn	2, 0x0202
    77b6:	0202                	.insn	2, 0x0202
    77b8:	0202                	.insn	2, 0x0202
    77ba:	0009                	.insn	2, 0x0009
    77bc:	0700                	.insn	2, 0x0700
    77be:	010d                	.insn	2, 0x010d
    77c0:	0101                	.insn	2, 0x0101
    77c2:	0201                	.insn	2, 0x0201
    77c4:	0a02                	.insn	2, 0x0a02
    77c6:	0309                	.insn	2, 0x0309
    77c8:	0004                	.insn	2, 0x0004
    77ca:	0000                	.insn	2, 0x
    77cc:	0700                	.insn	2, 0x0700
    77ce:	0101                	.insn	2, 0x0101
    77d0:	070d                	.insn	2, 0x070d
    77d2:	010a                	.insn	2, 0x010a
    77d4:	0d01                	.insn	2, 0x0d01
    77d6:	010b0607          	.insn	4, 0x010b0607
    77da:	0201                	.insn	2, 0x0201
    77dc:	0006                	.insn	2, 0x0006
    77de:	0000                	.insn	2, 0x
    77e0:	0900                	.insn	2, 0x0900
    77e2:	0108                	.insn	2, 0x0108
    77e4:	2101                	.insn	2, 0x2101
    77e6:	01010a03          	lb	s4,16(sp)
    77ea:	0e02                	.insn	2, 0x0e02
    77ec:	0000                	.insn	2, 0x
    77ee:	0000                	.insn	2, 0x
    77f0:	01010203          	lb	tp,16(sp)
    77f4:	0902                	.insn	2, 0x0902
    77f6:	0102                	.insn	2, 0x0102
    77f8:	0201                	.insn	2, 0x0201
    77fa:	000e                	.insn	2, 0x000e
    77fc:	0000                	.insn	2, 0x
    77fe:	0000                	.insn	2, 0x
    7800:	0900                	.insn	2, 0x0900
    7802:	0108                	.insn	2, 0x0108
    7804:	0201                	.insn	2, 0x0201
    7806:	0202                	.insn	2, 0x0202
    7808:	0202                	.insn	2, 0x0202
    780a:	0202                	.insn	2, 0x0202
    780c:	0000040b          	.insn	4, 0x040b
    7810:	0000                	.insn	2, 0x
    7812:	0000                	.insn	2, 0x
    7814:	0000                	.insn	2, 0x
    7816:	0b04                	.insn	2, 0x0b04
    7818:	0101                	.insn	2, 0x0101
    781a:	0c01                	.insn	2, 0x0c01
    781c:	0004                	.insn	2, 0x0004
	...
    782a:	0c00                	.insn	2, 0x0c00
    782c:	0101                	.insn	2, 0x0101
    782e:	070d                	.insn	2, 0x070d
    7830:	020e                	.insn	2, 0x020e
    7832:	0101                	.insn	2, 0x0101
    7834:	060a                	.insn	2, 0x060a
    7836:	0000                	.insn	2, 0x
    7838:	0000                	.insn	2, 0x
    783a:	01010d07          	.insn	4, 0x01010d07
    783e:	020c                	.insn	2, 0x020c
    7840:	0801                	.insn	2, 0x0801
    7842:	0909                	.insn	2, 0x0909
    7844:	0108                	.insn	2, 0x0108
    7846:	01010a0b          	.insn	4, 0x01010a0b
    784a:	0908                	.insn	2, 0x0908
    784c:	0000                	.insn	2, 0x
    784e:	0b04                	.insn	2, 0x0b04
    7850:	0101                	.insn	2, 0x0101
    7852:	020d                	.insn	2, 0x020d
    7854:	0202                	.insn	2, 0x0202
    7856:	0202                	.insn	2, 0x0202
    7858:	0202                	.insn	2, 0x0202
    785a:	0009                	.insn	2, 0x0009
    785c:	0900                	.insn	2, 0x0900
    785e:	0108                	.insn	2, 0x0108
    7860:	0101                	.insn	2, 0x0101
    7862:	0101                	.insn	2, 0x0101
    7864:	0202                	.insn	2, 0x0202
    7866:	0902                	.insn	2, 0x0902
    7868:	00000003          	lb	zero,0(zero) # 0 <_isr_handler>
    786c:	0700                	.insn	2, 0x0700
    786e:	0101                	.insn	2, 0x0101
    7870:	070d                	.insn	2, 0x070d
    7872:	0101010b          	.insn	4, 0x0101010b
    7876:	0321                	.insn	2, 0x0321
    7878:	0201010b          	.insn	4, 0x0201010b
    787c:	0006                	.insn	2, 0x0006
    787e:	0000                	.insn	2, 0x
    7880:	0700                	.insn	2, 0x0700
    7882:	0108                	.insn	2, 0x0108
    7884:	0c01                	.insn	2, 0x0c01
    7886:	0b06                	.insn	2, 0x0b06
    7888:	0101                	.insn	2, 0x0101
    788a:	0908                	.insn	2, 0x0908
    788c:	0000                	.insn	2, 0x
    788e:	0000                	.insn	2, 0x
    7890:	01010203          	lb	tp,16(sp)
    7894:	0c02                	.insn	2, 0x0c02
    7896:	010d                	.insn	2, 0x010d
    7898:	0a01                	.insn	2, 0x0a01
    789a:	00000003          	lb	zero,0(zero) # 0 <_isr_handler>
    789e:	0000                	.insn	2, 0x
    78a0:	0900                	.insn	2, 0x0900
    78a2:	0108                	.insn	2, 0x0108
    78a4:	0101                	.insn	2, 0x0101
    78a6:	0101                	.insn	2, 0x0101
    78a8:	0101                	.insn	2, 0x0101
    78aa:	0101                	.insn	2, 0x0101
    78ac:	0000040b          	.insn	4, 0x040b
    78b0:	0000                	.insn	2, 0x
    78b2:	0000                	.insn	2, 0x
    78b4:	0000                	.insn	2, 0x
    78b6:	0b04                	.insn	2, 0x0b04
    78b8:	0101                	.insn	2, 0x0101
    78ba:	0c01                	.insn	2, 0x0c01
    78bc:	0000                	.insn	2, 0x
    78be:	03030303          	lb	t1,48(t1)
    78c2:	03030303          	lb	t1,48(t1)
    78c6:	0006                	.insn	2, 0x0006
    78c8:	0000                	.insn	2, 0x
    78ca:	0c04                	.insn	2, 0x0c04
    78cc:	0101                	.insn	2, 0x0101
    78ce:	0908                	.insn	2, 0x0908
    78d0:	01010203          	lb	tp,16(sp)
    78d4:	0602                	.insn	2, 0x0602
    78d6:	0000                	.insn	2, 0x
    78d8:	0000                	.insn	2, 0x
    78da:	01010d07          	.insn	4, 0x01010d07
    78de:	020c                	.insn	2, 0x020c
    78e0:	0d01                	.insn	2, 0x0d01
    78e2:	010d0707          	.insn	4, 0x010d0707
    78e6:	0a21                	.insn	2, 0x0a21
    78e8:	0101                	.insn	2, 0x0101
    78ea:	0908                	.insn	2, 0x0908
    78ec:	0000                	.insn	2, 0x
    78ee:	0b04                	.insn	2, 0x0b04
    78f0:	0101                	.insn	2, 0x0101
    78f2:	0101                	.insn	2, 0x0101
    78f4:	0101                	.insn	2, 0x0101
    78f6:	0101                	.insn	2, 0x0101
    78f8:	0801                	.insn	2, 0x0801
    78fa:	0009                	.insn	2, 0x0009
    78fc:	0e00                	.insn	2, 0x0e00
    78fe:	0102                	.insn	2, 0x0102
    7900:	0101                	.insn	2, 0x0101
    7902:	0101                	.insn	2, 0x0101
    7904:	0d01                	.insn	2, 0x0d01
    7906:	0a02                	.insn	2, 0x0a02
    7908:	040e                	.insn	2, 0x040e
    790a:	0000                	.insn	2, 0x
    790c:	0700                	.insn	2, 0x0700
    790e:	0101                	.insn	2, 0x0101
    7910:	070d                	.insn	2, 0x070d
    7912:	0d0c                	.insn	2, 0x0d0c
    7914:	0101                	.insn	2, 0x0101
    7916:	030a                	.insn	2, 0x030a
    7918:	0201010b          	.insn	4, 0x0201010b
    791c:	0006                	.insn	2, 0x0006
    791e:	0000                	.insn	2, 0x
    7920:	0700                	.insn	2, 0x0700
    7922:	010d                	.insn	2, 0x010d
    7924:	0701                	.insn	2, 0x0701
    7926:	0c06                	.insn	2, 0x0c06
    7928:	0101                	.insn	2, 0x0101
    792a:	070d                	.insn	2, 0x070d
    792c:	0000                	.insn	2, 0x
    792e:	0000                	.insn	2, 0x
    7930:	01010203          	lb	tp,16(sp)
    7934:	0b02                	.insn	2, 0x0b02
    7936:	0101                	.insn	2, 0x0101
    7938:	0c0d                	.insn	2, 0x0c0d
    793a:	0006                	.insn	2, 0x0006
    793c:	0000                	.insn	2, 0x
    793e:	0000                	.insn	2, 0x
    7940:	0900                	.insn	2, 0x0900
    7942:	0108                	.insn	2, 0x0108
    7944:	0101                	.insn	2, 0x0101
    7946:	0101                	.insn	2, 0x0101
    7948:	0101                	.insn	2, 0x0101
    794a:	0101                	.insn	2, 0x0101
    794c:	0000040b          	.insn	4, 0x040b
    7950:	0000                	.insn	2, 0x
    7952:	0000                	.insn	2, 0x
    7954:	0000                	.insn	2, 0x
    7956:	0b04                	.insn	2, 0x0b04
    7958:	0101                	.insn	2, 0x0101
    795a:	0701                	.insn	2, 0x0701
    795c:	0000                	.insn	2, 0x
    795e:	03030303          	lb	t1,48(t1)
    7962:	03030303          	lb	t1,48(t1)
    7966:	00000003          	lb	zero,0(zero) # 0 <_isr_handler>
    796a:	0b04                	.insn	2, 0x0b04
    796c:	0101                	.insn	2, 0x0101
    796e:	0e08                	.insn	2, 0x0e08
    7970:	0a06                	.insn	2, 0x0a06
    7972:	0101                	.insn	2, 0x0101
    7974:	0302                	.insn	2, 0x0302
    7976:	0000                	.insn	2, 0x
    7978:	0000                	.insn	2, 0x
    797a:	01010d07          	.insn	4, 0x01010d07
    797e:	0a0c                	.insn	2, 0x0a0c
    7980:	0101                	.insn	2, 0x0101
    7982:	0c0c                	.insn	2, 0x0c0c
    7984:	0101                	.insn	2, 0x0101
    7986:	0a0c                	.insn	2, 0x0a0c
    7988:	0101                	.insn	2, 0x0101
    798a:	0908                	.insn	2, 0x0908
    798c:	0000                	.insn	2, 0x
    798e:	0b04                	.insn	2, 0x0b04
    7990:	0101                	.insn	2, 0x0101
    7992:	0101                	.insn	2, 0x0101
    7994:	0101                	.insn	2, 0x0101
    7996:	0101                	.insn	2, 0x0101
    7998:	0801                	.insn	2, 0x0801
    799a:	0009                	.insn	2, 0x0009
    799c:	0600                	.insn	2, 0x0600
    799e:	0102                	.insn	2, 0x0102
    79a0:	0101                	.insn	2, 0x0101
    79a2:	0101                	.insn	2, 0x0101
    79a4:	0101                	.insn	2, 0x0101
    79a6:	0201                	.insn	2, 0x0201
    79a8:	030c                	.insn	2, 0x030c
    79aa:	0000                	.insn	2, 0x
    79ac:	0700                	.insn	2, 0x0700
    79ae:	0101                	.insn	2, 0x0101
    79b0:	070d                	.insn	2, 0x070d
    79b2:	0809                	.insn	2, 0x0809
    79b4:	0101                	.insn	2, 0x0101
    79b6:	0e02                	.insn	2, 0x0e02
    79b8:	0201010b          	.insn	4, 0x0201010b
    79bc:	0006                	.insn	2, 0x0006
    79be:	0000                	.insn	2, 0x
    79c0:	0c04                	.insn	2, 0x0c04
    79c2:	0101                	.insn	2, 0x0101
    79c4:	070d                	.insn	2, 0x070d
    79c6:	0c04                	.insn	2, 0x0c04
    79c8:	0101                	.insn	2, 0x0101
    79ca:	0c01                	.insn	2, 0x0c01
    79cc:	0000                	.insn	2, 0x
    79ce:	0000                	.insn	2, 0x
    79d0:	01010203          	lb	tp,16(sp)
    79d4:	0208                	.insn	2, 0x0208
    79d6:	0101                	.insn	2, 0x0101
    79d8:	0708                	.insn	2, 0x0708
    79da:	0000                	.insn	2, 0x
    79dc:	0000                	.insn	2, 0x
    79de:	0000                	.insn	2, 0x
    79e0:	0900                	.insn	2, 0x0900
    79e2:	0108                	.insn	2, 0x0108
    79e4:	0101                	.insn	2, 0x0101
    79e6:	0101                	.insn	2, 0x0101
    79e8:	0101                	.insn	2, 0x0101
    79ea:	0101                	.insn	2, 0x0101
    79ec:	0000040b          	.insn	4, 0x040b
    79f0:	0000                	.insn	2, 0x
    79f2:	0000                	.insn	2, 0x
    79f4:	0000                	.insn	2, 0x
    79f6:	0a04                	.insn	2, 0x0a04
    79f8:	0101                	.insn	2, 0x0101
    79fa:	0701                	.insn	2, 0x0701
    79fc:	0000                	.insn	2, 0x
    79fe:	0b0e                	.insn	2, 0x0b0e
    7a00:	0b0b0b0b          	.insn	4, 0x0b0b0b0b
    7a04:	00030b0b          	.insn	4, 0x00030b0b
    7a08:	0000                	.insn	2, 0x
    7a0a:	0a06                	.insn	2, 0x0a06
    7a0c:	0101                	.insn	2, 0x0101
    7a0e:	0302                	.insn	2, 0x0302
    7a10:	0a06                	.insn	2, 0x0a06
    7a12:	0101                	.insn	2, 0x0101
    7a14:	0e08                	.insn	2, 0x0e08
    7a16:	0000                	.insn	2, 0x
    7a18:	0000                	.insn	2, 0x
    7a1a:	01010d07          	.insn	4, 0x01010d07
    7a1e:	0b0c                	.insn	2, 0x0b0c
    7a20:	0101                	.insn	2, 0x0101
    7a22:	0b0c                	.insn	2, 0x0b0c
    7a24:	0d01                	.insn	2, 0x0d01
    7a26:	01010a07          	.insn	4, 0x01010a07
    7a2a:	0908                	.insn	2, 0x0908
    7a2c:	0000                	.insn	2, 0x
    7a2e:	0b04                	.insn	2, 0x0b04
    7a30:	0101                	.insn	2, 0x0101
    7a32:	0101                	.insn	2, 0x0101
    7a34:	0101                	.insn	2, 0x0101
    7a36:	0101                	.insn	2, 0x0101
    7a38:	0801                	.insn	2, 0x0801
    7a3a:	0009                	.insn	2, 0x0009
    7a3c:	0600                	.insn	2, 0x0600
    7a3e:	0101010b          	.insn	4, 0x0101010b
    7a42:	0101                	.insn	2, 0x0101
    7a44:	0101                	.insn	2, 0x0101
    7a46:	0d01                	.insn	2, 0x0d01
    7a48:	0e02                	.insn	2, 0x0e02
    7a4a:	0000                	.insn	2, 0x
    7a4c:	0700                	.insn	2, 0x0700
    7a4e:	0101                	.insn	2, 0x0101
    7a50:	070d                	.insn	2, 0x070d
    7a52:	020e                	.insn	2, 0x020e
    7a54:	0101                	.insn	2, 0x0101
    7a56:	0908                	.insn	2, 0x0908
    7a58:	0201010b          	.insn	4, 0x0201010b
    7a5c:	0006                	.insn	2, 0x0006
    7a5e:	0000                	.insn	2, 0x
    7a60:	0b04                	.insn	2, 0x0b04
    7a62:	0101                	.insn	2, 0x0101
    7a64:	0908                	.insn	2, 0x0908
    7a66:	0700                	.insn	2, 0x0700
    7a68:	010d                	.insn	2, 0x010d
    7a6a:	0c01                	.insn	2, 0x0c01
    7a6c:	0004                	.insn	2, 0x0004
    7a6e:	0000                	.insn	2, 0x
    7a70:	01010203          	lb	tp,16(sp)
    7a74:	0d01                	.insn	2, 0x0d01
    7a76:	0101                	.insn	2, 0x0101
    7a78:	0708                	.insn	2, 0x0708
    7a7a:	0000                	.insn	2, 0x
    7a7c:	0000                	.insn	2, 0x
    7a7e:	0000                	.insn	2, 0x
    7a80:	0900                	.insn	2, 0x0900
    7a82:	0108                	.insn	2, 0x0108
    7a84:	0101                	.insn	2, 0x0101
    7a86:	0101                	.insn	2, 0x0101
    7a88:	0101                	.insn	2, 0x0101
    7a8a:	0101                	.insn	2, 0x0101
    7a8c:	0000040b          	.insn	4, 0x040b
    7a90:	0000                	.insn	2, 0x
    7a92:	0000                	.insn	2, 0x
    7a94:	0000                	.insn	2, 0x
    7a96:	0a06                	.insn	2, 0x0a06
    7a98:	0101                	.insn	2, 0x0101
    7a9a:	0701                	.insn	2, 0x0701
    7a9c:	0000                	.insn	2, 0x
    7a9e:	0209                	.insn	2, 0x0209
    7aa0:	0202                	.insn	2, 0x0202
    7aa2:	0202                	.insn	2, 0x0202
    7aa4:	0202                	.insn	2, 0x0202
    7aa6:	00000003          	lb	zero,0(zero) # 0 <_isr_handler>
    7aaa:	0206                	.insn	2, 0x0206
    7aac:	0101                	.insn	2, 0x0101
    7aae:	0602                	.insn	2, 0x0602
    7ab0:	0b04                	.insn	2, 0x0b04
    7ab2:	0101                	.insn	2, 0x0101
    7ab4:	0908                	.insn	2, 0x0908
    7ab6:	0000                	.insn	2, 0x
    7ab8:	0000                	.insn	2, 0x
    7aba:	01010d07          	.insn	4, 0x01010d07
    7abe:	0c0c                	.insn	2, 0x0c0c
    7ac0:	0101                	.insn	2, 0x0101
    7ac2:	08010a0b          	.insn	4, 0x08010a0b
    7ac6:	0a09                	.insn	2, 0x0a09
    7ac8:	0101                	.insn	2, 0x0101
    7aca:	0908                	.insn	2, 0x0908
    7acc:	0000                	.insn	2, 0x
    7ace:	0b04                	.insn	2, 0x0b04
    7ad0:	0101                	.insn	2, 0x0101
    7ad2:	0101                	.insn	2, 0x0101
    7ad4:	0101                	.insn	2, 0x0101
    7ad6:	0101                	.insn	2, 0x0101
    7ad8:	0801                	.insn	2, 0x0801
    7ada:	0009                	.insn	2, 0x0009
    7adc:	0400                	.insn	2, 0x0400
    7ade:	020c                	.insn	2, 0x020c
    7ae0:	0101                	.insn	2, 0x0101
    7ae2:	0101                	.insn	2, 0x0101
    7ae4:	0101                	.insn	2, 0x0101
    7ae6:	0101                	.insn	2, 0x0101
    7ae8:	0c02                	.insn	2, 0x0c02
    7aea:	0004                	.insn	2, 0x0004
    7aec:	0700                	.insn	2, 0x0700
    7aee:	0101                	.insn	2, 0x0101
    7af0:	070d                	.insn	2, 0x070d
    7af2:	0206                	.insn	2, 0x0206
    7af4:	0101                	.insn	2, 0x0101
    7af6:	070d                	.insn	2, 0x070d
    7af8:	0201010b          	.insn	4, 0x0201010b
    7afc:	0006                	.insn	2, 0x0006
    7afe:	0000                	.insn	2, 0x
    7b00:	0b06                	.insn	2, 0x0b06
    7b02:	0101                	.insn	2, 0x0101
    7b04:	0e02                	.insn	2, 0x0e02
    7b06:	0900                	.insn	2, 0x0900
    7b08:	0108                	.insn	2, 0x0108
    7b0a:	0b01                	.insn	2, 0x0b01
    7b0c:	0004                	.insn	2, 0x0004
    7b0e:	0000                	.insn	2, 0x
    7b10:	01010203          	lb	tp,16(sp)
    7b14:	0101                	.insn	2, 0x0101
    7b16:	0101                	.insn	2, 0x0101
    7b18:	0c01                	.insn	2, 0x0c01
    7b1a:	0004                	.insn	2, 0x0004
    7b1c:	0000                	.insn	2, 0x
    7b1e:	0000                	.insn	2, 0x
    7b20:	0900                	.insn	2, 0x0900
    7b22:	0108                	.insn	2, 0x0108
    7b24:	0101                	.insn	2, 0x0101
    7b26:	0101                	.insn	2, 0x0101
    7b28:	0101                	.insn	2, 0x0101
    7b2a:	0101                	.insn	2, 0x0101
    7b2c:	0000040b          	.insn	4, 0x040b
    7b30:	0000                	.insn	2, 0x
    7b32:	0000                	.insn	2, 0x
    7b34:	0000                	.insn	2, 0x
    7b36:	0a06                	.insn	2, 0x0a06
    7b38:	0101                	.insn	2, 0x0101
    7b3a:	070d                	.insn	2, 0x070d
    7b3c:	0000                	.insn	2, 0x
    7b3e:	0209                	.insn	2, 0x0209
    7b40:	0808                	.insn	2, 0x0808
    7b42:	0808                	.insn	2, 0x0808
    7b44:	0208                	.insn	2, 0x0208
    7b46:	00000003          	lb	zero,0(zero) # 0 <_isr_handler>
    7b4a:	01010203          	lb	tp,16(sp)
    7b4e:	060a                	.insn	2, 0x060a
    7b50:	0c04                	.insn	2, 0x0c04
    7b52:	0101                	.insn	2, 0x0101
    7b54:	070d                	.insn	2, 0x070d
    7b56:	0000                	.insn	2, 0x
    7b58:	0000                	.insn	2, 0x
    7b5a:	01010d07          	.insn	4, 0x01010d07
    7b5e:	070c                	.insn	2, 0x070c
    7b60:	010d                	.insn	2, 0x010d
    7b62:	020a                	.insn	2, 0x020a
    7b64:	0201                	.insn	2, 0x0201
    7b66:	0a0e                	.insn	2, 0x0a0e
    7b68:	0101                	.insn	2, 0x0101
    7b6a:	0908                	.insn	2, 0x0908
    7b6c:	0000                	.insn	2, 0x
    7b6e:	0b04                	.insn	2, 0x0b04
    7b70:	0101                	.insn	2, 0x0101
    7b72:	0101                	.insn	2, 0x0101
    7b74:	0101                	.insn	2, 0x0101
    7b76:	0101                	.insn	2, 0x0101
    7b78:	0801                	.insn	2, 0x0801
    7b7a:	0009                	.insn	2, 0x0009
    7b7c:	0000                	.insn	2, 0x
    7b7e:	020e                	.insn	2, 0x020e
    7b80:	0101                	.insn	2, 0x0101
    7b82:	0101                	.insn	2, 0x0101
    7b84:	0101                	.insn	2, 0x0101
    7b86:	0101                	.insn	2, 0x0101
    7b88:	0a01                	.insn	2, 0x0a01
    7b8a:	0006                	.insn	2, 0x0006
    7b8c:	0700                	.insn	2, 0x0700
    7b8e:	0101                	.insn	2, 0x0101
    7b90:	070d                	.insn	2, 0x070d
    7b92:	0b06                	.insn	2, 0x0b06
    7b94:	0101                	.insn	2, 0x0101
    7b96:	0c01                	.insn	2, 0x0c01
    7b98:	0201010b          	.insn	4, 0x0201010b
    7b9c:	0006                	.insn	2, 0x0006
    7b9e:	0000                	.insn	2, 0x
    7ba0:	0a06                	.insn	2, 0x0a06
    7ba2:	0101                	.insn	2, 0x0101
    7ba4:	0302                	.insn	2, 0x0302
    7ba6:	0900                	.insn	2, 0x0900
    7ba8:	0108                	.insn	2, 0x0108
    7baa:	0a01                	.insn	2, 0x0a01
    7bac:	0006                	.insn	2, 0x0006
    7bae:	0000                	.insn	2, 0x
    7bb0:	01010203          	lb	tp,16(sp)
    7bb4:	0101                	.insn	2, 0x0101
    7bb6:	0101                	.insn	2, 0x0101
    7bb8:	0a01                	.insn	2, 0x0a01
    7bba:	0006                	.insn	2, 0x0006
    7bbc:	0000                	.insn	2, 0x
    7bbe:	0000                	.insn	2, 0x
    7bc0:	0900                	.insn	2, 0x0900
    7bc2:	0108                	.insn	2, 0x0108
    7bc4:	0d01                	.insn	2, 0x0d01
    7bc6:	0d0d                	.insn	2, 0x0d0d
    7bc8:	0d0d                	.insn	2, 0x0d0d
    7bca:	0d0d                	.insn	2, 0x0d0d
    7bcc:	0000040b          	.insn	4, 0x040b
    7bd0:	0000                	.insn	2, 0x
    7bd2:	0000                	.insn	2, 0x
    7bd4:	0000                	.insn	2, 0x
    7bd6:	0a06                	.insn	2, 0x0a06
    7bd8:	0101                	.insn	2, 0x0101
    7bda:	0701                	.insn	2, 0x0701
    7bdc:	0000                	.insn	2, 0x
    7bde:	0809                	.insn	2, 0x0809
    7be0:	0101                	.insn	2, 0x0101
    7be2:	0101                	.insn	2, 0x0101
    7be4:	0201                	.insn	2, 0x0201
    7be6:	00000003          	lb	zero,0(zero) # 0 <_isr_handler>
    7bea:	080e                	.insn	2, 0x080e
    7bec:	0101                	.insn	2, 0x0101
    7bee:	0c00040b          	.insn	4, 0x0c00040b
    7bf2:	0101                	.insn	2, 0x0101
    7bf4:	0c01                	.insn	2, 0x0c01
    7bf6:	0004                	.insn	2, 0x0004
    7bf8:	0000                	.insn	2, 0x
    7bfa:	01010d07          	.insn	4, 0x01010d07
    7bfe:	090c                	.insn	2, 0x090c
    7c00:	0108                	.insn	2, 0x0108
    7c02:	0802                	.insn	2, 0x0802
    7c04:	0201                	.insn	2, 0x0201
    7c06:	0a0e                	.insn	2, 0x0a0e
    7c08:	0101                	.insn	2, 0x0101
    7c0a:	0908                	.insn	2, 0x0908
    7c0c:	0000                	.insn	2, 0x
    7c0e:	0b04                	.insn	2, 0x0b04
    7c10:	0101                	.insn	2, 0x0101
    7c12:	0d01                	.insn	2, 0x0d01
    7c14:	0d0d                	.insn	2, 0x0d0d
    7c16:	0d0d                	.insn	2, 0x0d0d
    7c18:	020d                	.insn	2, 0x020d
    7c1a:	0009                	.insn	2, 0x0009
    7c1c:	0000                	.insn	2, 0x
    7c1e:	01020b03          	lb	s6,16(tp) # 10 <_isr_routine+0x8>
    7c22:	0101                	.insn	2, 0x0101
    7c24:	0101                	.insn	2, 0x0101
    7c26:	0101                	.insn	2, 0x0101
    7c28:	0201                	.insn	2, 0x0201
    7c2a:	07000003          	lb	zero,112(zero) # 70 <_isr_routine+0x68>
    7c2e:	0101                	.insn	2, 0x0101
    7c30:	070d                	.insn	2, 0x070d
    7c32:	0c04                	.insn	2, 0x0c04
    7c34:	0101                	.insn	2, 0x0101
    7c36:	0a01                	.insn	2, 0x0a01
    7c38:	0201010b          	.insn	4, 0x0201010b
    7c3c:	0006                	.insn	2, 0x0006
    7c3e:	0000                	.insn	2, 0x
    7c40:	01010203          	lb	tp,16(sp)
    7c44:	060a                	.insn	2, 0x060a
    7c46:	0300                	.insn	2, 0x0300
    7c48:	0102                	.insn	2, 0x0102
    7c4a:	0201                	.insn	2, 0x0201
    7c4c:	0006                	.insn	2, 0x0006
    7c4e:	0000                	.insn	2, 0x
    7c50:	01010203          	lb	tp,16(sp)
    7c54:	0101                	.insn	2, 0x0101
    7c56:	0101                	.insn	2, 0x0101
    7c58:	0201                	.insn	2, 0x0201
    7c5a:	000e                	.insn	2, 0x000e
    7c5c:	0000                	.insn	2, 0x
    7c5e:	0000                	.insn	2, 0x
    7c60:	0900                	.insn	2, 0x0900
    7c62:	0108                	.insn	2, 0x0108
    7c64:	0201                	.insn	2, 0x0201
    7c66:	0202                	.insn	2, 0x0202
    7c68:	0202                	.insn	2, 0x0202
    7c6a:	0202                	.insn	2, 0x0202
    7c6c:	0000040b          	.insn	4, 0x040b
    7c70:	0000                	.insn	2, 0x
    7c72:	0000                	.insn	2, 0x
    7c74:	0000                	.insn	2, 0x
    7c76:	0a06                	.insn	2, 0x0a06
    7c78:	0101                	.insn	2, 0x0101
    7c7a:	0701                	.insn	2, 0x0701
    7c7c:	0000                	.insn	2, 0x
    7c7e:	0809                	.insn	2, 0x0809
    7c80:	0101                	.insn	2, 0x0101
    7c82:	0101                	.insn	2, 0x0101
    7c84:	0201                	.insn	2, 0x0201
    7c86:	00000003          	lb	zero,0(zero) # 0 <_isr_handler>
    7c8a:	0809                	.insn	2, 0x0809
    7c8c:	0101                	.insn	2, 0x0101
    7c8e:	040c                	.insn	2, 0x040c
    7c90:	0700                	.insn	2, 0x0700
    7c92:	010d                	.insn	2, 0x010d
    7c94:	2101                	.insn	2, 0x2101
    7c96:	0004                	.insn	2, 0x0004
    7c98:	0000                	.insn	2, 0x
    7c9a:	01010d07          	.insn	4, 0x01010d07
    7c9e:	0e0c                	.insn	2, 0x0e0c
    7ca0:	0102                	.insn	2, 0x0102
    7ca2:	0101                	.insn	2, 0x0101
    7ca4:	0a01                	.insn	2, 0x0a01
    7ca6:	01010a03          	lb	s4,16(sp)
    7caa:	0908                	.insn	2, 0x0908
    7cac:	0000                	.insn	2, 0x
    7cae:	0b04                	.insn	2, 0x0b04
    7cb0:	0101                	.insn	2, 0x0101
    7cb2:	020d                	.insn	2, 0x020d
    7cb4:	0202                	.insn	2, 0x0202
    7cb6:	0202                	.insn	2, 0x0202
    7cb8:	0202                	.insn	2, 0x0202
    7cba:	0009                	.insn	2, 0x0009
    7cbc:	0000                	.insn	2, 0x
    7cbe:	0904                	.insn	2, 0x0904
    7cc0:	0202                	.insn	2, 0x0202
    7cc2:	0101                	.insn	2, 0x0101
    7cc4:	0101                	.insn	2, 0x0101
    7cc6:	0101                	.insn	2, 0x0101
    7cc8:	0801                	.insn	2, 0x0801
    7cca:	0009                	.insn	2, 0x0009
    7ccc:	0700                	.insn	2, 0x0700
    7cce:	0101                	.insn	2, 0x0101
    7cd0:	070d                	.insn	2, 0x070d
    7cd2:	0700                	.insn	2, 0x0700
    7cd4:	0108                	.insn	2, 0x0108
    7cd6:	0201                	.insn	2, 0x0201
    7cd8:	010a                	.insn	2, 0x010a
    7cda:	0201                	.insn	2, 0x0201
    7cdc:	0006                	.insn	2, 0x0006
    7cde:	0000                	.insn	2, 0x
    7ce0:	020e                	.insn	2, 0x020e
    7ce2:	0101                	.insn	2, 0x0101
    7ce4:	060a                	.insn	2, 0x060a
    7ce6:	0600                	.insn	2, 0x0600
    7ce8:	0102                	.insn	2, 0x0102
    7cea:	0201                	.insn	2, 0x0201
    7cec:	00000003          	lb	zero,0(zero) # 0 <_isr_handler>
    7cf0:	01010203          	lb	tp,16(sp)
    7cf4:	0101                	.insn	2, 0x0101
    7cf6:	0101                	.insn	2, 0x0101
    7cf8:	0801                	.insn	2, 0x0801
    7cfa:	0009                	.insn	2, 0x0009
    7cfc:	0000                	.insn	2, 0x
    7cfe:	0000                	.insn	2, 0x
    7d00:	0900                	.insn	2, 0x0900
    7d02:	0108                	.insn	2, 0x0108
    7d04:	0201                	.insn	2, 0x0201
    7d06:	0202                	.insn	2, 0x0202
    7d08:	0202                	.insn	2, 0x0202
    7d0a:	0202                	.insn	2, 0x0202
    7d0c:	040c                	.insn	2, 0x040c
	...
    7d16:	0a04                	.insn	2, 0x0a04
    7d18:	0101                	.insn	2, 0x0101
    7d1a:	0701                	.insn	2, 0x0701
    7d1c:	0000                	.insn	2, 0x
    7d1e:	0809                	.insn	2, 0x0809
    7d20:	0101                	.insn	2, 0x0101
    7d22:	0101                	.insn	2, 0x0101
    7d24:	0201                	.insn	2, 0x0201
    7d26:	00000003          	lb	zero,0(zero) # 0 <_isr_handler>
    7d2a:	01010d07          	.insn	4, 0x01010d07
    7d2e:	000c                	.insn	2, 0x000c
    7d30:	0900                	.insn	2, 0x0900
    7d32:	0108                	.insn	2, 0x0108
    7d34:	0b01                	.insn	2, 0x0b01
    7d36:	0004                	.insn	2, 0x0004
    7d38:	0000                	.insn	2, 0x
    7d3a:	01010d07          	.insn	4, 0x01010d07
    7d3e:	030c                	.insn	2, 0x030c
    7d40:	0102                	.insn	2, 0x0102
    7d42:	0101                	.insn	2, 0x0101
    7d44:	0b01                	.insn	2, 0x0b01
    7d46:	01010a03          	lb	s4,16(sp)
    7d4a:	0908                	.insn	2, 0x0908
    7d4c:	0000                	.insn	2, 0x
    7d4e:	0b04                	.insn	2, 0x0b04
    7d50:	0101                	.insn	2, 0x0101
    7d52:	020d                	.insn	2, 0x020d
    7d54:	0202                	.insn	2, 0x0202
    7d56:	0202                	.insn	2, 0x0202
    7d58:	0202                	.insn	2, 0x0202
    7d5a:	0009                	.insn	2, 0x0009
    7d5c:	0000                	.insn	2, 0x
    7d5e:	0300                	.insn	2, 0x0300
    7d60:	01020207          	.insn	4, 0x01020207
    7d64:	0101                	.insn	2, 0x0101
    7d66:	0101                	.insn	2, 0x0101
    7d68:	0d01                	.insn	2, 0x0d01
    7d6a:	07000007          	.insn	4, 0x07000007
    7d6e:	0101                	.insn	2, 0x0101
    7d70:	070d                	.insn	2, 0x070d
    7d72:	0e00                	.insn	2, 0x0e00
    7d74:	0102                	.insn	2, 0x0102
    7d76:	0201                	.insn	2, 0x0201
    7d78:	0102                	.insn	2, 0x0102
    7d7a:	0201                	.insn	2, 0x0201
    7d7c:	0006                	.insn	2, 0x0006
    7d7e:	0000                	.insn	2, 0x
    7d80:	0809                	.insn	2, 0x0809
    7d82:	0101                	.insn	2, 0x0101
    7d84:	0304060b          	.insn	4, 0x0304060b
    7d88:	010a                	.insn	2, 0x010a
    7d8a:	0801                	.insn	2, 0x0801
    7d8c:	000e                	.insn	2, 0x000e
    7d8e:	0000                	.insn	2, 0x
    7d90:	01010203          	lb	tp,16(sp)
    7d94:	0101                	.insn	2, 0x0101
    7d96:	0101                	.insn	2, 0x0101
    7d98:	0d01                	.insn	2, 0x0d01
    7d9a:	040c                	.insn	2, 0x040c
    7d9c:	0000                	.insn	2, 0x
    7d9e:	0000                	.insn	2, 0x
    7da0:	0900                	.insn	2, 0x0900
    7da2:	0108                	.insn	2, 0x0108
    7da4:	0a01                	.insn	2, 0x0a01
    7da6:	03030303          	lb	t1,48(t1)
    7daa:	04030303          	lb	t1,64(t1)
	...
    7db6:	0b04                	.insn	2, 0x0b04
    7db8:	0101                	.insn	2, 0x0101
    7dba:	0c01                	.insn	2, 0x0c01
    7dbc:	0000                	.insn	2, 0x
    7dbe:	0809                	.insn	2, 0x0809
    7dc0:	0101                	.insn	2, 0x0101
    7dc2:	0101                	.insn	2, 0x0101
    7dc4:	0201                	.insn	2, 0x0201
    7dc6:	00000003          	lb	zero,0(zero) # 0 <_isr_handler>
    7dca:	010c                	.insn	2, 0x010c
    7dcc:	0d01                	.insn	2, 0x0d01
    7dce:	0e040607          	.insn	4, 0x0e040607
    7dd2:	0108                	.insn	2, 0x0108
    7dd4:	0a01                	.insn	2, 0x0a01
    7dd6:	0006                	.insn	2, 0x0006
    7dd8:	0000                	.insn	2, 0x
    7dda:	01010d07          	.insn	4, 0x01010d07
    7dde:	030c                	.insn	2, 0x030c
    7de0:	010a                	.insn	2, 0x010a
    7de2:	0101                	.insn	2, 0x0101
    7de4:	0c01                	.insn	2, 0x0c01
    7de6:	01010a03          	lb	s4,16(sp)
    7dea:	0908                	.insn	2, 0x0908
    7dec:	0000                	.insn	2, 0x
    7dee:	0b04                	.insn	2, 0x0b04
    7df0:	0101                	.insn	2, 0x0101
    7df2:	070d                	.insn	2, 0x070d
    7df4:	03030303          	lb	t1,48(t1)
    7df8:	00030303          	lb	t1,0(t1)
    7dfc:	0000                	.insn	2, 0x
    7dfe:	0400                	.insn	2, 0x0400
    7e00:	02020c03          	lb	s8,32(tp) # 20 <_isr_routine+0x18>
    7e04:	0108                	.insn	2, 0x0108
    7e06:	0101                	.insn	2, 0x0101
    7e08:	0101                	.insn	2, 0x0101
    7e0a:	000c                	.insn	2, 0x000c
    7e0c:	0700                	.insn	2, 0x0700
    7e0e:	0101                	.insn	2, 0x0101
    7e10:	070d                	.insn	2, 0x070d
    7e12:	0300                	.insn	2, 0x0300
    7e14:	0102                	.insn	2, 0x0102
    7e16:	0101                	.insn	2, 0x0101
    7e18:	0101                	.insn	2, 0x0101
    7e1a:	0201                	.insn	2, 0x0201
    7e1c:	0006                	.insn	2, 0x0006
    7e1e:	0000                	.insn	2, 0x
    7e20:	01010807          	.insn	4, 0x01010807
    7e24:	030c                	.insn	2, 0x030c
    7e26:	010b0303          	lb	t1,16(s6)
    7e2a:	0801                	.insn	2, 0x0801
    7e2c:	0009                	.insn	2, 0x0009
    7e2e:	0000                	.insn	2, 0x
    7e30:	01010203          	lb	tp,16(sp)
    7e34:	0201                	.insn	2, 0x0201
    7e36:	0102                	.insn	2, 0x0102
    7e38:	0101                	.insn	2, 0x0101
    7e3a:	0000060b          	.insn	4, 0x060b
    7e3e:	0000                	.insn	2, 0x
    7e40:	0900                	.insn	2, 0x0900
    7e42:	0108                	.insn	2, 0x0108
    7e44:	0a01                	.insn	2, 0x0a01
    7e46:	03030303          	lb	t1,48(t1)
    7e4a:	04030303          	lb	t1,64(t1)
	...
    7e56:	0b04                	.insn	2, 0x0b04
    7e58:	0101                	.insn	2, 0x0101
    7e5a:	0c01                	.insn	2, 0x0c01
    7e5c:	0000                	.insn	2, 0x
    7e5e:	0209                	.insn	2, 0x0209
    7e60:	0101                	.insn	2, 0x0101
    7e62:	0101                	.insn	2, 0x0101
    7e64:	0201                	.insn	2, 0x0201
    7e66:	04000003          	lb	zero,64(zero) # 40 <_isr_routine+0x38>
    7e6a:	0121                	.insn	2, 0x0121
    7e6c:	0801                	.insn	2, 0x0801
    7e6e:	0309                	.insn	2, 0x0309
    7e70:	01020e03          	lb	t3,16(tp) # 10 <_isr_routine+0x8>
    7e74:	0201                	.insn	2, 0x0201
    7e76:	0006                	.insn	2, 0x0006
    7e78:	0000                	.insn	2, 0x
    7e7a:	01010d07          	.insn	4, 0x01010d07
    7e7e:	060c                	.insn	2, 0x060c
    7e80:	0101010b          	.insn	4, 0x0101010b
    7e84:	070d                	.insn	2, 0x070d
    7e86:	0a06                	.insn	2, 0x0a06
    7e88:	0101                	.insn	2, 0x0101
    7e8a:	0908                	.insn	2, 0x0908
    7e8c:	0000                	.insn	2, 0x
    7e8e:	0b04                	.insn	2, 0x0b04
    7e90:	0101                	.insn	2, 0x0101
    7e92:	070d                	.insn	2, 0x070d
    7e94:	03030303          	lb	t1,48(t1)
    7e98:	00030303          	lb	t1,0(t1)
    7e9c:	0000                	.insn	2, 0x
    7e9e:	0000                	.insn	2, 0x
    7ea0:	0306                	.insn	2, 0x0306
    7ea2:	02020207          	.insn	4, 0x02020207
    7ea6:	0101                	.insn	2, 0x0101
    7ea8:	0101                	.insn	2, 0x0101
    7eaa:	040c                	.insn	2, 0x040c
    7eac:	0700                	.insn	2, 0x0700
    7eae:	0101                	.insn	2, 0x0101
    7eb0:	070d                	.insn	2, 0x070d
    7eb2:	0600                	.insn	2, 0x0600
    7eb4:	0101010b          	.insn	4, 0x0101010b
    7eb8:	0101                	.insn	2, 0x0101
    7eba:	0201                	.insn	2, 0x0201
    7ebc:	0006                	.insn	2, 0x0006
    7ebe:	0000                	.insn	2, 0x
    7ec0:	01010107          	.insn	4, 0x01010107
    7ec4:	0921                	.insn	2, 0x0921
    7ec6:	0909                	.insn	2, 0x0909
    7ec8:	0d01010b          	.insn	4, 0x0d01010b
    7ecc:	00000007          	.insn	4, 0x0007
    7ed0:	01010203          	lb	tp,16(sp)
    7ed4:	0a01                	.insn	2, 0x0a01
    7ed6:	010a                	.insn	2, 0x010a
    7ed8:	0101                	.insn	2, 0x0101
    7eda:	0302                	.insn	2, 0x0302
    7edc:	0000                	.insn	2, 0x
    7ede:	0000                	.insn	2, 0x
    7ee0:	0900                	.insn	2, 0x0900
    7ee2:	0108                	.insn	2, 0x0108
    7ee4:	0a01                	.insn	2, 0x0a01
    7ee6:	0006                	.insn	2, 0x0006
	...
    7ef4:	0000                	.insn	2, 0x
    7ef6:	0b04                	.insn	2, 0x0b04
    7ef8:	0101                	.insn	2, 0x0101
    7efa:	0c01                	.insn	2, 0x0c01
    7efc:	0004                	.insn	2, 0x0004
    7efe:	0209                	.insn	2, 0x0209
    7f00:	0202                	.insn	2, 0x0202
    7f02:	0102                	.insn	2, 0x0102
    7f04:	0201                	.insn	2, 0x0201
    7f06:	04000003          	lb	zero,64(zero) # 40 <_isr_routine+0x38>
    7f0a:	0801010b          	.insn	4, 0x0801010b
    7f0e:	09090907          	.insn	4, 0x09090907
    7f12:	0102                	.insn	2, 0x0102
    7f14:	0201                	.insn	2, 0x0201
    7f16:	000e                	.insn	2, 0x000e
    7f18:	0000                	.insn	2, 0x
    7f1a:	01010d07          	.insn	4, 0x01010d07
    7f1e:	060c                	.insn	2, 0x060c
    7f20:	010c                	.insn	2, 0x010c
    7f22:	0101                	.insn	2, 0x0101
    7f24:	0908                	.insn	2, 0x0908
    7f26:	0a06                	.insn	2, 0x0a06
    7f28:	0101                	.insn	2, 0x0101
    7f2a:	0908                	.insn	2, 0x0908
    7f2c:	0000                	.insn	2, 0x
    7f2e:	0b04                	.insn	2, 0x0b04
    7f30:	0101                	.insn	2, 0x0101
    7f32:	070d                	.insn	2, 0x070d
	...
    7f40:	0300                	.insn	2, 0x0300
    7f42:	020b0e03          	lb	t3,32(s6)
    7f46:	0101                	.insn	2, 0x0101
    7f48:	0101                	.insn	2, 0x0101
    7f4a:	0421                	.insn	2, 0x0421
    7f4c:	0700                	.insn	2, 0x0700
    7f4e:	0101                	.insn	2, 0x0101
    7f50:	070d                	.insn	2, 0x070d
    7f52:	0400                	.insn	2, 0x0400
    7f54:	010c                	.insn	2, 0x010c
    7f56:	0101                	.insn	2, 0x0101
    7f58:	0101                	.insn	2, 0x0101
    7f5a:	0201                	.insn	2, 0x0201
    7f5c:	0006                	.insn	2, 0x0006
    7f5e:	0400                	.insn	2, 0x0400
    7f60:	010c                	.insn	2, 0x010c
    7f62:	0d01                	.insn	2, 0x0d01
    7f64:	0202                	.insn	2, 0x0202
    7f66:	0202                	.insn	2, 0x0202
    7f68:	0102                	.insn	2, 0x0102
    7f6a:	0101                	.insn	2, 0x0101
    7f6c:	000c                	.insn	2, 0x000c
    7f6e:	0000                	.insn	2, 0x
    7f70:	01010203          	lb	tp,16(sp)
    7f74:	0c0d                	.insn	2, 0x0c0d
    7f76:	0101010b          	.insn	4, 0x0101010b
    7f7a:	0902                	.insn	2, 0x0902
    7f7c:	0000                	.insn	2, 0x
    7f7e:	0000                	.insn	2, 0x
    7f80:	0900                	.insn	2, 0x0900
    7f82:	0108                	.insn	2, 0x0108
    7f84:	0a01                	.insn	2, 0x0a01
    7f86:	0004                	.insn	2, 0x0004
	...
    7f94:	0000                	.insn	2, 0x
    7f96:	0b04                	.insn	2, 0x0b04
    7f98:	0101                	.insn	2, 0x0101
    7f9a:	0b01                	.insn	2, 0x0b01
    7f9c:	0004                	.insn	2, 0x0004
    7f9e:	0209                	.insn	2, 0x0209
    7fa0:	0202                	.insn	2, 0x0202
    7fa2:	0102                	.insn	2, 0x0102
    7fa4:	0201                	.insn	2, 0x0201
    7fa6:	06000003          	lb	zero,96(zero) # 60 <_isr_routine+0x58>
    7faa:	010a                	.insn	2, 0x010a
    7fac:	0201                	.insn	2, 0x0201
    7fae:	0202                	.insn	2, 0x0202
    7fb0:	0202                	.insn	2, 0x0202
    7fb2:	0102                	.insn	2, 0x0102
    7fb4:	0801                	.insn	2, 0x0801
    7fb6:	0009                	.insn	2, 0x0009
    7fb8:	0000                	.insn	2, 0x
    7fba:	01010d07          	.insn	4, 0x01010d07
    7fbe:	040c                	.insn	2, 0x040c
    7fc0:	010c                	.insn	2, 0x010c
    7fc2:	0101                	.insn	2, 0x0101
    7fc4:	0e08                	.insn	2, 0x0e08
    7fc6:	0a04                	.insn	2, 0x0a04
    7fc8:	0101                	.insn	2, 0x0101
    7fca:	0908                	.insn	2, 0x0908
    7fcc:	0000                	.insn	2, 0x
    7fce:	0b04                	.insn	2, 0x0b04
    7fd0:	0101                	.insn	2, 0x0101
    7fd2:	070d                	.insn	2, 0x070d
	...
    7fe0:	0000                	.insn	2, 0x
    7fe2:	0306                	.insn	2, 0x0306
    7fe4:	0b0e                	.insn	2, 0x0b0e
    7fe6:	0102                	.insn	2, 0x0102
    7fe8:	0101                	.insn	2, 0x0101
    7fea:	0700040b          	.insn	4, 0x0700040b
    7fee:	0101                	.insn	2, 0x0101
    7ff0:	070d                	.insn	2, 0x070d
    7ff2:	0000                	.insn	2, 0x
    7ff4:	01010d07          	.insn	4, 0x01010d07
    7ff8:	0101                	.insn	2, 0x0101
    7ffa:	0201                	.insn	2, 0x0201
    7ffc:	0006                	.insn	2, 0x0006
    7ffe:	0400                	.insn	2, 0x0400
    8000:	0801010b          	.insn	4, 0x0801010b
    8004:	0202                	.insn	2, 0x0202
    8006:	0202                	.insn	2, 0x0202
    8008:	0102                	.insn	2, 0x0102
    800a:	0101                	.insn	2, 0x0101
    800c:	040c                	.insn	2, 0x040c
    800e:	0000                	.insn	2, 0x
    8010:	01010203          	lb	tp,16(sp)
    8014:	0708                	.insn	2, 0x0708
    8016:	01010807          	.insn	4, 0x01010807
    801a:	0c0d                	.insn	2, 0x0c0d
    801c:	0004                	.insn	2, 0x0004
    801e:	0000                	.insn	2, 0x
    8020:	0900                	.insn	2, 0x0900
    8022:	0108                	.insn	2, 0x0108
    8024:	0a01                	.insn	2, 0x0a01
    8026:	0004                	.insn	2, 0x0004
	...
    8034:	0000                	.insn	2, 0x
    8036:	0c04                	.insn	2, 0x0c04
    8038:	0101                	.insn	2, 0x0101
    803a:	0a01                	.insn	2, 0x0a01
    803c:	0006                	.insn	2, 0x0006
    803e:	0e030303          	lb	t1,224(t1)
    8042:	0102                	.insn	2, 0x0102
    8044:	0201                	.insn	2, 0x0201
    8046:	06000003          	lb	zero,96(zero) # 60 <_isr_routine+0x58>
    804a:	0102                	.insn	2, 0x0102
    804c:	0201                	.insn	2, 0x0201
    804e:	0202                	.insn	2, 0x0202
    8050:	0202                	.insn	2, 0x0202
    8052:	0102                	.insn	2, 0x0102
    8054:	0d01                	.insn	2, 0x0d01
    8056:	00000007          	.insn	4, 0x0007
    805a:	01010d07          	.insn	4, 0x01010d07
    805e:	040c                	.insn	2, 0x040c
    8060:	01010d07          	.insn	4, 0x01010d07
    8064:	0302                	.insn	2, 0x0302
    8066:	0a04                	.insn	2, 0x0a04
    8068:	0101                	.insn	2, 0x0101
    806a:	0908                	.insn	2, 0x0908
    806c:	0000                	.insn	2, 0x
    806e:	0b04                	.insn	2, 0x0b04
    8070:	0101                	.insn	2, 0x0101
    8072:	070d                	.insn	2, 0x070d
	...
    807c:	0304                	.insn	2, 0x0304
    807e:	0000                	.insn	2, 0x
    8080:	0000                	.insn	2, 0x
    8082:	0400                	.insn	2, 0x0400
    8084:	01020e03          	lb	t3,16(tp) # 10 <_isr_routine+0x8>
    8088:	0101                	.insn	2, 0x0101
    808a:	0700040b          	.insn	4, 0x0700040b
    808e:	0101                	.insn	2, 0x0101
    8090:	070d                	.insn	2, 0x070d
    8092:	0000                	.insn	2, 0x
    8094:	0209                	.insn	2, 0x0209
    8096:	0101                	.insn	2, 0x0101
    8098:	0101                	.insn	2, 0x0101
    809a:	0201                	.insn	2, 0x0201
    809c:	0006                	.insn	2, 0x0006
    809e:	0600                	.insn	2, 0x0600
    80a0:	010a                	.insn	2, 0x010a
    80a2:	0101                	.insn	2, 0x0101
    80a4:	0101                	.insn	2, 0x0101
    80a6:	0101                	.insn	2, 0x0101
    80a8:	0101                	.insn	2, 0x0101
    80aa:	0101                	.insn	2, 0x0101
    80ac:	0000040b          	.insn	4, 0x040b
    80b0:	01010203          	lb	tp,16(sp)
    80b4:	0e02                	.insn	2, 0x0e02
    80b6:	0209                	.insn	2, 0x0209
    80b8:	0101                	.insn	2, 0x0101
    80ba:	0b01                	.insn	2, 0x0b01
    80bc:	0006                	.insn	2, 0x0006
    80be:	0000                	.insn	2, 0x
    80c0:	0900                	.insn	2, 0x0900
    80c2:	0108                	.insn	2, 0x0108
    80c4:	0a01                	.insn	2, 0x0a01
    80c6:	0004                	.insn	2, 0x0004
	...
    80d4:	0000                	.insn	2, 0x
    80d6:	0c00                	.insn	2, 0x0c00
    80d8:	0101                	.insn	2, 0x0101
    80da:	0201                	.insn	2, 0x0201
    80dc:	0006                	.insn	2, 0x0006
    80de:	0e030303          	lb	t1,224(t1)
    80e2:	0102                	.insn	2, 0x0102
    80e4:	0201                	.insn	2, 0x0201
    80e6:	03000003          	lb	zero,48(zero) # 30 <_isr_routine+0x28>
    80ea:	0102                	.insn	2, 0x0102
    80ec:	0101                	.insn	2, 0x0101
    80ee:	0101                	.insn	2, 0x0101
    80f0:	0101                	.insn	2, 0x0101
    80f2:	0101                	.insn	2, 0x0101
    80f4:	0d01                	.insn	2, 0x0d01
    80f6:	00000007          	.insn	4, 0x0007
    80fa:	01010d07          	.insn	4, 0x01010d07
    80fe:	000c                	.insn	2, 0x000c
    8100:	0809                	.insn	2, 0x0809
    8102:	0101                	.insn	2, 0x0101
    8104:	060a                	.insn	2, 0x060a
    8106:	0a04                	.insn	2, 0x0a04
    8108:	0101                	.insn	2, 0x0101
    810a:	0908                	.insn	2, 0x0908
    810c:	0000                	.insn	2, 0x
    810e:	0b04                	.insn	2, 0x0b04
    8110:	0101                	.insn	2, 0x0101
    8112:	070d                	.insn	2, 0x070d
	...
    811c:	0304                	.insn	2, 0x0304
    811e:	0006                	.insn	2, 0x0006
    8120:	0000                	.insn	2, 0x
    8122:	0000                	.insn	2, 0x
    8124:	0300                	.insn	2, 0x0300
    8126:	0101010b          	.insn	4, 0x0101010b
    812a:	0700040b          	.insn	4, 0x0700040b
    812e:	0101                	.insn	2, 0x0101
    8130:	070d                	.insn	2, 0x070d
    8132:	0000                	.insn	2, 0x
    8134:	01010203          	lb	tp,16(sp)
    8138:	0101                	.insn	2, 0x0101
    813a:	0201                	.insn	2, 0x0201
    813c:	0006                	.insn	2, 0x0006
    813e:	0600                	.insn	2, 0x0600
    8140:	010a                	.insn	2, 0x010a
    8142:	0101                	.insn	2, 0x0101
    8144:	0101                	.insn	2, 0x0101
    8146:	0101                	.insn	2, 0x0101
    8148:	0101                	.insn	2, 0x0101
    814a:	0101                	.insn	2, 0x0101
    814c:	060a                	.insn	2, 0x060a
    814e:	0000                	.insn	2, 0x
    8150:	01010203          	lb	tp,16(sp)
    8154:	0302                	.insn	2, 0x0302
    8156:	01010203          	lb	tp,16(sp)
    815a:	0201                	.insn	2, 0x0201
    815c:	00000003          	lb	zero,0(zero) # 0 <_isr_handler>
    8160:	0900                	.insn	2, 0x0900
    8162:	0108                	.insn	2, 0x0108
    8164:	0a01                	.insn	2, 0x0a01
    8166:	0004                	.insn	2, 0x0004
	...
    8174:	0000                	.insn	2, 0x
    8176:	0700                	.insn	2, 0x0700
    8178:	010d                	.insn	2, 0x010d
    817a:	0201                	.insn	2, 0x0201
    817c:	000e                	.insn	2, 0x000e
    817e:	0000                	.insn	2, 0x
    8180:	0300                	.insn	2, 0x0300
    8182:	0102                	.insn	2, 0x0102
    8184:	0201                	.insn	2, 0x0201
    8186:	09000003          	lb	zero,144(zero) # 90 <_isr_routine+0x88>
    818a:	0108                	.insn	2, 0x0108
    818c:	0101                	.insn	2, 0x0101
    818e:	0101                	.insn	2, 0x0101
    8190:	0101                	.insn	2, 0x0101
    8192:	0101                	.insn	2, 0x0101
    8194:	0101                	.insn	2, 0x0101
    8196:	040c                	.insn	2, 0x040c
    8198:	0000                	.insn	2, 0x
    819a:	01010d07          	.insn	4, 0x01010d07
    819e:	000c                	.insn	2, 0x000c
    81a0:	01010203          	lb	tp,16(sp)
    81a4:	060a                	.insn	2, 0x060a
    81a6:	0a04                	.insn	2, 0x0a04
    81a8:	0101                	.insn	2, 0x0101
    81aa:	0908                	.insn	2, 0x0908
    81ac:	0000                	.insn	2, 0x
    81ae:	0b04                	.insn	2, 0x0b04
    81b0:	0101                	.insn	2, 0x0101
    81b2:	070d                	.insn	2, 0x070d
	...
    81bc:	0c04                	.insn	2, 0x0c04
    81be:	00000003          	lb	zero,0(zero) # 0 <_isr_handler>
    81c2:	0000                	.insn	2, 0x
    81c4:	0400                	.insn	2, 0x0400
    81c6:	010c                	.insn	2, 0x010c
    81c8:	0101                	.insn	2, 0x0101
    81ca:	0700040b          	.insn	4, 0x0700040b
    81ce:	0101                	.insn	2, 0x0101
    81d0:	070d                	.insn	2, 0x070d
    81d2:	0000                	.insn	2, 0x
    81d4:	0a06                	.insn	2, 0x0a06
    81d6:	0101                	.insn	2, 0x0101
    81d8:	0101                	.insn	2, 0x0101
    81da:	0201                	.insn	2, 0x0201
    81dc:	0006                	.insn	2, 0x0006
    81de:	0300                	.insn	2, 0x0300
    81e0:	0102                	.insn	2, 0x0102
    81e2:	0101                	.insn	2, 0x0101
    81e4:	0101                	.insn	2, 0x0101
    81e6:	0101                	.insn	2, 0x0101
    81e8:	0101                	.insn	2, 0x0101
    81ea:	0101                	.insn	2, 0x0101
    81ec:	0602                	.insn	2, 0x0602
    81ee:	0000                	.insn	2, 0x
    81f0:	01010203          	lb	tp,16(sp)
    81f4:	0302                	.insn	2, 0x0302
    81f6:	0b06                	.insn	2, 0x0b06
    81f8:	0101                	.insn	2, 0x0101
    81fa:	0201                	.insn	2, 0x0201
    81fc:	0009                	.insn	2, 0x0009
    81fe:	0000                	.insn	2, 0x
    8200:	0900                	.insn	2, 0x0900
    8202:	0108                	.insn	2, 0x0108
    8204:	0a01                	.insn	2, 0x0a01
    8206:	0004                	.insn	2, 0x0004
	...
    8214:	0000                	.insn	2, 0x
    8216:	0700                	.insn	2, 0x0700
    8218:	010d                	.insn	2, 0x010d
    821a:	0801                	.insn	2, 0x0801
    821c:	0009                	.insn	2, 0x0009
    821e:	0000                	.insn	2, 0x
    8220:	0300                	.insn	2, 0x0300
    8222:	0102                	.insn	2, 0x0102
    8224:	0201                	.insn	2, 0x0201
    8226:	09000003          	lb	zero,144(zero) # 90 <_isr_routine+0x88>
    822a:	0108                	.insn	2, 0x0108
    822c:	0101                	.insn	2, 0x0101
    822e:	0101                	.insn	2, 0x0101
    8230:	0101                	.insn	2, 0x0101
    8232:	0101                	.insn	2, 0x0101
    8234:	0101                	.insn	2, 0x0101
    8236:	0000040b          	.insn	4, 0x040b
    823a:	01010d07          	.insn	4, 0x01010d07
    823e:	000c                	.insn	2, 0x000c
    8240:	0206                	.insn	2, 0x0206
    8242:	0101                	.insn	2, 0x0101
    8244:	0a04040b          	.insn	4, 0x0a04040b
    8248:	0101                	.insn	2, 0x0101
    824a:	0908                	.insn	2, 0x0908
    824c:	0000                	.insn	2, 0x
    824e:	0b04                	.insn	2, 0x0b04
    8250:	0101                	.insn	2, 0x0101
    8252:	070d                	.insn	2, 0x070d
	...
    825c:	0b04                	.insn	2, 0x0b04
    825e:	0609                	.insn	2, 0x0609
    8260:	0000                	.insn	2, 0x
    8262:	0000                	.insn	2, 0x
    8264:	0000                	.insn	2, 0x
    8266:	01010107          	.insn	4, 0x01010107
    826a:	0700040b          	.insn	4, 0x0700040b
    826e:	0101                	.insn	2, 0x0101
    8270:	070d                	.insn	2, 0x070d
    8272:	0000                	.insn	2, 0x
    8274:	2104                	.insn	2, 0x2104
    8276:	0101                	.insn	2, 0x0101
    8278:	0101                	.insn	2, 0x0101
    827a:	0201                	.insn	2, 0x0201
    827c:	0006                	.insn	2, 0x0006
    827e:	0e00                	.insn	2, 0x0e00
    8280:	0102                	.insn	2, 0x0102
    8282:	0101                	.insn	2, 0x0101
    8284:	0101                	.insn	2, 0x0101
    8286:	0101                	.insn	2, 0x0101
    8288:	0101                	.insn	2, 0x0101
    828a:	0101                	.insn	2, 0x0101
    828c:	0302                	.insn	2, 0x0302
    828e:	0000                	.insn	2, 0x
    8290:	01010203          	lb	tp,16(sp)
    8294:	0302                	.insn	2, 0x0302
    8296:	0c04                	.insn	2, 0x0c04
    8298:	010d                	.insn	2, 0x010d
    829a:	0801                	.insn	2, 0x0801
    829c:	00000407          	.insn	4, 0x0407
    82a0:	0900                	.insn	2, 0x0900
    82a2:	0108                	.insn	2, 0x0108
    82a4:	0a01                	.insn	2, 0x0a01
    82a6:	0004                	.insn	2, 0x0004
	...
    82b4:	0000                	.insn	2, 0x
    82b6:	0900                	.insn	2, 0x0900
    82b8:	0108                	.insn	2, 0x0108
    82ba:	0d01                	.insn	2, 0x0d01
    82bc:	040c                	.insn	2, 0x040c
    82be:	0000                	.insn	2, 0x
    82c0:	0300                	.insn	2, 0x0300
    82c2:	0102                	.insn	2, 0x0102
    82c4:	0201                	.insn	2, 0x0201
    82c6:	07000003          	lb	zero,112(zero) # 70 <_isr_routine+0x68>
    82ca:	010d                	.insn	2, 0x010d
    82cc:	0101                	.insn	2, 0x0101
    82ce:	0101                	.insn	2, 0x0101
    82d0:	0101                	.insn	2, 0x0101
    82d2:	0101                	.insn	2, 0x0101
    82d4:	0101                	.insn	2, 0x0101
    82d6:	060a                	.insn	2, 0x060a
    82d8:	0000                	.insn	2, 0x
    82da:	01010d07          	.insn	4, 0x01010d07
    82de:	000c                	.insn	2, 0x000c
    82e0:	0a06                	.insn	2, 0x0a06
    82e2:	0202                	.insn	2, 0x0202
    82e4:	040c                	.insn	2, 0x040c
    82e6:	0a04                	.insn	2, 0x0a04
    82e8:	0101                	.insn	2, 0x0101
    82ea:	0908                	.insn	2, 0x0908
    82ec:	0000                	.insn	2, 0x
    82ee:	0b04                	.insn	2, 0x0b04
    82f0:	0101                	.insn	2, 0x0101
    82f2:	070d                	.insn	2, 0x070d
	...
    82fc:	0b04                	.insn	2, 0x0b04
    82fe:	0004030b          	.insn	4, 0x0004030b
    8302:	0000                	.insn	2, 0x
    8304:	0000                	.insn	2, 0x
    8306:	01010107          	.insn	4, 0x01010107
    830a:	0700040b          	.insn	4, 0x0700040b
    830e:	0101                	.insn	2, 0x0101
    8310:	070d                	.insn	2, 0x070d
    8312:	0000                	.insn	2, 0x
    8314:	0704                	.insn	2, 0x0704
    8316:	010d                	.insn	2, 0x010d
    8318:	0101                	.insn	2, 0x0101
    831a:	0201                	.insn	2, 0x0201
    831c:	0006                	.insn	2, 0x0006
    831e:	0900                	.insn	2, 0x0900
    8320:	0108                	.insn	2, 0x0108
    8322:	0101                	.insn	2, 0x0101
    8324:	0101                	.insn	2, 0x0101
    8326:	0101                	.insn	2, 0x0101
    8328:	0101                	.insn	2, 0x0101
    832a:	0101                	.insn	2, 0x0101
    832c:	0e08                	.insn	2, 0x0e08
    832e:	0000                	.insn	2, 0x
    8330:	01010203          	lb	tp,16(sp)
    8334:	0302                	.insn	2, 0x0302
    8336:	0900                	.insn	2, 0x0900
    8338:	0108                	.insn	2, 0x0108
    833a:	0101                	.insn	2, 0x0101
    833c:	0000060b          	.insn	4, 0x060b
    8340:	0900                	.insn	2, 0x0900
    8342:	0108                	.insn	2, 0x0108
    8344:	0a01                	.insn	2, 0x0a01
    8346:	0004                	.insn	2, 0x0004
	...
    8354:	0000                	.insn	2, 0x
    8356:	0300                	.insn	2, 0x0300
    8358:	0102                	.insn	2, 0x0102
    835a:	0101                	.insn	2, 0x0101
    835c:	0000030b          	.insn	4, 0x030b
    8360:	0300                	.insn	2, 0x0300
    8362:	0102                	.insn	2, 0x0102
    8364:	0201                	.insn	2, 0x0201
    8366:	0c040003          	lb	zero,192(s0)
    836a:	0101                	.insn	2, 0x0101
    836c:	0101                	.insn	2, 0x0101
    836e:	0101                	.insn	2, 0x0101
    8370:	0101                	.insn	2, 0x0101
    8372:	0101                	.insn	2, 0x0101
    8374:	0101                	.insn	2, 0x0101
    8376:	060a                	.insn	2, 0x060a
    8378:	0000                	.insn	2, 0x
    837a:	01010d07          	.insn	4, 0x01010d07
    837e:	000c                	.insn	2, 0x000c
    8380:	0b04                	.insn	2, 0x0b04
    8382:	0202                	.insn	2, 0x0202
    8384:	0a040007          	.insn	4, 0x0a040007
    8388:	0101                	.insn	2, 0x0101
    838a:	0908                	.insn	2, 0x0908
    838c:	0000                	.insn	2, 0x
    838e:	0b04                	.insn	2, 0x0b04
    8390:	0101                	.insn	2, 0x0101
    8392:	070d                	.insn	2, 0x070d
	...
    839c:	0b04                	.insn	2, 0x0b04
    839e:	0702                	.insn	2, 0x0702
    83a0:	00000003          	lb	zero,0(zero) # 0 <_isr_handler>
    83a4:	0600                	.insn	2, 0x0600
    83a6:	010c                	.insn	2, 0x010c
    83a8:	0101                	.insn	2, 0x0101
    83aa:	040c                	.insn	2, 0x040c
    83ac:	0700                	.insn	2, 0x0700
    83ae:	0101                	.insn	2, 0x0101
    83b0:	070d                	.insn	2, 0x070d
    83b2:	0000                	.insn	2, 0x
    83b4:	0900                	.insn	2, 0x0900
    83b6:	0108                	.insn	2, 0x0108
    83b8:	0101                	.insn	2, 0x0101
    83ba:	0201                	.insn	2, 0x0201
    83bc:	0006                	.insn	2, 0x0006
    83be:	0700                	.insn	2, 0x0700
    83c0:	010d                	.insn	2, 0x010d
    83c2:	0201                	.insn	2, 0x0201
    83c4:	0202                	.insn	2, 0x0202
    83c6:	0202                	.insn	2, 0x0202
    83c8:	0202                	.insn	2, 0x0202
    83ca:	0101                	.insn	2, 0x0101
    83cc:	090d                	.insn	2, 0x090d
    83ce:	0000                	.insn	2, 0x
    83d0:	01010203          	lb	tp,16(sp)
    83d4:	0302                	.insn	2, 0x0302
    83d6:	0e00                	.insn	2, 0x0e00
    83d8:	0102                	.insn	2, 0x0102
    83da:	0101                	.insn	2, 0x0101
    83dc:	030a                	.insn	2, 0x030a
    83de:	0000                	.insn	2, 0x
    83e0:	0900                	.insn	2, 0x0900
    83e2:	0108                	.insn	2, 0x0108
    83e4:	0a01                	.insn	2, 0x0a01
    83e6:	06060603          	lb	a2,96(a2)
    83ea:	0606                	.insn	2, 0x0606
    83ec:	0606                	.insn	2, 0x0606
	...
    83f6:	0600                	.insn	2, 0x0600
    83f8:	010a                	.insn	2, 0x010a
    83fa:	0101                	.insn	2, 0x0101
    83fc:	0e02                	.insn	2, 0x0e02
    83fe:	0004                	.insn	2, 0x0004
    8400:	0300                	.insn	2, 0x0300
    8402:	0102                	.insn	2, 0x0102
    8404:	0201                	.insn	2, 0x0201
    8406:	0b040003          	lb	zero,176(s0)
    840a:	0101                	.insn	2, 0x0101
    840c:	020d                	.insn	2, 0x020d
    840e:	0202                	.insn	2, 0x0202
    8410:	0202                	.insn	2, 0x0202
    8412:	0202                	.insn	2, 0x0202
    8414:	0101                	.insn	2, 0x0101
    8416:	0302                	.insn	2, 0x0302
    8418:	0000                	.insn	2, 0x
    841a:	01010d07          	.insn	4, 0x01010d07
    841e:	000c                	.insn	2, 0x000c
    8420:	0904                	.insn	2, 0x0904
    8422:	000e0707          	.insn	4, 0x000e0707
    8426:	0a04                	.insn	2, 0x0a04
    8428:	0101                	.insn	2, 0x0101
    842a:	0908                	.insn	2, 0x0908
    842c:	0000                	.insn	2, 0x
    842e:	0b04                	.insn	2, 0x0b04
    8430:	0101                	.insn	2, 0x0101
    8432:	070d                	.insn	2, 0x070d
    8434:	0606                	.insn	2, 0x0606
    8436:	0606                	.insn	2, 0x0606
    8438:	0606                	.insn	2, 0x0606
    843a:	0406                	.insn	2, 0x0406
    843c:	0b04                	.insn	2, 0x0b04
    843e:	0a08                	.insn	2, 0x0a08
    8440:	030e                	.insn	2, 0x030e
    8442:	0406                	.insn	2, 0x0406
    8444:	0306                	.insn	2, 0x0306
    8446:	0101010b          	.insn	4, 0x0101010b
    844a:	000c                	.insn	2, 0x000c
    844c:	0700                	.insn	2, 0x0700
    844e:	0101                	.insn	2, 0x0101
    8450:	070d                	.insn	2, 0x070d
    8452:	0000                	.insn	2, 0x
    8454:	0300                	.insn	2, 0x0300
    8456:	0102                	.insn	2, 0x0102
    8458:	0101                	.insn	2, 0x0101
    845a:	0201                	.insn	2, 0x0201
    845c:	0006                	.insn	2, 0x0006
    845e:	0c00                	.insn	2, 0x0c00
    8460:	0101                	.insn	2, 0x0101
    8462:	0201                	.insn	2, 0x0201
    8464:	0202                	.insn	2, 0x0202
    8466:	0202                	.insn	2, 0x0202
    8468:	0202                	.insn	2, 0x0202
    846a:	0101                	.insn	2, 0x0101
    846c:	070d                	.insn	2, 0x070d
    846e:	0000                	.insn	2, 0x
    8470:	01010203          	lb	tp,16(sp)
    8474:	0302                	.insn	2, 0x0302
    8476:	0600                	.insn	2, 0x0600
    8478:	010a                	.insn	2, 0x010a
    847a:	0101                	.insn	2, 0x0101
    847c:	0e02                	.insn	2, 0x0e02
    847e:	0000                	.insn	2, 0x
    8480:	0900                	.insn	2, 0x0900
    8482:	0108                	.insn	2, 0x0108
    8484:	0a01                	.insn	2, 0x0a01
    8486:	03030303          	lb	t1,48(t1)
    848a:	03030303          	lb	t1,48(t1)
	...
    8496:	0600                	.insn	2, 0x0600
    8498:	0101010b          	.insn	4, 0x0101010b
    849c:	0c08                	.insn	2, 0x0c08
    849e:	03000603          	lb	a2,48(zero) # 30 <_isr_routine+0x28>
    84a2:	0102                	.insn	2, 0x0102
    84a4:	0201                	.insn	2, 0x0201
    84a6:	0b060003          	lb	zero,176(a2)
    84aa:	0101                	.insn	2, 0x0101
    84ac:	0208                	.insn	2, 0x0208
    84ae:	0202                	.insn	2, 0x0202
    84b0:	0202                	.insn	2, 0x0202
    84b2:	0202                	.insn	2, 0x0202
    84b4:	0101                	.insn	2, 0x0101
    84b6:	0e02                	.insn	2, 0x0e02
    84b8:	0000                	.insn	2, 0x
    84ba:	01010d07          	.insn	4, 0x01010d07
    84be:	000c                	.insn	2, 0x000c
    84c0:	0300                	.insn	2, 0x0300
    84c2:	00030303          	lb	t1,0(t1)
    84c6:	0a04                	.insn	2, 0x0a04
    84c8:	0101                	.insn	2, 0x0101
    84ca:	0908                	.insn	2, 0x0908
    84cc:	0000                	.insn	2, 0x
    84ce:	0b04                	.insn	2, 0x0b04
    84d0:	0101                	.insn	2, 0x0101
    84d2:	070d                	.insn	2, 0x070d
    84d4:	03030303          	lb	t1,48(t1)
    84d8:	04030303          	lb	t1,64(t1)
    84dc:	0b04                	.insn	2, 0x0b04
    84de:	0201                	.insn	2, 0x0201
    84e0:	03030e0b          	.insn	4, 0x03030e0b
    84e4:	01020903          	lb	s2,16(tp) # 10 <_isr_routine+0x8>
    84e8:	0d01                	.insn	2, 0x0d01
    84ea:	07000007          	.insn	4, 0x07000007
    84ee:	0101                	.insn	2, 0x0101
    84f0:	070d                	.insn	2, 0x070d
    84f2:	0000                	.insn	2, 0x
    84f4:	0600                	.insn	2, 0x0600
    84f6:	010a                	.insn	2, 0x010a
    84f8:	0101                	.insn	2, 0x0101
    84fa:	0201                	.insn	2, 0x0201
    84fc:	0006                	.insn	2, 0x0006
    84fe:	0c04                	.insn	2, 0x0c04
    8500:	0101                	.insn	2, 0x0101
    8502:	0c0d                	.insn	2, 0x0c0d
    8504:	0e0e                	.insn	2, 0x0e0e
    8506:	0e0e                	.insn	2, 0x0e0e
    8508:	0b0e                	.insn	2, 0x0b0e
    850a:	0101                	.insn	2, 0x0101
    850c:	0c01                	.insn	2, 0x0c01
    850e:	0004                	.insn	2, 0x0004
    8510:	01010203          	lb	tp,16(sp)
    8514:	0302                	.insn	2, 0x0302
    8516:	0400                	.insn	2, 0x0400
    8518:	010c                	.insn	2, 0x010c
    851a:	0101                	.insn	2, 0x0101
    851c:	0708                	.insn	2, 0x0708
    851e:	0000                	.insn	2, 0x
    8520:	0900                	.insn	2, 0x0900
    8522:	0108                	.insn	2, 0x0108
    8524:	0a01                	.insn	2, 0x0a01
    8526:	07070707          	.insn	4, 0x07070707
    852a:	0e070707          	.insn	4, 0x0e070707
	...
    8536:	0400                	.insn	2, 0x0400
    8538:	0d0c                	.insn	2, 0x0d0c
    853a:	0101                	.insn	2, 0x0101
    853c:	0201                	.insn	2, 0x0201
    853e:	0309                	.insn	2, 0x0309
    8540:	01020e03          	lb	t3,16(tp) # 10 <_isr_routine+0x8>
    8544:	0201                	.insn	2, 0x0201
    8546:	0a060003          	lb	zero,160(a2)
    854a:	0101                	.insn	2, 0x0101
    854c:	0908                	.insn	2, 0x0908
    854e:	0e0e                	.insn	2, 0x0e0e
    8550:	0e0e                	.insn	2, 0x0e0e
    8552:	0a0e                	.insn	2, 0x0a0e
    8554:	0101                	.insn	2, 0x0101
    8556:	0908                	.insn	2, 0x0908
    8558:	0000                	.insn	2, 0x
    855a:	01010d07          	.insn	4, 0x01010d07
    855e:	000c                	.insn	2, 0x000c
    8560:	0600                	.insn	2, 0x0600
    8562:	0606                	.insn	2, 0x0606
    8564:	0006                	.insn	2, 0x0006
    8566:	0a04                	.insn	2, 0x0a04
    8568:	0101                	.insn	2, 0x0101
    856a:	0908                	.insn	2, 0x0908
    856c:	0000                	.insn	2, 0x
    856e:	0b04                	.insn	2, 0x0b04
    8570:	0101                	.insn	2, 0x0101
    8572:	0c0d                	.insn	2, 0x0c0d
    8574:	07070707          	.insn	4, 0x07070707
    8578:	04090707          	.insn	4, 0x04090707
    857c:	0b04                	.insn	2, 0x0b04
    857e:	0101                	.insn	2, 0x0101
    8580:	0a02                	.insn	2, 0x0a02
    8582:	0e09                	.insn	2, 0x0e09
    8584:	0a09                	.insn	2, 0x0a09
    8586:	0108                	.insn	2, 0x0108
    8588:	0201                	.insn	2, 0x0201
    858a:	0009                	.insn	2, 0x0009
    858c:	0700                	.insn	2, 0x0700
    858e:	0101                	.insn	2, 0x0101
    8590:	070d                	.insn	2, 0x070d
    8592:	0000                	.insn	2, 0x
    8594:	0400                	.insn	2, 0x0400
    8596:	0101010b          	.insn	4, 0x0101010b
    859a:	0201                	.insn	2, 0x0201
    859c:	0006                	.insn	2, 0x0006
    859e:	0b04                	.insn	2, 0x0b04
    85a0:	0101                	.insn	2, 0x0101
    85a2:	070d                	.insn	2, 0x070d
    85a4:	03030303          	lb	t1,48(t1)
    85a8:	01010c03          	lb	s8,16(sp)
    85ac:	2101                	.insn	2, 0x2101
    85ae:	0004                	.insn	2, 0x0004
    85b0:	01010203          	lb	tp,16(sp)
    85b4:	0302                	.insn	2, 0x0302
    85b6:	0000                	.insn	2, 0x
    85b8:	01010807          	.insn	4, 0x01010807
    85bc:	0c01                	.insn	2, 0x0c01
    85be:	0004                	.insn	2, 0x0004
    85c0:	0900                	.insn	2, 0x0900
    85c2:	0108                	.insn	2, 0x0108
    85c4:	0201                	.insn	2, 0x0201
    85c6:	0202                	.insn	2, 0x0202
    85c8:	0202                	.insn	2, 0x0202
    85ca:	0202                	.insn	2, 0x0202
    85cc:	0e02                	.insn	2, 0x0e02
	...
    85d6:	0000                	.insn	2, 0x
    85d8:	01010807          	.insn	4, 0x01010807
    85dc:	0201                	.insn	2, 0x0201
    85de:	090a                	.insn	2, 0x090a
    85e0:	01020e03          	lb	t3,16(tp) # 10 <_isr_routine+0x8>
    85e4:	0201                	.insn	2, 0x0201
    85e6:	02060003          	lb	zero,32(a2)
    85ea:	0101                	.insn	2, 0x0101
    85ec:	0e02                	.insn	2, 0x0e02
    85ee:	03030303          	lb	t1,48(t1)
    85f2:	01010a03          	lb	s4,16(sp)
    85f6:	070d                	.insn	2, 0x070d
    85f8:	0000                	.insn	2, 0x
    85fa:	01010d07          	.insn	4, 0x01010d07
    85fe:	000c                	.insn	2, 0x000c
    8600:	0000                	.insn	2, 0x
    8602:	0000                	.insn	2, 0x
    8604:	0000                	.insn	2, 0x
    8606:	0a04                	.insn	2, 0x0a04
    8608:	0101                	.insn	2, 0x0101
    860a:	0908                	.insn	2, 0x0908
    860c:	0000                	.insn	2, 0x
    860e:	0b04                	.insn	2, 0x0b04
    8610:	0101                	.insn	2, 0x0101
    8612:	020d                	.insn	2, 0x020d
    8614:	0202                	.insn	2, 0x0202
    8616:	0202                	.insn	2, 0x0202
    8618:	0202                	.insn	2, 0x0202
    861a:	0b04040b          	.insn	4, 0x0b04040b
    861e:	0101                	.insn	2, 0x0101
    8620:	0208                	.insn	2, 0x0208
    8622:	0202                	.insn	2, 0x0202
    8624:	0202                	.insn	2, 0x0202
    8626:	0101                	.insn	2, 0x0101
    8628:	0201                	.insn	2, 0x0201
    862a:	07000003          	lb	zero,112(zero) # 70 <_isr_routine+0x68>
    862e:	0101                	.insn	2, 0x0101
    8630:	070d                	.insn	2, 0x070d
    8632:	0000                	.insn	2, 0x
    8634:	0400                	.insn	2, 0x0400
    8636:	0d0c                	.insn	2, 0x0d0c
    8638:	0101                	.insn	2, 0x0101
    863a:	0201                	.insn	2, 0x0201
    863c:	0006                	.insn	2, 0x0006
    863e:	0a06                	.insn	2, 0x0a06
    8640:	0101                	.insn	2, 0x0101
    8642:	0908                	.insn	2, 0x0908
    8644:	0404                	.insn	2, 0x0404
    8646:	0404                	.insn	2, 0x0404
    8648:	0704                	.insn	2, 0x0704
    864a:	010d                	.insn	2, 0x010d
    864c:	0b01                	.insn	2, 0x0b01
    864e:	0004                	.insn	2, 0x0004
    8650:	01010203          	lb	tp,16(sp)
    8654:	0302                	.insn	2, 0x0302
    8656:	0000                	.insn	2, 0x
    8658:	020e                	.insn	2, 0x020e
    865a:	0101                	.insn	2, 0x0101
    865c:	0a01                	.insn	2, 0x0a01
    865e:	0006                	.insn	2, 0x0006
    8660:	0900                	.insn	2, 0x0900
    8662:	0108                	.insn	2, 0x0108
    8664:	0201                	.insn	2, 0x0201
    8666:	0202                	.insn	2, 0x0202
    8668:	0202                	.insn	2, 0x0202
    866a:	0202                	.insn	2, 0x0202
    866c:	0e02                	.insn	2, 0x0e02
	...
    8676:	0000                	.insn	2, 0x
    8678:	020e                	.insn	2, 0x020e
    867a:	0101                	.insn	2, 0x0101
    867c:	0101                	.insn	2, 0x0101
    867e:	0202                	.insn	2, 0x0202
    8680:	0a0a                	.insn	2, 0x0a0a
    8682:	0102                	.insn	2, 0x0102
    8684:	0201                	.insn	2, 0x0201
    8686:	020e0003          	lb	zero,32(t3)
    868a:	0101                	.insn	2, 0x0101
    868c:	0302                	.insn	2, 0x0302
    868e:	0404                	.insn	2, 0x0404
    8690:	0404                	.insn	2, 0x0404
    8692:	0b06                	.insn	2, 0x0b06
    8694:	0101                	.insn	2, 0x0101
    8696:	0701                	.insn	2, 0x0701
    8698:	0000                	.insn	2, 0x
    869a:	01010d07          	.insn	4, 0x01010d07
    869e:	000c                	.insn	2, 0x000c
    86a0:	0000                	.insn	2, 0x
    86a2:	0000                	.insn	2, 0x
    86a4:	0000                	.insn	2, 0x
    86a6:	0a04                	.insn	2, 0x0a04
    86a8:	0101                	.insn	2, 0x0101
    86aa:	0908                	.insn	2, 0x0908
    86ac:	0000                	.insn	2, 0x
    86ae:	0b04                	.insn	2, 0x0b04
    86b0:	0101                	.insn	2, 0x0101
    86b2:	0201                	.insn	2, 0x0201
    86b4:	0202                	.insn	2, 0x0202
    86b6:	0202                	.insn	2, 0x0202
    86b8:	0202                	.insn	2, 0x0202
    86ba:	0b04040b          	.insn	4, 0x0b04040b
    86be:	0101                	.insn	2, 0x0101
    86c0:	0d01                	.insn	2, 0x0d01
    86c2:	0202                	.insn	2, 0x0202
    86c4:	0d02                	.insn	2, 0x0d02
    86c6:	0101                	.insn	2, 0x0101
    86c8:	0a01                	.insn	2, 0x0a01
    86ca:	0006                	.insn	2, 0x0006
    86cc:	0700                	.insn	2, 0x0700
    86ce:	0101                	.insn	2, 0x0101
    86d0:	070d                	.insn	2, 0x070d
    86d2:	0000                	.insn	2, 0x
    86d4:	0000                	.insn	2, 0x
    86d6:	0809                	.insn	2, 0x0809
    86d8:	0101                	.insn	2, 0x0101
    86da:	0201                	.insn	2, 0x0201
    86dc:	0006                	.insn	2, 0x0006
    86de:	0206                	.insn	2, 0x0206
    86e0:	0101                	.insn	2, 0x0101
    86e2:	0e02                	.insn	2, 0x0e02
    86e4:	0000                	.insn	2, 0x
    86e6:	0000                	.insn	2, 0x
    86e8:	0900                	.insn	2, 0x0900
    86ea:	0108                	.insn	2, 0x0108
    86ec:	0a01                	.insn	2, 0x0a01
    86ee:	0006                	.insn	2, 0x0006
    86f0:	01010203          	lb	tp,16(sp)
    86f4:	0302                	.insn	2, 0x0302
    86f6:	0000                	.insn	2, 0x
    86f8:	0a06                	.insn	2, 0x0a06
    86fa:	0101                	.insn	2, 0x0101
    86fc:	0201                	.insn	2, 0x0201
    86fe:	000e                	.insn	2, 0x000e
    8700:	0900                	.insn	2, 0x0900
    8702:	0108                	.insn	2, 0x0108
    8704:	0101                	.insn	2, 0x0101
    8706:	0101                	.insn	2, 0x0101
    8708:	0101                	.insn	2, 0x0101
    870a:	0101                	.insn	2, 0x0101
    870c:	0e08                	.insn	2, 0x0e08
	...
    8716:	0000                	.insn	2, 0x
    8718:	0a06                	.insn	2, 0x0a06
    871a:	0101                	.insn	2, 0x0101
    871c:	0101                	.insn	2, 0x0101
    871e:	0201                	.insn	2, 0x0201
    8720:	0202                	.insn	2, 0x0202
    8722:	0102                	.insn	2, 0x0102
    8724:	0201                	.insn	2, 0x0201
    8726:	08090003          	lb	zero,128(s2)
    872a:	0101                	.insn	2, 0x0101
    872c:	060a                	.insn	2, 0x060a
    872e:	0000                	.insn	2, 0x
    8730:	0000                	.insn	2, 0x
    8732:	0c04                	.insn	2, 0x0c04
    8734:	0101                	.insn	2, 0x0101
    8736:	0c01                	.insn	2, 0x0c01
    8738:	0004                	.insn	2, 0x0004
    873a:	01010d07          	.insn	4, 0x01010d07
    873e:	000c                	.insn	2, 0x000c
    8740:	0000                	.insn	2, 0x
    8742:	0000                	.insn	2, 0x
    8744:	0000                	.insn	2, 0x
    8746:	0a04                	.insn	2, 0x0a04
    8748:	0101                	.insn	2, 0x0101
    874a:	0908                	.insn	2, 0x0908
    874c:	0000                	.insn	2, 0x
    874e:	0b04                	.insn	2, 0x0b04
    8750:	0101                	.insn	2, 0x0101
    8752:	0101                	.insn	2, 0x0101
    8754:	0101                	.insn	2, 0x0101
    8756:	0101                	.insn	2, 0x0101
    8758:	0101                	.insn	2, 0x0101
    875a:	0b04040b          	.insn	4, 0x0b04040b
    875e:	0101                	.insn	2, 0x0101
    8760:	0101                	.insn	2, 0x0101
    8762:	0101                	.insn	2, 0x0101
    8764:	0101                	.insn	2, 0x0101
    8766:	0101                	.insn	2, 0x0101
    8768:	0c08                	.insn	2, 0x0c08
    876a:	0004                	.insn	2, 0x0004
    876c:	0700                	.insn	2, 0x0700
    876e:	0101                	.insn	2, 0x0101
    8770:	070d                	.insn	2, 0x070d
    8772:	0000                	.insn	2, 0x
    8774:	0000                	.insn	2, 0x
    8776:	020e                	.insn	2, 0x020e
    8778:	0101                	.insn	2, 0x0101
    877a:	0201                	.insn	2, 0x0201
    877c:	0006                	.insn	2, 0x0006
    877e:	01010203          	lb	tp,16(sp)
    8782:	0302                	.insn	2, 0x0302
    8784:	0000                	.insn	2, 0x
    8786:	0000                	.insn	2, 0x
    8788:	0900                	.insn	2, 0x0900
    878a:	0108                	.insn	2, 0x0108
    878c:	0201                	.insn	2, 0x0201
    878e:	0006                	.insn	2, 0x0006
    8790:	01010203          	lb	tp,16(sp)
    8794:	0302                	.insn	2, 0x0302
    8796:	0000                	.insn	2, 0x
    8798:	0b06                	.insn	2, 0x0b06
    879a:	0101                	.insn	2, 0x0101
    879c:	0801                	.insn	2, 0x0801
    879e:	0009                	.insn	2, 0x0009
    87a0:	0900                	.insn	2, 0x0900
    87a2:	0108                	.insn	2, 0x0108
    87a4:	0101                	.insn	2, 0x0101
    87a6:	0101                	.insn	2, 0x0101
    87a8:	0101                	.insn	2, 0x0101
    87aa:	0101                	.insn	2, 0x0101
    87ac:	0e08                	.insn	2, 0x0e08
	...
    87b6:	0000                	.insn	2, 0x
    87b8:	0c04                	.insn	2, 0x0c04
    87ba:	0108                	.insn	2, 0x0108
    87bc:	0101                	.insn	2, 0x0101
    87be:	0101                	.insn	2, 0x0101
    87c0:	010d                	.insn	2, 0x010d
    87c2:	0101                	.insn	2, 0x0101
    87c4:	0201                	.insn	2, 0x0201
    87c6:	0d070003          	lb	zero,208(a4)
    87ca:	0101                	.insn	2, 0x0101
    87cc:	0000040b          	.insn	4, 0x040b
    87d0:	0000                	.insn	2, 0x
    87d2:	0c00                	.insn	2, 0x0c00
    87d4:	0101                	.insn	2, 0x0101
    87d6:	0b01                	.insn	2, 0x0b01
    87d8:	0004                	.insn	2, 0x0004
    87da:	01010d07          	.insn	4, 0x01010d07
    87de:	000c                	.insn	2, 0x000c
    87e0:	0000                	.insn	2, 0x
    87e2:	0000                	.insn	2, 0x
    87e4:	0000                	.insn	2, 0x
    87e6:	0a04                	.insn	2, 0x0a04
    87e8:	0101                	.insn	2, 0x0101
    87ea:	0908                	.insn	2, 0x0908
    87ec:	0000                	.insn	2, 0x
    87ee:	0b04                	.insn	2, 0x0b04
    87f0:	0101                	.insn	2, 0x0101
    87f2:	0101                	.insn	2, 0x0101
    87f4:	0101                	.insn	2, 0x0101
    87f6:	0101                	.insn	2, 0x0101
    87f8:	0101                	.insn	2, 0x0101
    87fa:	0b04040b          	.insn	4, 0x0b04040b
    87fe:	0101                	.insn	2, 0x0101
    8800:	0101                	.insn	2, 0x0101
    8802:	0101                	.insn	2, 0x0101
    8804:	0101                	.insn	2, 0x0101
    8806:	0101                	.insn	2, 0x0101
    8808:	0902                	.insn	2, 0x0902
    880a:	0000                	.insn	2, 0x
    880c:	0700                	.insn	2, 0x0700
    880e:	0101                	.insn	2, 0x0101
    8810:	070d                	.insn	2, 0x070d
    8812:	0000                	.insn	2, 0x
    8814:	0000                	.insn	2, 0x
    8816:	0a06                	.insn	2, 0x0a06
    8818:	0101                	.insn	2, 0x0101
    881a:	0201                	.insn	2, 0x0201
    881c:	0006                	.insn	2, 0x0006
    881e:	080e                	.insn	2, 0x080e
    8820:	0101                	.insn	2, 0x0101
    8822:	060a                	.insn	2, 0x060a
    8824:	0000                	.insn	2, 0x
    8826:	0000                	.insn	2, 0x
    8828:	0300                	.insn	2, 0x0300
    882a:	0102                	.insn	2, 0x0102
    882c:	0201                	.insn	2, 0x0201
    882e:	02030003          	lb	zero,32(t1)
    8832:	0101                	.insn	2, 0x0101
    8834:	0302                	.insn	2, 0x0302
    8836:	0000                	.insn	2, 0x
    8838:	0704                	.insn	2, 0x0704
    883a:	0108                	.insn	2, 0x0108
    883c:	0d01                	.insn	2, 0x0d01
    883e:	040c                	.insn	2, 0x040c
    8840:	0900                	.insn	2, 0x0900
    8842:	0108                	.insn	2, 0x0108
    8844:	0101                	.insn	2, 0x0101
    8846:	0101                	.insn	2, 0x0101
    8848:	0101                	.insn	2, 0x0101
    884a:	0101                	.insn	2, 0x0101
    884c:	0e08                	.insn	2, 0x0e08
	...
    8856:	0000                	.insn	2, 0x
    8858:	0e00                	.insn	2, 0x0e00
    885a:	0102                	.insn	2, 0x0102
    885c:	0101                	.insn	2, 0x0101
    885e:	0101                	.insn	2, 0x0101
    8860:	0101                	.insn	2, 0x0101
    8862:	0101                	.insn	2, 0x0101
    8864:	0201                	.insn	2, 0x0201
    8866:	01070003          	lb	zero,16(a4)
    886a:	0101                	.insn	2, 0x0101
    886c:	040c                	.insn	2, 0x040c
    886e:	0000                	.insn	2, 0x
    8870:	0000                	.insn	2, 0x
    8872:	0700                	.insn	2, 0x0700
    8874:	010d                	.insn	2, 0x010d
    8876:	0a01                	.insn	2, 0x0a01
    8878:	0006                	.insn	2, 0x0006
    887a:	01010d07          	.insn	4, 0x01010d07
    887e:	000c                	.insn	2, 0x000c
    8880:	0000                	.insn	2, 0x
    8882:	0000                	.insn	2, 0x
    8884:	0000                	.insn	2, 0x
    8886:	0a04                	.insn	2, 0x0a04
    8888:	0101                	.insn	2, 0x0101
    888a:	0908                	.insn	2, 0x0908
    888c:	0000                	.insn	2, 0x
    888e:	0b04                	.insn	2, 0x0b04
    8890:	0101                	.insn	2, 0x0101
    8892:	0101                	.insn	2, 0x0101
    8894:	0101                	.insn	2, 0x0101
    8896:	0101                	.insn	2, 0x0101
    8898:	0101                	.insn	2, 0x0101
    889a:	0b04040b          	.insn	4, 0x0b04040b
    889e:	010d                	.insn	2, 0x010d
    88a0:	0101                	.insn	2, 0x0101
    88a2:	0101                	.insn	2, 0x0101
    88a4:	0101                	.insn	2, 0x0101
    88a6:	0801                	.insn	2, 0x0801
    88a8:	030a                	.insn	2, 0x030a
    88aa:	0000                	.insn	2, 0x
    88ac:	0700                	.insn	2, 0x0700
    88ae:	0101                	.insn	2, 0x0101
    88b0:	070d                	.insn	2, 0x070d
    88b2:	0000                	.insn	2, 0x
    88b4:	0000                	.insn	2, 0x
    88b6:	0b06                	.insn	2, 0x0b06
    88b8:	0101                	.insn	2, 0x0101
    88ba:	0201                	.insn	2, 0x0201
    88bc:	0006                	.insn	2, 0x0006
    88be:	0809                	.insn	2, 0x0809
    88c0:	0101                	.insn	2, 0x0101
    88c2:	060a                	.insn	2, 0x060a
    88c4:	0000                	.insn	2, 0x
    88c6:	0000                	.insn	2, 0x
    88c8:	0600                	.insn	2, 0x0600
    88ca:	0102                	.insn	2, 0x0102
    88cc:	0801                	.insn	2, 0x0801
    88ce:	0009                	.insn	2, 0x0009
    88d0:	01010203          	lb	tp,16(sp)
    88d4:	0302                	.insn	2, 0x0302
    88d6:	0000                	.insn	2, 0x
    88d8:	0900                	.insn	2, 0x0900
    88da:	0102                	.insn	2, 0x0102
    88dc:	0101                	.insn	2, 0x0101
    88de:	060a                	.insn	2, 0x060a
    88e0:	0900                	.insn	2, 0x0900
    88e2:	0108                	.insn	2, 0x0108
    88e4:	0101                	.insn	2, 0x0101
    88e6:	0101                	.insn	2, 0x0101
    88e8:	0101                	.insn	2, 0x0101
    88ea:	0101                	.insn	2, 0x0101
    88ec:	0e08                	.insn	2, 0x0e08
	...
    88f6:	0000                	.insn	2, 0x
    88f8:	0300                	.insn	2, 0x0300
    88fa:	0101080b          	.insn	4, 0x0101080b
    88fe:	0101                	.insn	2, 0x0101
    8900:	0101                	.insn	2, 0x0101
    8902:	0101                	.insn	2, 0x0101
    8904:	0201                	.insn	2, 0x0201
    8906:	010c0403          	lb	s0,16(s8)
    890a:	0101                	.insn	2, 0x0101
    890c:	000c                	.insn	2, 0x000c
    890e:	0000                	.insn	2, 0x
    8910:	0000                	.insn	2, 0x
    8912:	0900                	.insn	2, 0x0900
    8914:	0108                	.insn	2, 0x0108
    8916:	0201                	.insn	2, 0x0201
    8918:	0006                	.insn	2, 0x0006
    891a:	01010d07          	.insn	4, 0x01010d07
    891e:	000c                	.insn	2, 0x000c
    8920:	0000                	.insn	2, 0x
    8922:	0000                	.insn	2, 0x
    8924:	0000                	.insn	2, 0x
    8926:	0a04                	.insn	2, 0x0a04
    8928:	0101                	.insn	2, 0x0101
    892a:	0908                	.insn	2, 0x0908
    892c:	0000                	.insn	2, 0x
    892e:	0b04                	.insn	2, 0x0b04
    8930:	0101                	.insn	2, 0x0101
    8932:	0101                	.insn	2, 0x0101
    8934:	0101                	.insn	2, 0x0101
    8936:	0101                	.insn	2, 0x0101
    8938:	0101                	.insn	2, 0x0101
    893a:	2104040b          	.insn	4, 0x2104040b
    893e:	0d02                	.insn	2, 0x0d02
    8940:	0101                	.insn	2, 0x0101
    8942:	0101                	.insn	2, 0x0101
    8944:	0101                	.insn	2, 0x0101
    8946:	0201                	.insn	2, 0x0201
    8948:	00000607          	.insn	4, 0x0607
    894c:	0700                	.insn	2, 0x0700
    894e:	0101                	.insn	2, 0x0101
    8950:	070d                	.insn	2, 0x070d
    8952:	0000                	.insn	2, 0x
    8954:	0000                	.insn	2, 0x
    8956:	0c04                	.insn	2, 0x0c04
    8958:	0101                	.insn	2, 0x0101
    895a:	0201                	.insn	2, 0x0201
    895c:	0006                	.insn	2, 0x0006
    895e:	01010d07          	.insn	4, 0x01010d07
    8962:	0000040b          	.insn	4, 0x040b
    8966:	0000                	.insn	2, 0x
    8968:	0600                	.insn	2, 0x0600
    896a:	010a                	.insn	2, 0x010a
    896c:	0d01                	.insn	2, 0x0d01
    896e:	02030007          	.insn	4, 0x02030007
    8972:	0101                	.insn	2, 0x0101
    8974:	0302                	.insn	2, 0x0302
    8976:	0000                	.insn	2, 0x
    8978:	0300                	.insn	2, 0x0300
    897a:	0102                	.insn	2, 0x0102
    897c:	0101                	.insn	2, 0x0101
    897e:	0302                	.insn	2, 0x0302
    8980:	0900                	.insn	2, 0x0900
    8982:	0108                	.insn	2, 0x0108
    8984:	0101                	.insn	2, 0x0101
    8986:	0101                	.insn	2, 0x0101
    8988:	0101                	.insn	2, 0x0101
    898a:	0101                	.insn	2, 0x0101
    898c:	0e08                	.insn	2, 0x0e08
	...
    8996:	0000                	.insn	2, 0x
    8998:	0400                	.insn	2, 0x0400
    899a:	01010207          	.insn	4, 0x01010207
    899e:	0101                	.insn	2, 0x0101
    89a0:	0101                	.insn	2, 0x0101
    89a2:	0101                	.insn	2, 0x0101
    89a4:	0202                	.insn	2, 0x0202
    89a6:	010b0403          	lb	s0,16(s6)
    89aa:	0d01                	.insn	2, 0x0d01
    89ac:	00000007          	.insn	4, 0x0007
    89b0:	0000                	.insn	2, 0x
    89b2:	0e00                	.insn	2, 0x0e00
    89b4:	0108                	.insn	2, 0x0108
    89b6:	0201                	.insn	2, 0x0201
    89b8:	0d070003          	lb	zero,208(a4)
    89bc:	0101                	.insn	2, 0x0101
    89be:	000c                	.insn	2, 0x000c
    89c0:	0000                	.insn	2, 0x
    89c2:	0000                	.insn	2, 0x
    89c4:	0000                	.insn	2, 0x
    89c6:	0a04                	.insn	2, 0x0a04
    89c8:	0101                	.insn	2, 0x0101
    89ca:	0908                	.insn	2, 0x0908
    89cc:	0000                	.insn	2, 0x
    89ce:	0b04                	.insn	2, 0x0b04
    89d0:	0101                	.insn	2, 0x0101
    89d2:	0101                	.insn	2, 0x0101
    89d4:	0101                	.insn	2, 0x0101
    89d6:	0101                	.insn	2, 0x0101
    89d8:	0101                	.insn	2, 0x0101
    89da:	0e04040b          	.insn	4, 0x0e04040b
    89de:	020a                	.insn	2, 0x020a
    89e0:	0102                	.insn	2, 0x0102
    89e2:	0101                	.insn	2, 0x0101
    89e4:	0d01                	.insn	2, 0x0d01
    89e6:	0a02                	.insn	2, 0x0a02
    89e8:	000e                	.insn	2, 0x000e
    89ea:	0000                	.insn	2, 0x
    89ec:	0700                	.insn	2, 0x0700
    89ee:	0202                	.insn	2, 0x0202
    89f0:	0702                	.insn	2, 0x0702
    89f2:	0000                	.insn	2, 0x
    89f4:	0000                	.insn	2, 0x
    89f6:	0700                	.insn	2, 0x0700
    89f8:	0202                	.insn	2, 0x0202
    89fa:	0202                	.insn	2, 0x0202
    89fc:	0406                	.insn	2, 0x0406
    89fe:	020c                	.insn	2, 0x020c
    8a00:	0202                	.insn	2, 0x0202
    8a02:	040c                	.insn	2, 0x040c
    8a04:	0000                	.insn	2, 0x
    8a06:	0000                	.insn	2, 0x
    8a08:	0400                	.insn	2, 0x0400
    8a0a:	020a                	.insn	2, 0x020a
    8a0c:	0202                	.insn	2, 0x0202
    8a0e:	02030007          	.insn	4, 0x02030007
    8a12:	0202                	.insn	2, 0x0202
    8a14:	0302                	.insn	2, 0x0302
    8a16:	0000                	.insn	2, 0x
    8a18:	0600                	.insn	2, 0x0600
    8a1a:	0202020b          	.insn	4, 0x0202020b
    8a1e:	0902                	.insn	2, 0x0902
    8a20:	0900                	.insn	2, 0x0900
    8a22:	0202                	.insn	2, 0x0202
    8a24:	0202                	.insn	2, 0x0202
    8a26:	0202                	.insn	2, 0x0202
    8a28:	0202                	.insn	2, 0x0202
    8a2a:	0202                	.insn	2, 0x0202
    8a2c:	0e02                	.insn	2, 0x0e02
	...
    8a3a:	0d020b03          	lb	s6,208(tp) # d0 <restore+0x8>
    8a3e:	0101                	.insn	2, 0x0101
    8a40:	0101                	.insn	2, 0x0101
    8a42:	0208                	.insn	2, 0x0208
    8a44:	0902                	.insn	2, 0x0902
    8a46:	020a0603          	lb	a2,32(s4)
    8a4a:	0202                	.insn	2, 0x0202
    8a4c:	0009                	.insn	2, 0x0009
    8a4e:	0000                	.insn	2, 0x
    8a50:	0000                	.insn	2, 0x
    8a52:	0300                	.insn	2, 0x0300
    8a54:	0202                	.insn	2, 0x0202
    8a56:	0202                	.insn	2, 0x0202
    8a58:	000e                	.insn	2, 0x000e
    8a5a:	02020207          	.insn	4, 0x02020207
    8a5e:	000c                	.insn	2, 0x000c
    8a60:	0000                	.insn	2, 0x
    8a62:	0000                	.insn	2, 0x
    8a64:	0000                	.insn	2, 0x
    8a66:	0a04                	.insn	2, 0x0a04
    8a68:	0202                	.insn	2, 0x0202
    8a6a:	0902                	.insn	2, 0x0902
    8a6c:	0000                	.insn	2, 0x
    8a6e:	0b04                	.insn	2, 0x0b04
    8a70:	0202                	.insn	2, 0x0202
    8a72:	0202                	.insn	2, 0x0202
    8a74:	0202                	.insn	2, 0x0202
    8a76:	0202                	.insn	2, 0x0202
    8a78:	0202                	.insn	2, 0x0202
    8a7a:	0300040b          	.insn	4, 0x0300040b
    8a7e:	0a0e                	.insn	2, 0x0a0e
    8a80:	0202                	.insn	2, 0x0202
    8a82:	0202                	.insn	2, 0x0202
    8a84:	0202                	.insn	2, 0x0202
    8a86:	0e02                	.insn	2, 0x0e02
    8a88:	0006                	.insn	2, 0x0006
    8a8a:	0000                	.insn	2, 0x
    8a8c:	0700                	.insn	2, 0x0700
    8a8e:	0202                	.insn	2, 0x0202
    8a90:	0702                	.insn	2, 0x0702
    8a92:	0000                	.insn	2, 0x
    8a94:	0000                	.insn	2, 0x
    8a96:	0e00                	.insn	2, 0x0e00
    8a98:	0202                	.insn	2, 0x0202
    8a9a:	0202                	.insn	2, 0x0202
    8a9c:	0406                	.insn	2, 0x0406
    8a9e:	0221                	.insn	2, 0x0221
    8aa0:	0202                	.insn	2, 0x0202
    8aa2:	000c                	.insn	2, 0x000c
    8aa4:	0000                	.insn	2, 0x
    8aa6:	0000                	.insn	2, 0x
    8aa8:	0400                	.insn	2, 0x0400
    8aaa:	0202020b          	.insn	4, 0x0202020b
    8aae:	040c                	.insn	2, 0x040c
    8ab0:	02020203          	lb	tp,32(tp) # 20 <_isr_routine+0x18>
    8ab4:	0302                	.insn	2, 0x0302
    8ab6:	0000                	.insn	2, 0x
    8ab8:	0400                	.insn	2, 0x0400
    8aba:	020c                	.insn	2, 0x020c
    8abc:	0202                	.insn	2, 0x0202
    8abe:	0c02                	.insn	2, 0x0c02
    8ac0:	0904                	.insn	2, 0x0904
    8ac2:	0202                	.insn	2, 0x0202
    8ac4:	0202                	.insn	2, 0x0202
    8ac6:	0202                	.insn	2, 0x0202
    8ac8:	0202                	.insn	2, 0x0202
    8aca:	0202                	.insn	2, 0x0202
    8acc:	0e02                	.insn	2, 0x0e02
	...
    8ada:	0e06                	.insn	2, 0x0e06
    8adc:	020a                	.insn	2, 0x020a
    8ade:	0202                	.insn	2, 0x0202
    8ae0:	0202                	.insn	2, 0x0202
    8ae2:	0a02                	.insn	2, 0x0a02
    8ae4:	0309                	.insn	2, 0x0309
    8ae6:	0604                	.insn	2, 0x0604
    8ae8:	020a                	.insn	2, 0x020a
    8aea:	0202                	.insn	2, 0x0202
    8aec:	0009                	.insn	2, 0x0009
    8aee:	0000                	.insn	2, 0x
    8af0:	0000                	.insn	2, 0x
    8af2:	0600                	.insn	2, 0x0600
    8af4:	0202                	.insn	2, 0x0202
    8af6:	0202                	.insn	2, 0x0202
    8af8:	0009                	.insn	2, 0x0009
    8afa:	02020207          	.insn	4, 0x02020207
    8afe:	000c                	.insn	2, 0x000c
    8b00:	0000                	.insn	2, 0x
    8b02:	0000                	.insn	2, 0x
    8b04:	0000                	.insn	2, 0x
    8b06:	0a04                	.insn	2, 0x0a04
    8b08:	0202                	.insn	2, 0x0202
    8b0a:	0902                	.insn	2, 0x0902
    8b0c:	0000                	.insn	2, 0x
    8b0e:	0b04                	.insn	2, 0x0b04
    8b10:	0202                	.insn	2, 0x0202
    8b12:	0202                	.insn	2, 0x0202
    8b14:	0202                	.insn	2, 0x0202
    8b16:	0202                	.insn	2, 0x0202
    8b18:	0202                	.insn	2, 0x0202
    8b1a:	0000040b          	.insn	4, 0x040b
    8b1e:	020b0e03          	lb	t3,32(s6)
    8b22:	0202                	.insn	2, 0x0202
    8b24:	0a02                	.insn	2, 0x0a02
    8b26:	0309                	.insn	2, 0x0309
    8b28:	0000                	.insn	2, 0x
    8b2a:	0000                	.insn	2, 0x
    8b2c:	0900                	.insn	2, 0x0900
    8b2e:	0c0c                	.insn	2, 0x0c0c
    8b30:	090c                	.insn	2, 0x090c
    8b32:	0000                	.insn	2, 0x
    8b34:	0000                	.insn	2, 0x
    8b36:	0300                	.insn	2, 0x0300
    8b38:	0c0c                	.insn	2, 0x0c0c
    8b3a:	0c0c                	.insn	2, 0x0c0c
    8b3c:	0406                	.insn	2, 0x0406
    8b3e:	0c0c0c07          	.insn	4, 0x0c0c0c07
    8b42:	0009                	.insn	2, 0x0009
    8b44:	0000                	.insn	2, 0x
    8b46:	0000                	.insn	2, 0x
    8b48:	0400                	.insn	2, 0x0400
    8b4a:	0c09                	.insn	2, 0x0c09
    8b4c:	0c0c                	.insn	2, 0x0c0c
    8b4e:	0c030407          	.insn	4, 0x0c030407
    8b52:	0c0c                	.insn	2, 0x0c0c
    8b54:	060c                	.insn	2, 0x060c
    8b56:	0000                	.insn	2, 0x
    8b58:	0000                	.insn	2, 0x
    8b5a:	0c09                	.insn	2, 0x0c09
    8b5c:	0c0c                	.insn	2, 0x0c0c
    8b5e:	070c                	.insn	2, 0x070c
    8b60:	0e06                	.insn	2, 0x0e06
    8b62:	0c0c                	.insn	2, 0x0c0c
    8b64:	0c0c                	.insn	2, 0x0c0c
    8b66:	0c0c                	.insn	2, 0x0c0c
    8b68:	0c0c                	.insn	2, 0x0c0c
    8b6a:	0c0c                	.insn	2, 0x0c0c
    8b6c:	0e0c                	.insn	2, 0x0e0c
	...
    8b7a:	0300                	.insn	2, 0x0300
    8b7c:	0a09                	.insn	2, 0x0a09
    8b7e:	0202                	.insn	2, 0x0202
    8b80:	0202                	.insn	2, 0x0202
    8b82:	06030e0b          	.insn	4, 0x06030e0b
    8b86:	0300                	.insn	2, 0x0300
    8b88:	0c0c                	.insn	2, 0x0c0c
    8b8a:	0c0c                	.insn	2, 0x0c0c
    8b8c:	00000003          	lb	zero,0(zero) # 0 <_isr_handler>
    8b90:	0000                	.insn	2, 0x
    8b92:	0600                	.insn	2, 0x0600
    8b94:	0c0c0c07          	.insn	4, 0x0c0c0c07
    8b98:	0009                	.insn	2, 0x0009
    8b9a:	0c09                	.insn	2, 0x0c09
    8b9c:	0c0c                	.insn	2, 0x0c0c
    8b9e:	0009                	.insn	2, 0x0009
    8ba0:	0000                	.insn	2, 0x
    8ba2:	0000                	.insn	2, 0x
    8ba4:	0000                	.insn	2, 0x
    8ba6:	0704                	.insn	2, 0x0704
    8ba8:	0c0c                	.insn	2, 0x0c0c
    8baa:	0e0c                	.insn	2, 0x0e0c
    8bac:	0000                	.insn	2, 0x
    8bae:	0704                	.insn	2, 0x0704
    8bb0:	0c0c                	.insn	2, 0x0c0c
    8bb2:	0c0c                	.insn	2, 0x0c0c
    8bb4:	0c0c                	.insn	2, 0x0c0c
    8bb6:	0c0c                	.insn	2, 0x0c0c
    8bb8:	0c0c                	.insn	2, 0x0c0c
    8bba:	00000407          	.insn	4, 0x0407
    8bbe:	0304                	.insn	2, 0x0304
    8bc0:	07090e03          	lb	t3,112(s2)
    8bc4:	0e09                	.insn	2, 0x0e09
    8bc6:	00000403          	lb	s0,0(zero) # 0 <_isr_handler>
    8bca:	0000                	.insn	2, 0x
    8bcc:	0300                	.insn	2, 0x0300
    8bce:	03030303          	lb	t1,48(t1)
    8bd2:	0000                	.insn	2, 0x
    8bd4:	0000                	.insn	2, 0x
    8bd6:	0600                	.insn	2, 0x0600
    8bd8:	03030303          	lb	t1,48(t1)
    8bdc:	0606                	.insn	2, 0x0606
    8bde:	03030303          	lb	t1,48(t1)
    8be2:	00000003          	lb	zero,0(zero) # 0 <_isr_handler>
    8be6:	0000                	.insn	2, 0x
    8be8:	0000                	.insn	2, 0x
    8bea:	03030303          	lb	t1,48(t1)
    8bee:	03060603          	lb	a2,48(a2)
    8bf2:	06030303          	lb	t1,96(t1)
    8bf6:	0000                	.insn	2, 0x
    8bf8:	0000                	.insn	2, 0x
    8bfa:	03030303          	lb	t1,48(t1)
    8bfe:	03030303          	lb	t1,48(t1)
    8c02:	03030303          	lb	t1,48(t1)
    8c06:	03030303          	lb	t1,48(t1)
    8c0a:	03030303          	lb	t1,48(t1)
	...
    8c1a:	0400                	.insn	2, 0x0400
    8c1c:	0c070e03          	lb	t3,192(a4)
    8c20:	090c                	.insn	2, 0x090c
    8c22:	00040303          	lb	t1,0(s0)
    8c26:	0300                	.insn	2, 0x0300
    8c28:	03030303          	lb	t1,48(t1)
    8c2c:	0006                	.insn	2, 0x0006
    8c2e:	0000                	.insn	2, 0x
    8c30:	0000                	.insn	2, 0x
    8c32:	0400                	.insn	2, 0x0400
    8c34:	03030303          	lb	t1,48(t1)
    8c38:	03030403          	lb	s0,48(t1)
    8c3c:	00030303          	lb	t1,0(t1)
    8c40:	0000                	.insn	2, 0x
    8c42:	0000                	.insn	2, 0x
    8c44:	0000                	.insn	2, 0x
    8c46:	0304                	.insn	2, 0x0304
    8c48:	03030303          	lb	t1,48(t1)
    8c4c:	0000                	.insn	2, 0x
    8c4e:	0304                	.insn	2, 0x0304
    8c50:	03030303          	lb	t1,48(t1)
    8c54:	03030303          	lb	t1,48(t1)
    8c58:	04030303          	lb	t1,64(t1)
    8c5c:	0000                	.insn	2, 0x
    8c5e:	0000                	.insn	2, 0x
    8c60:	03030303          	lb	t1,48(t1)
    8c64:	00040303          	lb	t1,0(s0)
    8c68:	0000                	.insn	2, 0x
    8c6a:	0000                	.insn	2, 0x
    8c6c:	0600                	.insn	2, 0x0600
    8c6e:	0606                	.insn	2, 0x0606
    8c70:	0606                	.insn	2, 0x0606
    8c72:	0000                	.insn	2, 0x
    8c74:	0000                	.insn	2, 0x
    8c76:	0400                	.insn	2, 0x0400
    8c78:	0606                	.insn	2, 0x0606
    8c7a:	0606                	.insn	2, 0x0606
    8c7c:	0604                	.insn	2, 0x0604
    8c7e:	0606                	.insn	2, 0x0606
    8c80:	0606                	.insn	2, 0x0606
    8c82:	0006                	.insn	2, 0x0006
    8c84:	0000                	.insn	2, 0x
    8c86:	0000                	.insn	2, 0x
    8c88:	0000                	.insn	2, 0x
    8c8a:	0606                	.insn	2, 0x0606
    8c8c:	0606                	.insn	2, 0x0606
    8c8e:	0406                	.insn	2, 0x0406
    8c90:	0606                	.insn	2, 0x0606
    8c92:	0606                	.insn	2, 0x0606
    8c94:	0606                	.insn	2, 0x0606
    8c96:	0000                	.insn	2, 0x
    8c98:	0000                	.insn	2, 0x
    8c9a:	0606                	.insn	2, 0x0606
    8c9c:	0606                	.insn	2, 0x0606
    8c9e:	0606                	.insn	2, 0x0606
    8ca0:	0606                	.insn	2, 0x0606
    8ca2:	0606                	.insn	2, 0x0606
    8ca4:	0606                	.insn	2, 0x0606
    8ca6:	0606                	.insn	2, 0x0606
    8ca8:	0606                	.insn	2, 0x0606
    8caa:	0606                	.insn	2, 0x0606
    8cac:	0606                	.insn	2, 0x0606
	...
    8cba:	0000                	.insn	2, 0x
    8cbc:	0304                	.insn	2, 0x0304
    8cbe:	03030303          	lb	t1,48(t1)
    8cc2:	00000403          	lb	s0,0(zero) # 0 <_isr_handler>
    8cc6:	0600                	.insn	2, 0x0600
    8cc8:	0606                	.insn	2, 0x0606
    8cca:	0606                	.insn	2, 0x0606
    8ccc:	0004                	.insn	2, 0x0004
    8cce:	0000                	.insn	2, 0x
    8cd0:	0000                	.insn	2, 0x
    8cd2:	0400                	.insn	2, 0x0400
    8cd4:	0606                	.insn	2, 0x0606
    8cd6:	0606                	.insn	2, 0x0606
    8cd8:	0406                	.insn	2, 0x0406
    8cda:	0606                	.insn	2, 0x0606
    8cdc:	0606                	.insn	2, 0x0606
    8cde:	0006                	.insn	2, 0x0006
    8ce0:	0000                	.insn	2, 0x
    8ce2:	0000                	.insn	2, 0x
    8ce4:	0000                	.insn	2, 0x
    8ce6:	0604                	.insn	2, 0x0604
    8ce8:	0606                	.insn	2, 0x0606
    8cea:	0606                	.insn	2, 0x0606
    8cec:	0000                	.insn	2, 0x
    8cee:	0604                	.insn	2, 0x0604
    8cf0:	0606                	.insn	2, 0x0606
    8cf2:	0606                	.insn	2, 0x0606
    8cf4:	0606                	.insn	2, 0x0606
    8cf6:	0606                	.insn	2, 0x0606
    8cf8:	0606                	.insn	2, 0x0606
    8cfa:	0406                	.insn	2, 0x0406
    8cfc:	0000                	.insn	2, 0x
    8cfe:	0000                	.insn	2, 0x
    8d00:	0400                	.insn	2, 0x0400
    8d02:	0606                	.insn	2, 0x0606
    8d04:	0004                	.insn	2, 0x0004
	...
    8d5e:	0306                	.insn	2, 0x0306
    8d60:	0406                	.insn	2, 0x0406
	...
    9a2e:	0000                	.insn	2, 0x
    9a30:	1700                	.insn	2, 0x1700
    9a32:	181e                	.insn	2, 0x181e
    9a34:	221b1f13          	.insn	4, 0x221b1f13
    9a38:	001d                	.insn	2, 0x001d
    9a3a:	1400                	.insn	2, 0x1400
    9a3c:	1010                	.insn	2, 0x1010
    9a3e:	1010                	.insn	2, 0x1010
    9a40:	1010                	.insn	2, 0x1010
    9a42:	1010                	.insn	2, 0x1010
    9a44:	1010                	.insn	2, 0x1010
    9a46:	0015                	.insn	2, 0x0015
    9a48:	0000                	.insn	2, 0x
    9a4a:	19101017          	auipc	zero,0x19101
    9a4e:	0000                	.insn	2, 0x
    9a50:	0000                	.insn	2, 0x
    9a52:	0000                	.insn	2, 0x
    9a54:	10101023          	sh	ra,256(zero) # 100 <restore+0x38>
    9a58:	2214                	.insn	2, 0x2214
    9a5a:	0016                	.insn	2, 0x0016
    9a5c:	0000                	.insn	2, 0x
    9a5e:	1e00                	.insn	2, 0x1e00
    9a60:	1010                	.insn	2, 0x1010
    9a62:	1010                	.insn	2, 0x1010
    9a64:	1010                	.insn	2, 0x1010
    9a66:	1010                	.insn	2, 0x1010
    9a68:	1010                	.insn	2, 0x1010
    9a6a:	0015                	.insn	2, 0x0015
	...
    9a74:	0000                	.insn	2, 0x
    9a76:	131c140f          	.insn	4, 0x131c140f
    9a7a:	101f 0416 0000      	.insn	6, 0x0416101f
    9a80:	0000                	.insn	2, 0x
    9a82:	0000                	.insn	2, 0x
    9a84:	1500                	.insn	2, 0x1500
    9a86:	1410                	.insn	2, 0x1410
    9a88:	0000                	.insn	2, 0x
    9a8a:	0000                	.insn	2, 0x
    9a8c:	0000                	.insn	2, 0x
    9a8e:	1004                	.insn	2, 0x1004
    9a90:	0f10                	.insn	2, 0x0f10
    9a92:	0000                	.insn	2, 0x
    9a94:	0000                	.insn	2, 0x
    9a96:	0000                	.insn	2, 0x
    9a98:	1024                	.insn	2, 0x1024
    9a9a:	0010                	.insn	2, 0x0010
    9a9c:	0000                	.insn	2, 0x
    9a9e:	1004                	.insn	2, 0x1004
    9aa0:	1010                	.insn	2, 0x1010
    9aa2:	1010                	.insn	2, 0x1010
    9aa4:	1010                	.insn	2, 0x1010
    9aa6:	1e10                	.insn	2, 0x1e10
	...
    9ad0:	0515                	.insn	2, 0x0515
    9ad2:	1805                	.insn	2, 0x1805
    9ad4:	1010                	.insn	2, 0x1010
    9ad6:	15050513          	addi	a0,a0,336
    9ada:	1c00                	.insn	2, 0x1c00
    9adc:	13131313          	.insn	4, 0x13131313
    9ae0:	0505                	.insn	2, 0x0505
    9ae2:	13131313          	.insn	4, 0x13131313
    9ae6:	0010                	.insn	2, 0x0010
    9ae8:	0000                	.insn	2, 0x
    9aea:	0510                	.insn	2, 0x0510
    9aec:	1305                	.insn	2, 0x1305
    9aee:	0000                	.insn	2, 0x
    9af0:	0000                	.insn	2, 0x
    9af2:	0000                	.insn	2, 0x
    9af4:	0510                	.insn	2, 0x0510
    9af6:	1312                	.insn	2, 0x1312
    9af8:	05051213          	.insn	4, 0x05051213
    9afc:	0016                	.insn	2, 0x0016
    9afe:	1800                	.insn	2, 0x1800
    9b00:	13131313          	.insn	4, 0x13131313
    9b04:	0505                	.insn	2, 0x0505
    9b06:	13131313          	.insn	4, 0x13131313
    9b0a:	0000001b          	.insn	4, 0x001b
    9b0e:	0000                	.insn	2, 0x
    9b10:	0000                	.insn	2, 0x
    9b12:	0000                	.insn	2, 0x
    9b14:	121a                	.insn	2, 0x121a
    9b16:	1205                	.insn	2, 0x1205
    9b18:	1410                	.insn	2, 0x1410
    9b1a:	0505131b          	.insn	4, 0x0505131b
    9b1e:	0000001b          	.insn	4, 0x001b
    9b22:	0000                	.insn	2, 0x
    9b24:	0520                	.insn	2, 0x0520
    9b26:	0505                	.insn	2, 0x0505
    9b28:	001d                	.insn	2, 0x001d
    9b2a:	0000                	.insn	2, 0x
    9b2c:	0000                	.insn	2, 0x
    9b2e:	0520                	.insn	2, 0x0520
    9b30:	1105                	.insn	2, 0x1105
    9b32:	0000                	.insn	2, 0x
    9b34:	0000                	.insn	2, 0x
    9b36:	0400                	.insn	2, 0x0400
    9b38:	0511                	.insn	2, 0x0511
    9b3a:	0405                	.insn	2, 0x0405
    9b3c:	0000                	.insn	2, 0x
    9b3e:	051a                	.insn	2, 0x051a
    9b40:	1311                	.insn	2, 0x1311
    9b42:	13131313          	.insn	4, 0x13131313
    9b46:	00001813          	slli	a6,zero,0x0
	...
    9b6e:	1900                	.insn	2, 0x1900
    9b70:	1305                	.insn	2, 0x1305
    9b72:	0000                	.insn	2, 0x
    9b74:	0000                	.insn	2, 0x
    9b76:	0000                	.insn	2, 0x
    9b78:	2415                	.insn	2, 0x2415
    9b7a:	0000                	.insn	2, 0x
    9b7c:	0000                	.insn	2, 0x
    9b7e:	0000                	.insn	2, 0x
    9b80:	1205                	.insn	2, 0x1205
	...
    9b8a:	1c05                	.insn	2, 0x1c05
    9b8c:	0518                	.insn	2, 0x0518
    9b8e:	001a                	.insn	2, 0x001a
    9b90:	0000                	.insn	2, 0x
    9b92:	0000                	.insn	2, 0x
    9b94:	0510                	.insn	2, 0x0510
    9b96:	001d                	.insn	2, 0x001d
    9b98:	0000                	.insn	2, 0x
    9b9a:	111a                	.insn	2, 0x111a
    9b9c:	1705                	.insn	2, 0x1705
    9b9e:	0000                	.insn	2, 0x
    9ba0:	0000                	.insn	2, 0x
    9ba2:	0000                	.insn	2, 0x
    9ba4:	1105                	.insn	2, 0x1105
	...
    9bb2:	1d00                	.insn	2, 0x1d00
    9bb4:	1105                	.insn	2, 0x1105
    9bb6:	0019                	.insn	2, 0x0019
    9bb8:	0000                	.insn	2, 0x
    9bba:	0000                	.insn	2, 0x
    9bbc:	1404                	.insn	2, 0x1404
    9bbe:	001f 0000 0000      	.insn	6, 0x001f
    9bc4:	0514                	.insn	2, 0x0514
    9bc6:	0516                	.insn	2, 0x0516
    9bc8:	0000001b          	.insn	4, 0x001b
    9bcc:	0000                	.insn	2, 0x
    9bce:	0520                	.insn	2, 0x0520
    9bd0:	001e0513          	addi	a0,t3,1
    9bd4:	0000                	.insn	2, 0x
    9bd6:	1400                	.insn	2, 0x1400
    9bd8:	1205                	.insn	2, 0x1205
    9bda:	0405                	.insn	2, 0x0405
    9bdc:	0000                	.insn	2, 0x
    9bde:	051a                	.insn	2, 0x051a
    9be0:	0000001b          	.insn	4, 0x001b
	...
    9c0c:	0000                	.insn	2, 0x
    9c0e:	1500                	.insn	2, 0x1500
    9c10:	1605                	.insn	2, 0x1605
	...
    9c1e:	0000                	.insn	2, 0x
    9c20:	1205                	.insn	2, 0x1205
    9c22:	0000                	.insn	2, 0x
    9c24:	0000                	.insn	2, 0x
    9c26:	0000                	.insn	2, 0x
    9c28:	1600                	.insn	2, 0x1600
    9c2a:	0f05                	.insn	2, 0x0f05
    9c2c:	0519                	.insn	2, 0x0519
    9c2e:	0010                	.insn	2, 0x0010
    9c30:	0000                	.insn	2, 0x
    9c32:	0000                	.insn	2, 0x
    9c34:	0510                	.insn	2, 0x0510
    9c36:	001d                	.insn	2, 0x001d
    9c38:	0000                	.insn	2, 0x
    9c3a:	1400                	.insn	2, 0x1400
    9c3c:	2305                	.insn	2, 0x2305
    9c3e:	0000                	.insn	2, 0x
    9c40:	0000                	.insn	2, 0x
    9c42:	0000                	.insn	2, 0x
    9c44:	1105                	.insn	2, 0x1105
	...
    9c52:	1200                	.insn	2, 0x1200
    9c54:	1d05                	.insn	2, 0x1d05
	...
    9c62:	0000                	.insn	2, 0x
    9c64:	1211                	.insn	2, 0x1211
    9c66:	1300                	.insn	2, 0x1300
    9c68:	0405                	.insn	2, 0x0405
    9c6a:	0000                	.insn	2, 0x
    9c6c:	0000                	.insn	2, 0x
    9c6e:	0520                	.insn	2, 0x0520
    9c70:	1b14                	.insn	2, 0x1b14
    9c72:	0405                	.insn	2, 0x0405
    9c74:	0000                	.insn	2, 0x
    9c76:	0504                	.insn	2, 0x0504
    9c78:	1f15                	.insn	2, 0x1f15
    9c7a:	0405                	.insn	2, 0x0405
    9c7c:	0000                	.insn	2, 0x
    9c7e:	051a                	.insn	2, 0x051a
    9c80:	0000001b          	.insn	4, 0x001b
	...
    9cac:	0000                	.insn	2, 0x
    9cae:	2400                	.insn	2, 0x2400
    9cb0:	1305                	.insn	2, 0x1305
	...
    9cbe:	0000                	.insn	2, 0x
    9cc0:	1205                	.insn	2, 0x1205
    9cc2:	0000                	.insn	2, 0x
    9cc4:	0000                	.insn	2, 0x
    9cc6:	0000                	.insn	2, 0x
    9cc8:	1200                	.insn	2, 0x1200
    9cca:	0011                	.insn	2, 0x0011
    9ccc:	1200                	.insn	2, 0x1200
    9cce:	0005                	.insn	2, 0x0005
    9cd0:	0000                	.insn	2, 0x
    9cd2:	0000                	.insn	2, 0x
    9cd4:	0510                	.insn	2, 0x0510
    9cd6:	001d                	.insn	2, 0x001d
    9cd8:	0000                	.insn	2, 0x
    9cda:	1b00                	.insn	2, 0x1b00
    9cdc:	1905                	.insn	2, 0x1905
    9cde:	0000                	.insn	2, 0x
    9ce0:	0000                	.insn	2, 0x
    9ce2:	0000                	.insn	2, 0x
    9ce4:	1105                	.insn	2, 0x1105
	...
    9cf2:	051d                	.insn	2, 0x051d
    9cf4:	001f 0000 0000      	.insn	6, 0x001f
	...
    9d02:	1600                	.insn	2, 0x1600
    9d04:	1605                	.insn	2, 0x1605
    9d06:	1600                	.insn	2, 0x1600
    9d08:	1505                	.insn	2, 0x1505
    9d0a:	0000                	.insn	2, 0x
    9d0c:	0000                	.insn	2, 0x
    9d0e:	0520                	.insn	2, 0x0520
    9d10:	2014                	.insn	2, 0x2014
    9d12:	1005                	.insn	2, 0x1005
    9d14:	0000                	.insn	2, 0x
    9d16:	1110                	.insn	2, 0x1110
    9d18:	1f00                	.insn	2, 0x1f00
    9d1a:	0405                	.insn	2, 0x0405
    9d1c:	0000                	.insn	2, 0x
    9d1e:	051a                	.insn	2, 0x051a
    9d20:	0000001b          	.insn	4, 0x001b
	...
    9d50:	1f050513          	addi	a0,a0,496
    9d54:	1614                	.insn	2, 0x1614
    9d56:	001a                	.insn	2, 0x001a
	...
    9d60:	1205                	.insn	2, 0x1205
    9d62:	0000                	.insn	2, 0x
    9d64:	0000                	.insn	2, 0x
    9d66:	0000                	.insn	2, 0x
    9d68:	0519                	.insn	2, 0x0519
    9d6a:	0022                	.insn	2, 0x0022
    9d6c:	1600                	.insn	2, 0x1600
    9d6e:	1505                	.insn	2, 0x1505
    9d70:	0000                	.insn	2, 0x
    9d72:	0000                	.insn	2, 0x
    9d74:	0510                	.insn	2, 0x0510
    9d76:	001d                	.insn	2, 0x001d
    9d78:	0000                	.insn	2, 0x
    9d7a:	0012050f          	.insn	4, 0x0012050f
    9d7e:	0000                	.insn	2, 0x
    9d80:	0000                	.insn	2, 0x
    9d82:	0000                	.insn	2, 0x
    9d84:	1105                	.insn	2, 0x1105
	...
    9d92:	0516                	.insn	2, 0x0516
    9d94:	0015                	.insn	2, 0x0015
	...
    9da2:	1300                	.insn	2, 0x1300
    9da4:	0011                	.insn	2, 0x0011
    9da6:	0000                	.insn	2, 0x
    9da8:	1111                	.insn	2, 0x1111
    9daa:	0000                	.insn	2, 0x
    9dac:	0000                	.insn	2, 0x
    9dae:	0520                	.insn	2, 0x0520
    9db0:	0014                	.insn	2, 0x0014
    9db2:	0514                	.insn	2, 0x0514
    9db4:	171a                	.insn	2, 0x171a
    9db6:	1605                	.insn	2, 0x1605
    9db8:	1f00                	.insn	2, 0x1f00
    9dba:	0405                	.insn	2, 0x0405
    9dbc:	0000                	.insn	2, 0x
    9dbe:	051a                	.insn	2, 0x051a
    9dc0:	1105                	.insn	2, 0x1105
    9dc2:	1111                	.insn	2, 0x1111
    9dc4:	1111                	.insn	2, 0x1111
    9dc6:	1311                	.insn	2, 0x1311
	...
    9df0:	1600                	.insn	2, 0x1600
    9df2:	111f 0505 1105      	.insn	6, 0x11050505111f
    9df8:	001e                	.insn	2, 0x001e
    9dfa:	0000                	.insn	2, 0x
    9dfc:	0000                	.insn	2, 0x
    9dfe:	0000                	.insn	2, 0x
    9e00:	1205                	.insn	2, 0x1205
    9e02:	0000                	.insn	2, 0x
    9e04:	0000                	.insn	2, 0x
    9e06:	0000                	.insn	2, 0x
    9e08:	0518                	.insn	2, 0x0518
    9e0a:	0004                	.insn	2, 0x0004
    9e0c:	0000                	.insn	2, 0x
    9e0e:	1205                	.insn	2, 0x1205
    9e10:	0000                	.insn	2, 0x
    9e12:	0000                	.insn	2, 0x
    9e14:	0510                	.insn	2, 0x0510
    9e16:	11131c13          	.insn	4, 0x11131c13
    9e1a:	1805                	.insn	2, 0x1805
    9e1c:	0004                	.insn	2, 0x0004
    9e1e:	0000                	.insn	2, 0x
    9e20:	0000                	.insn	2, 0x
    9e22:	0000                	.insn	2, 0x
    9e24:	1105                	.insn	2, 0x1105
	...
    9e32:	0515                	.insn	2, 0x0515
    9e34:	0016                	.insn	2, 0x0016
    9e36:	0000                	.insn	2, 0x
    9e38:	1500                	.insn	2, 0x1500
    9e3a:	1818                	.insn	2, 0x1818
    9e3c:	1818                	.insn	2, 0x1818
    9e3e:	0022                	.insn	2, 0x0022
    9e40:	0000                	.insn	2, 0x
    9e42:	051a                	.insn	2, 0x051a
    9e44:	0014                	.insn	2, 0x0014
    9e46:	0000                	.insn	2, 0x
    9e48:	0514                	.insn	2, 0x0514
    9e4a:	0000000f          	fence	unknown,unknown
    9e4e:	0520                	.insn	2, 0x0520
    9e50:	0014                	.insn	2, 0x0014
    9e52:	1104                	.insn	2, 0x1104
    9e54:	181f 0012 1f00      	.insn	6, 0x1f000012181f
    9e5a:	0405                	.insn	2, 0x0405
    9e5c:	0000                	.insn	2, 0x
    9e5e:	051a                	.insn	2, 0x051a
    9e60:	1512                	.insn	2, 0x1512
    9e62:	1515                	.insn	2, 0x1515
    9e64:	1515                	.insn	2, 0x1515
    9e66:	1615                	.insn	2, 0x1615
	...
    9e94:	1904                	.insn	2, 0x1904
    9e96:	1215                	.insn	2, 0x1215
    9e98:	1005                	.insn	2, 0x1005
    9e9a:	0000                	.insn	2, 0x
    9e9c:	0000                	.insn	2, 0x
    9e9e:	0000                	.insn	2, 0x
    9ea0:	1205                	.insn	2, 0x1205
    9ea2:	0000                	.insn	2, 0x
    9ea4:	0000                	.insn	2, 0x
    9ea6:	0400                	.insn	2, 0x0400
    9ea8:	1205                	.insn	2, 0x1205
    9eaa:	0f0f0f0f          	.insn	4, 0x0f0f0f0f
    9eae:	00190513          	addi	a0,s2,1
    9eb2:	0000                	.insn	2, 0x
    9eb4:	0510                	.insn	2, 0x0510
    9eb6:	1018                	.insn	2, 0x1018
    9eb8:	0510                	.insn	2, 0x0510
    9eba:	0411                	.insn	2, 0x0411
	...
    9ec4:	1105                	.insn	2, 0x1105
	...
    9ed2:	0516                	.insn	2, 0x0516
    9ed4:	0014                	.insn	2, 0x0014
    9ed6:	0000                	.insn	2, 0x
    9ed8:	1400                	.insn	2, 0x1400
    9eda:	1c1c                	.insn	2, 0x1c1c
    9edc:	051c                	.insn	2, 0x051c
    9ede:	001c                	.insn	2, 0x001c
    9ee0:	0000                	.insn	2, 0x
    9ee2:	0f15051b          	.insn	4, 0x0f15051b
    9ee6:	05150f0f          	.insn	4, 0x05150f0f
    9eea:	00000013          	nop
    9eee:	0520                	.insn	2, 0x0520
    9ef0:	0014                	.insn	2, 0x0014
    9ef2:	1500                	.insn	2, 0x1500
    9ef4:	0505                	.insn	2, 0x0505
    9ef6:	1f00000f          	.insn	4, 0x1f00000f
    9efa:	0405                	.insn	2, 0x0405
    9efc:	0000                	.insn	2, 0x
    9efe:	051a                	.insn	2, 0x051a
    9f00:	0000001b          	.insn	4, 0x001b
	...
    9f34:	0000                	.insn	2, 0x
    9f36:	0400                	.insn	2, 0x0400
    9f38:	1105                	.insn	2, 0x1105
    9f3a:	0000                	.insn	2, 0x
    9f3c:	0000                	.insn	2, 0x
    9f3e:	0000                	.insn	2, 0x
    9f40:	1205                	.insn	2, 0x1205
    9f42:	0000                	.insn	2, 0x
    9f44:	0000                	.insn	2, 0x
    9f46:	1400                	.insn	2, 0x1400
    9f48:	0505                	.insn	2, 0x0505
    9f4a:	0505                	.insn	2, 0x0505
    9f4c:	0505                	.insn	2, 0x0505
    9f4e:	0505                	.insn	2, 0x0505
    9f50:	001f 0000 0510      	.insn	6, 0x05100000001f
    9f56:	001d                	.insn	2, 0x001d
    9f58:	0f00                	.insn	2, 0x0f00
    9f5a:	1205                	.insn	2, 0x1205
    9f5c:	0004                	.insn	2, 0x0004
    9f5e:	0000                	.insn	2, 0x
    9f60:	0000                	.insn	2, 0x
    9f62:	0000                	.insn	2, 0x
    9f64:	1105                	.insn	2, 0x1105
	...
    9f72:	00120517          	auipc	a0,0x120
    9f76:	0000                	.insn	2, 0x
    9f78:	0000                	.insn	2, 0x
    9f7a:	0000                	.insn	2, 0x
    9f7c:	0500                	.insn	2, 0x0500
    9f7e:	001c                	.insn	2, 0x001c
    9f80:	0400                	.insn	2, 0x0400
    9f82:	0505                	.insn	2, 0x0505
    9f84:	0505                	.insn	2, 0x0505
    9f86:	0505                	.insn	2, 0x0505
    9f88:	0505                	.insn	2, 0x0505
    9f8a:	1a05                	.insn	2, 0x1a05
    9f8c:	0000                	.insn	2, 0x
    9f8e:	0520                	.insn	2, 0x0520
    9f90:	0014                	.insn	2, 0x0014
    9f92:	0000                	.insn	2, 0x
    9f94:	1311                	.insn	2, 0x1311
    9f96:	0000                	.insn	2, 0x
    9f98:	1f00                	.insn	2, 0x1f00
    9f9a:	0405                	.insn	2, 0x0405
    9f9c:	0000                	.insn	2, 0x
    9f9e:	051a                	.insn	2, 0x051a
    9fa0:	0000001b          	.insn	4, 0x001b
	...
    9fcc:	0000                	.insn	2, 0x
    9fce:	1700                	.insn	2, 0x1700
	...
    9fd8:	1105                	.insn	2, 0x1105
    9fda:	0000                	.insn	2, 0x
    9fdc:	0000                	.insn	2, 0x
    9fde:	0000                	.insn	2, 0x
    9fe0:	1205                	.insn	2, 0x1205
    9fe2:	0000                	.insn	2, 0x
    9fe4:	0000                	.insn	2, 0x
    9fe6:	1100                	.insn	2, 0x1100
    9fe8:	0012                	.insn	2, 0x0012
    9fea:	0000                	.insn	2, 0x
    9fec:	0000                	.insn	2, 0x
    9fee:	1300                	.insn	2, 0x1300
    9ff0:	2005                	.insn	2, 0x2005
    9ff2:	0000                	.insn	2, 0x
    9ff4:	0510                	.insn	2, 0x0510
    9ff6:	001d                	.insn	2, 0x001d
    9ff8:	0000                	.insn	2, 0x
    9ffa:	0524                	.insn	2, 0x0524
    9ffc:	0412                	.insn	2, 0x0412
    9ffe:	0000                	.insn	2, 0x
    a000:	0000                	.insn	2, 0x
    a002:	0000                	.insn	2, 0x
    a004:	1105                	.insn	2, 0x1105
	...
    a012:	1c00                	.insn	2, 0x1c00
    a014:	1505                	.insn	2, 0x1505
    a016:	0000                	.insn	2, 0x
    a018:	0000                	.insn	2, 0x
    a01a:	0000                	.insn	2, 0x
    a01c:	0500                	.insn	2, 0x0500
    a01e:	001c                	.insn	2, 0x001c
    a020:	1500                	.insn	2, 0x1500
    a022:	0f05                	.insn	2, 0x0f05
    a024:	0000                	.insn	2, 0x
    a026:	0000                	.insn	2, 0x
    a028:	0f00                	.insn	2, 0x0f00
    a02a:	1005                	.insn	2, 0x1005
    a02c:	0000                	.insn	2, 0x
    a02e:	0520                	.insn	2, 0x0520
    a030:	0014                	.insn	2, 0x0014
    a032:	0000                	.insn	2, 0x
    a034:	0000                	.insn	2, 0x
    a036:	0000                	.insn	2, 0x
    a038:	1f00                	.insn	2, 0x1f00
    a03a:	0405                	.insn	2, 0x0405
    a03c:	0000                	.insn	2, 0x
    a03e:	051a                	.insn	2, 0x051a
    a040:	0000001b          	.insn	4, 0x001b
	...
    a06c:	0000                	.insn	2, 0x
    a06e:	1000                	.insn	2, 0x1000
    a070:	1612                	.insn	2, 0x1612
    a072:	0004                	.insn	2, 0x0004
    a074:	0000                	.insn	2, 0x
    a076:	15051817          	auipc	a6,0x15051
    a07a:	0000                	.insn	2, 0x
    a07c:	0000                	.insn	2, 0x
    a07e:	0000                	.insn	2, 0x
    a080:	1205                	.insn	2, 0x1205
    a082:	0000                	.insn	2, 0x
    a084:	0000                	.insn	2, 0x
    a086:	00150523          	sb	ra,10(a0) # 129f7c <_stack_end+0x1c70c>
    a08a:	0000                	.insn	2, 0x
    a08c:	0000                	.insn	2, 0x
    a08e:	1600                	.insn	2, 0x1600
    a090:	1405                	.insn	2, 0x1405
    a092:	0000                	.insn	2, 0x
    a094:	0510                	.insn	2, 0x0510
    a096:	001d                	.insn	2, 0x001d
    a098:	0000                	.insn	2, 0x
    a09a:	1600                	.insn	2, 0x1600
    a09c:	1205                	.insn	2, 0x1205
    a09e:	0004                	.insn	2, 0x0004
    a0a0:	0000                	.insn	2, 0x
    a0a2:	0000                	.insn	2, 0x
    a0a4:	1105                	.insn	2, 0x1105
	...
    a0b2:	2000                	.insn	2, 0x2000
    a0b4:	0511                	.insn	2, 0x0511
    a0b6:	1710                	.insn	2, 0x1710
    a0b8:	0000                	.insn	2, 0x
    a0ba:	0000                	.insn	2, 0x
    a0bc:	0519                	.insn	2, 0x0519
    a0be:	001c                	.insn	2, 0x001c
    a0c0:	1100                	.insn	2, 0x1100
    a0c2:	0011                	.insn	2, 0x0011
    a0c4:	0000                	.insn	2, 0x
    a0c6:	0000                	.insn	2, 0x
    a0c8:	0000                	.insn	2, 0x
    a0ca:	0511                	.insn	2, 0x0511
    a0cc:	0000                	.insn	2, 0x
    a0ce:	0520                	.insn	2, 0x0520
    a0d0:	0014                	.insn	2, 0x0014
    a0d2:	0000                	.insn	2, 0x
    a0d4:	0000                	.insn	2, 0x
    a0d6:	0000                	.insn	2, 0x
    a0d8:	1f00                	.insn	2, 0x1f00
    a0da:	0405                	.insn	2, 0x0405
    a0dc:	0000                	.insn	2, 0x
    a0de:	051a                	.insn	2, 0x051a
    a0e0:	0000001b          	.insn	4, 0x001b
	...
    a10c:	0000                	.insn	2, 0x
    a10e:	1600                	.insn	2, 0x1600
    a110:	0511                	.insn	2, 0x0511
    a112:	1105                	.insn	2, 0x1105
    a114:	1112                	.insn	2, 0x1112
    a116:	0505                	.insn	2, 0x0505
    a118:	0015                	.insn	2, 0x0015
    a11a:	0000                	.insn	2, 0x
    a11c:	0000                	.insn	2, 0x
    a11e:	0000                	.insn	2, 0x
    a120:	1205                	.insn	2, 0x1205
    a122:	0000                	.insn	2, 0x
    a124:	0000                	.insn	2, 0x
    a126:	00040513          	mv	a0,s0
    a12a:	0000                	.insn	2, 0x
    a12c:	0000                	.insn	2, 0x
    a12e:	0000                	.insn	2, 0x
    a130:	1111                	.insn	2, 0x1111
    a132:	0000                	.insn	2, 0x
    a134:	0510                	.insn	2, 0x0510
    a136:	001d                	.insn	2, 0x001d
    a138:	0000                	.insn	2, 0x
    a13a:	0000                	.insn	2, 0x
    a13c:	0516                	.insn	2, 0x0516
    a13e:	0412                	.insn	2, 0x0412
    a140:	0000                	.insn	2, 0x
    a142:	0000                	.insn	2, 0x
    a144:	1105                	.insn	2, 0x1105
	...
    a152:	0000                	.insn	2, 0x
    a154:	1b04                	.insn	2, 0x1b04
    a156:	0505                	.insn	2, 0x0505
    a158:	1211                	.insn	2, 0x1211
    a15a:	0511                	.insn	2, 0x0511
    a15c:	1205                	.insn	2, 0x1205
    a15e:	0016                	.insn	2, 0x0016
    a160:	0014050f          	.insn	4, 0x0014050f
    a164:	0000                	.insn	2, 0x
    a166:	0000                	.insn	2, 0x
    a168:	0000                	.insn	2, 0x
    a16a:	0522                	.insn	2, 0x0522
    a16c:	0016                	.insn	2, 0x0016
    a16e:	0520                	.insn	2, 0x0520
    a170:	0014                	.insn	2, 0x0014
    a172:	0000                	.insn	2, 0x
    a174:	0000                	.insn	2, 0x
    a176:	0000                	.insn	2, 0x
    a178:	1f00                	.insn	2, 0x1f00
    a17a:	0405                	.insn	2, 0x0405
    a17c:	0000                	.insn	2, 0x
    a17e:	051a                	.insn	2, 0x051a
    a180:	0505                	.insn	2, 0x0505
    a182:	0505                	.insn	2, 0x0505
    a184:	0505                	.insn	2, 0x0505
    a186:	1205                	.insn	2, 0x1205
	...
    a1b0:	1a00                	.insn	2, 0x1a00
    a1b2:	15141523          	sh	a7,330(s0)
    a1b6:	0000000f          	fence	unknown,unknown
    a1ba:	0000                	.insn	2, 0x
    a1bc:	0000                	.insn	2, 0x
    a1be:	0000                	.insn	2, 0x
    a1c0:	0000190f          	.insn	4, 0x190f
    a1c4:	0000                	.insn	2, 0x
    a1c6:	0000190f          	.insn	4, 0x190f
    a1ca:	0000                	.insn	2, 0x
    a1cc:	0000                	.insn	2, 0x
    a1ce:	0000                	.insn	2, 0x
    a1d0:	0f1d                	.insn	2, 0x0f1d
    a1d2:	0004                	.insn	2, 0x0004
    a1d4:	0f1a                	.insn	2, 0x0f1a
    a1d6:	0004                	.insn	2, 0x0004
    a1d8:	0000                	.insn	2, 0x
    a1da:	0000                	.insn	2, 0x
    a1dc:	1900                	.insn	2, 0x1900
    a1de:	00001a0f          	.insn	4, 0x1a0f
    a1e2:	0000                	.insn	2, 0x
    a1e4:	00000f0f          	.insn	4, 0x0f0f
	...
    a1f4:	0000                	.insn	2, 0x
    a1f6:	0f04                	.insn	2, 0x0f04
    a1f8:	1415                	.insn	2, 0x1415
    a1fa:	1622                	.insn	2, 0x1622
    a1fc:	00000017          	auipc	zero,0x0
    a200:	0f1a                	.insn	2, 0x0f1a
    a202:	0004                	.insn	2, 0x0004
    a204:	0000                	.insn	2, 0x
    a206:	0000                	.insn	2, 0x
    a208:	0000                	.insn	2, 0x
    a20a:	0f04                	.insn	2, 0x0f04
    a20c:	001d                	.insn	2, 0x001d
    a20e:	0f00                	.insn	2, 0x0f00
    a210:	001a                	.insn	2, 0x001a
    a212:	0000                	.insn	2, 0x
    a214:	0000                	.insn	2, 0x
    a216:	0000                	.insn	2, 0x
    a218:	1d00                	.insn	2, 0x1d00
    a21a:	0000000f          	fence	unknown,unknown
    a21e:	0f00                	.insn	2, 0x0f00
    a220:	0f0f0f0f          	.insn	4, 0x0f0f0f0f
    a224:	190f0f0f          	.insn	4, 0x190f0f0f
	...
    b3d0:	0000190f          	.insn	4, 0x190f
    b3d4:	0000                	.insn	2, 0x
    b3d6:	0000                	.insn	2, 0x
    b3d8:	0f04                	.insn	2, 0x0f04
    b3da:	20000017          	auipc	zero,0x20000
    b3de:	0f0f0f0f          	.insn	4, 0x0f0f0f0f
    b3e2:	0000000f          	fence	unknown,unknown
    b3e6:	0000                	.insn	2, 0x
    b3e8:	0400                	.insn	2, 0x0400
    b3ea:	1514150f          	.insn	4, 0x1514150f
    b3ee:	0000200f          	.insn	4, 0x200f
    b3f2:	0000                	.insn	2, 0x
    b3f4:	0f00                	.insn	2, 0x0f00
    b3f6:	001d                	.insn	2, 0x001d
    b3f8:	0000                	.insn	2, 0x
    b3fa:	0000                	.insn	2, 0x
    b3fc:	1700                	.insn	2, 0x1700
    b3fe:	0000040f          	.insn	4, 0x040f
	...
    b40a:	0000                	.insn	2, 0x
    b40c:	161e150f          	.insn	4, 0x161e150f
    b410:	1724                	.insn	2, 0x1724
	...
    b41a:	1514150f          	.insn	4, 0x1514150f
    b41e:	0000040f          	.insn	4, 0x040f
    b422:	0000                	.insn	2, 0x
    b424:	0000                	.insn	2, 0x
    b426:	0f00                	.insn	2, 0x0f00
    b428:	1422                	.insn	2, 0x1422
    b42a:	0f15                	.insn	2, 0x0f15
    b42c:	0000                	.insn	2, 0x
    b42e:	0000                	.insn	2, 0x
    b430:	0000                	.insn	2, 0x
    b432:	0f04                	.insn	2, 0x0f04
    b434:	190f0f0f          	.insn	4, 0x190f0f0f
    b438:	00000017          	auipc	zero,0x0
    b43c:	0000                	.insn	2, 0x
    b43e:	0000                	.insn	2, 0x
    b440:	0f0f0f0f          	.insn	4, 0x0f0f0f0f
    b444:	0f0f0f0f          	.insn	4, 0x0f0f0f0f
    b448:	0000000f          	fence	unknown,unknown
	...
    b470:	1205                	.insn	2, 0x1205
    b472:	0000                	.insn	2, 0x
    b474:	0000                	.insn	2, 0x
    b476:	0000                	.insn	2, 0x
    b478:	001e050f          	.insn	4, 0x001e050f
    b47c:	0f00                	.insn	2, 0x0f00
    b47e:	1112                	.insn	2, 0x1112
    b480:	1105                	.insn	2, 0x1105
    b482:	0012                	.insn	2, 0x0012
    b484:	0000                	.insn	2, 0x
    b486:	0400                	.insn	2, 0x0400
    b488:	0518                	.insn	2, 0x0518
    b48a:	1205                	.insn	2, 0x1205
    b48c:	1112                	.insn	2, 0x1112
    b48e:	0505                	.insn	2, 0x0505
    b490:	2412                	.insn	2, 0x2412
    b492:	0000                	.insn	2, 0x
    b494:	001b0517          	auipc	a0,0x1b0
    b498:	0000                	.insn	2, 0x
    b49a:	0000                	.insn	2, 0x
    b49c:	1500                	.insn	2, 0x1500
    b49e:	0f05                	.insn	2, 0x0f05
	...
    b4a8:	0000                	.insn	2, 0x
    b4aa:	0515                	.insn	2, 0x0515
    b4ac:	1105                	.insn	2, 0x1105
    b4ae:	1112                	.insn	2, 0x1112
    b4b0:	0505                	.insn	2, 0x0505
    b4b2:	0411                	.insn	2, 0x0411
    b4b4:	0000                	.insn	2, 0x
    b4b6:	0000                	.insn	2, 0x
    b4b8:	051e                	.insn	2, 0x051e
    b4ba:	1105                	.insn	2, 0x1105
    b4bc:	1112                	.insn	2, 0x1112
    b4be:	0505                	.insn	2, 0x0505
    b4c0:	041c                	.insn	2, 0x041c
    b4c2:	0000                	.insn	2, 0x
    b4c4:	1e00                	.insn	2, 0x1e00
    b4c6:	0505                	.insn	2, 0x0505
    b4c8:	1211                	.insn	2, 0x1211
    b4ca:	0511                	.insn	2, 0x0511
    b4cc:	2311                	.insn	2, 0x2311
    b4ce:	0000                	.insn	2, 0x
    b4d0:	0000                	.insn	2, 0x
    b4d2:	0505050f          	.insn	4, 0x0505050f
    b4d6:	0505                	.insn	2, 0x0505
    b4d8:	1105                	.insn	2, 0x1105
    b4da:	0016                	.insn	2, 0x0016
    b4dc:	0000                	.insn	2, 0x
    b4de:	1700                	.insn	2, 0x1700
    b4e0:	0505                	.insn	2, 0x0505
    b4e2:	0505                	.insn	2, 0x0505
    b4e4:	0505                	.insn	2, 0x0505
    b4e6:	0505                	.insn	2, 0x0505
    b4e8:	0011                	.insn	2, 0x0011
	...
    b50e:	0000                	.insn	2, 0x
    b510:	1205                	.insn	2, 0x1205
    b512:	0000                	.insn	2, 0x
    b514:	0000                	.insn	2, 0x
    b516:	0000                	.insn	2, 0x
    b518:	001e050f          	.insn	4, 0x001e050f
    b51c:	0000                	.insn	2, 0x
    b51e:	1400                	.insn	2, 0x1400
    b520:	1905                	.insn	2, 0x1905
    b522:	0000                	.insn	2, 0x
    b524:	0000                	.insn	2, 0x
    b526:	15051117          	auipc	sp,0x15051
    b52a:	0000                	.insn	2, 0x
    b52c:	0000                	.insn	2, 0x
    b52e:	1604                	.insn	2, 0x1604
    b530:	1012                	.insn	2, 0x1012
    b532:	0000                	.insn	2, 0x
    b534:	001b0517          	auipc	a0,0x1b0
    b538:	0000                	.insn	2, 0x
    b53a:	0000                	.insn	2, 0x
    b53c:	1500                	.insn	2, 0x1500
    b53e:	0f05                	.insn	2, 0x0f05
	...
    b548:	1600                	.insn	2, 0x1600
    b54a:	1c05                	.insn	2, 0x1c05
    b54c:	00000017          	auipc	zero,0x0
    b550:	1604                	.insn	2, 0x1604
    b552:	0412                	.insn	2, 0x0412
    b554:	0000                	.insn	2, 0x
    b556:	1f00                	.insn	2, 0x1f00
    b558:	1805                	.insn	2, 0x1805
    b55a:	00000017          	auipc	zero,0x0
    b55e:	1504                	.insn	2, 0x1504
    b560:	1d11                	.insn	2, 0x1d11
    b562:	0000                	.insn	2, 0x
    b564:	0510                	.insn	2, 0x0510
    b566:	171f 0000 1d00      	.insn	6, 0x1d000000171f
    b56c:	0512                	.insn	2, 0x0512
    b56e:	0016                	.insn	2, 0x0016
    b570:	0000                	.insn	2, 0x
    b572:	0014050f          	.insn	4, 0x0014050f
    b576:	0400                	.insn	2, 0x0400
    b578:	0f05110f          	.insn	4, 0x0f05110f
    b57c:	0000                	.insn	2, 0x
    b57e:	1700                	.insn	2, 0x1700
    b580:	1805                	.insn	2, 0x1805
	...
    b5ae:	0000                	.insn	2, 0x
    b5b0:	1205                	.insn	2, 0x1205
    b5b2:	0000                	.insn	2, 0x
    b5b4:	0000                	.insn	2, 0x
    b5b6:	0000                	.insn	2, 0x
    b5b8:	001e050f          	.insn	4, 0x001e050f
    b5bc:	0000                	.insn	2, 0x
    b5be:	1400                	.insn	2, 0x1400
    b5c0:	1905                	.insn	2, 0x1905
    b5c2:	0000                	.insn	2, 0x
    b5c4:	0000                	.insn	2, 0x
    b5c6:	0512                	.insn	2, 0x0512
    b5c8:	0000000f          	fence	unknown,unknown
    b5cc:	0000                	.insn	2, 0x
    b5ce:	0000                	.insn	2, 0x
    b5d0:	1a00                	.insn	2, 0x1a00
    b5d2:	0000                	.insn	2, 0x
    b5d4:	001b0517          	auipc	a0,0x1b0
    b5d8:	0000                	.insn	2, 0x
    b5da:	0000                	.insn	2, 0x
    b5dc:	1500                	.insn	2, 0x1500
    b5de:	0f05                	.insn	2, 0x0f05
	...
    b5e8:	1300                	.insn	2, 0x1300
    b5ea:	2005                	.insn	2, 0x2005
	...
    b5f4:	0000                	.insn	2, 0x
    b5f6:	0516                	.insn	2, 0x0516
    b5f8:	0018                	.insn	2, 0x0018
    b5fa:	0000                	.insn	2, 0x
    b5fc:	0000                	.insn	2, 0x
    b5fe:	0000                	.insn	2, 0x
    b600:	0404                	.insn	2, 0x0404
    b602:	1900                	.insn	2, 0x1900
    b604:	1305                	.insn	2, 0x1305
    b606:	0000                	.insn	2, 0x
    b608:	0000                	.insn	2, 0x
    b60a:	0000                	.insn	2, 0x
    b60c:	1104                	.insn	2, 0x1104
    b60e:	0405                	.insn	2, 0x0405
    b610:	0000                	.insn	2, 0x
    b612:	001e050f          	.insn	4, 0x001e050f
    b616:	0000                	.insn	2, 0x
    b618:	0f00                	.insn	2, 0x0f00
    b61a:	1b05                	.insn	2, 0x1b05
    b61c:	0000                	.insn	2, 0x
    b61e:	1700                	.insn	2, 0x1700
    b620:	1805                	.insn	2, 0x1805
	...
    b64e:	0000                	.insn	2, 0x
    b650:	1205                	.insn	2, 0x1205
    b652:	0000                	.insn	2, 0x
    b654:	0000                	.insn	2, 0x
    b656:	0000                	.insn	2, 0x
    b658:	001e050f          	.insn	4, 0x001e050f
    b65c:	0000                	.insn	2, 0x
    b65e:	1400                	.insn	2, 0x1400
    b660:	1905                	.insn	2, 0x1905
    b662:	0000                	.insn	2, 0x
    b664:	1900                	.insn	2, 0x1900
    b666:	1805                	.insn	2, 0x1805
	...
    b674:	001b0517          	auipc	a0,0x1b0
    b678:	0000                	.insn	2, 0x
    b67a:	0000                	.insn	2, 0x
    b67c:	1500                	.insn	2, 0x1500
    b67e:	0f05                	.insn	2, 0x0f05
	...
    b688:	1c00                	.insn	2, 0x1c00
    b68a:	1905                	.insn	2, 0x1905
	...
    b694:	0000                	.insn	2, 0x
    b696:	0512                	.insn	2, 0x0512
    b698:	0004                	.insn	2, 0x0004
	...
    b6a2:	1800                	.insn	2, 0x1800
    b6a4:	1905                	.insn	2, 0x1905
    b6a6:	0000                	.insn	2, 0x
    b6a8:	0000                	.insn	2, 0x
    b6aa:	0000                	.insn	2, 0x
    b6ac:	1500                	.insn	2, 0x1500
    b6ae:	1505                	.insn	2, 0x1505
    b6b0:	0000                	.insn	2, 0x
    b6b2:	001e050f          	.insn	4, 0x001e050f
    b6b6:	0000                	.insn	2, 0x
    b6b8:	0f00                	.insn	2, 0x0f00
    b6ba:	1005                	.insn	2, 0x1005
    b6bc:	0000                	.insn	2, 0x
    b6be:	1700                	.insn	2, 0x1700
    b6c0:	1805                	.insn	2, 0x1805
	...
    b6ee:	0000                	.insn	2, 0x
    b6f0:	1105                	.insn	2, 0x1105
    b6f2:	1818                	.insn	2, 0x1818
    b6f4:	1818                	.insn	2, 0x1818
    b6f6:	1818                	.insn	2, 0x1818
    b6f8:	001e0513          	addi	a0,t3,1
    b6fc:	0000                	.insn	2, 0x
    b6fe:	1400                	.insn	2, 0x1400
    b700:	1905                	.insn	2, 0x1905
    b702:	0000                	.insn	2, 0x
    b704:	1e00                	.insn	2, 0x1e00
    b706:	1605                	.insn	2, 0x1605
	...
    b714:	18110517          	auipc	a0,0x18110
    b718:	1818                	.insn	2, 0x1818
    b71a:	1818                	.insn	2, 0x1818
    b71c:	1218                	.insn	2, 0x1218
    b71e:	0f05                	.insn	2, 0x0f05
	...
    b728:	0f00                	.insn	2, 0x0f00
    b72a:	0505                	.insn	2, 0x0505
    b72c:	001d161b          	.insn	4, 0x001d161b
    b730:	0000                	.insn	2, 0x
    b732:	0000                	.insn	2, 0x
    b734:	0400                	.insn	2, 0x0400
    b736:	1205                	.insn	2, 0x1205
	...
    b740:	0000                	.insn	2, 0x
    b742:	1100                	.insn	2, 0x1100
    b744:	0005                	.insn	2, 0x0005
    b746:	0000                	.insn	2, 0x
    b748:	0000                	.insn	2, 0x
    b74a:	0000                	.insn	2, 0x
    b74c:	1a00                	.insn	2, 0x1a00
    b74e:	1805                	.insn	2, 0x1805
    b750:	0000                	.insn	2, 0x
    b752:	001e050f          	.insn	4, 0x001e050f
    b756:	0000                	.insn	2, 0x
    b758:	1800                	.insn	2, 0x1800
    b75a:	1905                	.insn	2, 0x1905
    b75c:	0000                	.insn	2, 0x
    b75e:	1700                	.insn	2, 0x1700
    b760:	1105                	.insn	2, 0x1105
    b762:	1818                	.insn	2, 0x1818
    b764:	1818                	.insn	2, 0x1818
    b766:	1818                	.insn	2, 0x1818
    b768:	0010                	.insn	2, 0x0010
	...
    b78e:	0000                	.insn	2, 0x
    b790:	0505                	.insn	2, 0x0505
    b792:	1c1c                	.insn	2, 0x1c1c
    b794:	1c1c                	.insn	2, 0x1c1c
    b796:	1c1c                	.insn	2, 0x1c1c
    b798:	0512                	.insn	2, 0x0512
    b79a:	001e                	.insn	2, 0x001e
    b79c:	0000                	.insn	2, 0x
    b79e:	1400                	.insn	2, 0x1400
    b7a0:	1905                	.insn	2, 0x1905
    b7a2:	0000                	.insn	2, 0x
    b7a4:	1000                	.insn	2, 0x1000
    b7a6:	0f05                	.insn	2, 0x0f05
    b7a8:	0000                	.insn	2, 0x
    b7aa:	0000                	.insn	2, 0x
    b7ac:	1616160f          	.insn	4, 0x1616160f
    b7b0:	1916                	.insn	2, 0x1916
    b7b2:	0000                	.insn	2, 0x
    b7b4:	1c110517          	auipc	a0,0x1c110
    b7b8:	1c1c                	.insn	2, 0x1c1c
    b7ba:	1c1c                	.insn	2, 0x1c1c
    b7bc:	121c                	.insn	2, 0x121c
    b7be:	0f05                	.insn	2, 0x0f05
	...
    b7c8:	0000                	.insn	2, 0x
    b7ca:	1319                	.insn	2, 0x1319
    b7cc:	0505                	.insn	2, 0x0505
    b7ce:	0505                	.insn	2, 0x0505
    b7d0:	1412                	.insn	2, 0x1412
    b7d2:	0004                	.insn	2, 0x0004
    b7d4:	1700                	.insn	2, 0x1700
    b7d6:	1c05                	.insn	2, 0x1c05
	...
    b7e0:	0000                	.insn	2, 0x
    b7e2:	0500                	.insn	2, 0x0500
    b7e4:	0011                	.insn	2, 0x0011
    b7e6:	0000                	.insn	2, 0x
    b7e8:	0000                	.insn	2, 0x
    b7ea:	0000                	.insn	2, 0x
    b7ec:	2000                	.insn	2, 0x2000
    b7ee:	1305                	.insn	2, 0x1305
    b7f0:	0000                	.insn	2, 0x
    b7f2:	151c050f          	.insn	4, 0x151c050f
    b7f6:	1415                	.insn	2, 0x1415
    b7f8:	0512                	.insn	2, 0x0512
    b7fa:	0015                	.insn	2, 0x0015
    b7fc:	0000                	.insn	2, 0x
    b7fe:	1700                	.insn	2, 0x1700
    b800:	1105                	.insn	2, 0x1105
    b802:	1c1c                	.insn	2, 0x1c1c
    b804:	1c1c                	.insn	2, 0x1c1c
    b806:	1c1c                	.insn	2, 0x1c1c
    b808:	0000001b          	.insn	4, 0x001b
	...
    b830:	1205                	.insn	2, 0x1205
    b832:	0000                	.insn	2, 0x
    b834:	0000                	.insn	2, 0x
    b836:	0000                	.insn	2, 0x
    b838:	001e050f          	.insn	4, 0x001e050f
    b83c:	0000                	.insn	2, 0x
    b83e:	1400                	.insn	2, 0x1400
    b840:	1905                	.insn	2, 0x1905
    b842:	0000                	.insn	2, 0x
    b844:	1400                	.insn	2, 0x1400
    b846:	2305                	.insn	2, 0x2305
    b848:	0000                	.insn	2, 0x
    b84a:	0000                	.insn	2, 0x
    b84c:	0512                	.insn	2, 0x0512
    b84e:	0505                	.insn	2, 0x0505
    b850:	1b05                	.insn	2, 0x1b05
    b852:	0000                	.insn	2, 0x
    b854:	001b0517          	auipc	a0,0x1b0
    b858:	0000                	.insn	2, 0x
    b85a:	0000                	.insn	2, 0x
    b85c:	1500                	.insn	2, 0x1500
    b85e:	0f05                	.insn	2, 0x0f05
	...
    b86c:	1900                	.insn	2, 0x1900
    b86e:	1416                	.insn	2, 0x1416
    b870:	0512                	.insn	2, 0x0512
    b872:	2011                	.insn	2, 0x2011
    b874:	0400                	.insn	2, 0x0400
    b876:	1305                	.insn	2, 0x1305
	...
    b880:	0000                	.insn	2, 0x
    b882:	1100                	.insn	2, 0x1100
    b884:	0005                	.insn	2, 0x0005
    b886:	0000                	.insn	2, 0x
    b888:	0000                	.insn	2, 0x
    b88a:	0000                	.insn	2, 0x
    b88c:	1a00                	.insn	2, 0x1a00
    b88e:	1f05                	.insn	2, 0x1f05
    b890:	0000                	.insn	2, 0x
    b892:	1211050f          	.insn	4, 0x1211050f
    b896:	0512                	.insn	2, 0x0512
    b898:	1d05                	.insn	2, 0x1d05
    b89a:	0000                	.insn	2, 0x
    b89c:	0000                	.insn	2, 0x
    b89e:	1700                	.insn	2, 0x1700
    b8a0:	1805                	.insn	2, 0x1805
	...
    b8ce:	0000                	.insn	2, 0x
    b8d0:	1205                	.insn	2, 0x1205
    b8d2:	0000                	.insn	2, 0x
    b8d4:	0000                	.insn	2, 0x
    b8d6:	0000                	.insn	2, 0x
    b8d8:	001e050f          	.insn	4, 0x001e050f
    b8dc:	0000                	.insn	2, 0x
    b8de:	1400                	.insn	2, 0x1400
    b8e0:	1905                	.insn	2, 0x1905
    b8e2:	0000                	.insn	2, 0x
    b8e4:	2400                	.insn	2, 0x2400
    b8e6:	1005                	.insn	2, 0x1005
    b8e8:	0000                	.insn	2, 0x
    b8ea:	0000                	.insn	2, 0x
    b8ec:	0000                	.insn	2, 0x
    b8ee:	1a00                	.insn	2, 0x1a00
    b8f0:	1b05                	.insn	2, 0x1b05
    b8f2:	0000                	.insn	2, 0x
    b8f4:	001b0517          	auipc	a0,0x1b0
    b8f8:	0000                	.insn	2, 0x
    b8fa:	0000                	.insn	2, 0x
    b8fc:	1500                	.insn	2, 0x1500
    b8fe:	0f05                	.insn	2, 0x0f05
	...
    b910:	1400                	.insn	2, 0x1400
    b912:	1405                	.insn	2, 0x1405
    b914:	0000                	.insn	2, 0x
    b916:	0511                	.insn	2, 0x0511
	...
    b920:	0000                	.insn	2, 0x
    b922:	1c00                	.insn	2, 0x1c00
    b924:	1a05                	.insn	2, 0x1a05
    b926:	0000                	.insn	2, 0x
    b928:	0000                	.insn	2, 0x
    b92a:	0000                	.insn	2, 0x
    b92c:	1600                	.insn	2, 0x1600
    b92e:	1405                	.insn	2, 0x1405
    b930:	0000                	.insn	2, 0x
    b932:	001e050f          	.insn	4, 0x001e050f
    b936:	0f00                	.insn	2, 0x0f00
    b938:	2505                	.insn	2, 0x2505
    b93a:	0020                	.insn	2, 0x0020
    b93c:	0000                	.insn	2, 0x
    b93e:	1700                	.insn	2, 0x1700
    b940:	1805                	.insn	2, 0x1805
	...
    b96e:	0000                	.insn	2, 0x
    b970:	1205                	.insn	2, 0x1205
    b972:	0000                	.insn	2, 0x
    b974:	0000                	.insn	2, 0x
    b976:	0000                	.insn	2, 0x
    b978:	001e050f          	.insn	4, 0x001e050f
    b97c:	0000                	.insn	2, 0x
    b97e:	1400                	.insn	2, 0x1400
    b980:	1905                	.insn	2, 0x1905
    b982:	0000                	.insn	2, 0x
    b984:	0000                	.insn	2, 0x
    b986:	0511                	.insn	2, 0x0511
    b988:	00000017          	auipc	zero,0x0
    b98c:	0000                	.insn	2, 0x
    b98e:	1a00                	.insn	2, 0x1a00
    b990:	1b05                	.insn	2, 0x1b05
    b992:	0000                	.insn	2, 0x
    b994:	001b0517          	auipc	a0,0x1b0
    b998:	0000                	.insn	2, 0x
    b99a:	0000                	.insn	2, 0x
    b99c:	1500                	.insn	2, 0x1500
    b99e:	0f05                	.insn	2, 0x0f05
	...
    b9b0:	0f00                	.insn	2, 0x0f00
    b9b2:	1005                	.insn	2, 0x1005
    b9b4:	0000                	.insn	2, 0x
    b9b6:	0510                	.insn	2, 0x0510
    b9b8:	001e                	.insn	2, 0x001e
	...
    b9c2:	1600                	.insn	2, 0x1600
    b9c4:	1b05                	.insn	2, 0x1b05
    b9c6:	0000                	.insn	2, 0x
    b9c8:	0000                	.insn	2, 0x
    b9ca:	0000                	.insn	2, 0x
    b9cc:	1300                	.insn	2, 0x1300
    b9ce:	1a05                	.insn	2, 0x1a05
    b9d0:	0000                	.insn	2, 0x
    b9d2:	001e050f          	.insn	4, 0x001e050f
    b9d6:	0000                	.insn	2, 0x
    b9d8:	0425050f          	.insn	4, 0x0425050f
    b9dc:	0000                	.insn	2, 0x
    b9de:	1700                	.insn	2, 0x1700
    b9e0:	1805                	.insn	2, 0x1805
	...
    ba0e:	0000                	.insn	2, 0x
    ba10:	1205                	.insn	2, 0x1205
    ba12:	0000                	.insn	2, 0x
    ba14:	0000                	.insn	2, 0x
    ba16:	0000                	.insn	2, 0x
    ba18:	001e050f          	.insn	4, 0x001e050f
    ba1c:	0000                	.insn	2, 0x
    ba1e:	1400                	.insn	2, 0x1400
    ba20:	1905                	.insn	2, 0x1905
    ba22:	0000                	.insn	2, 0x
    ba24:	0000                	.insn	2, 0x
    ba26:	19110523          	sb	a7,394(sp) # 1505c6b0 <_stack_end+0x14f4ee40>
    ba2a:	0000                	.insn	2, 0x
    ba2c:	0000                	.insn	2, 0x
    ba2e:	1a00                	.insn	2, 0x1a00
    ba30:	1b05                	.insn	2, 0x1b05
    ba32:	0000                	.insn	2, 0x
    ba34:	001b0517          	auipc	a0,0x1b0
    ba38:	0000                	.insn	2, 0x
    ba3a:	0000                	.insn	2, 0x
    ba3c:	1500                	.insn	2, 0x1500
    ba3e:	0f05                	.insn	2, 0x0f05
	...
    ba48:	1200                	.insn	2, 0x1200
    ba4a:	0016                	.insn	2, 0x0016
    ba4c:	0000                	.insn	2, 0x
    ba4e:	0000                	.insn	2, 0x
    ba50:	1c00                	.insn	2, 0x1c00
    ba52:	0f05                	.insn	2, 0x0f05
    ba54:	0000                	.insn	2, 0x
    ba56:	1104                	.insn	2, 0x1104
    ba58:	1505                	.insn	2, 0x1505
    ba5a:	0000                	.insn	2, 0x
    ba5c:	0000                	.insn	2, 0x
    ba5e:	1a00                	.insn	2, 0x1a00
    ba60:	1d1c                	.insn	2, 0x1d1c
    ba62:	0000                	.insn	2, 0x
    ba64:	0512                	.insn	2, 0x0512
    ba66:	0015                	.insn	2, 0x0015
    ba68:	0000                	.insn	2, 0x
    ba6a:	0000                	.insn	2, 0x
    ba6c:	001b051b          	.insn	4, 0x001b051b
    ba70:	0000                	.insn	2, 0x
    ba72:	001e050f          	.insn	4, 0x001e050f
    ba76:	0000                	.insn	2, 0x
    ba78:	2400                	.insn	2, 0x2400
    ba7a:	1205                	.insn	2, 0x1205
    ba7c:	0004                	.insn	2, 0x0004
    ba7e:	1700                	.insn	2, 0x1700
    ba80:	1805                	.insn	2, 0x1805
	...
    baae:	0000                	.insn	2, 0x
    bab0:	1205                	.insn	2, 0x1205
    bab2:	0000                	.insn	2, 0x
    bab4:	0000                	.insn	2, 0x
    bab6:	0000                	.insn	2, 0x
    bab8:	001e050f          	.insn	4, 0x001e050f
    babc:	1d00                	.insn	2, 0x1d00
    babe:	1210                	.insn	2, 0x1210
    bac0:	1f05                	.insn	2, 0x1f05
    bac2:	0010                	.insn	2, 0x0010
    bac4:	0000                	.insn	2, 0x
    bac6:	2400                	.insn	2, 0x2400
    bac8:	0511                	.insn	2, 0x0511
    baca:	1b12                	.insn	2, 0x1b12
    bacc:	1b14                	.insn	2, 0x1b14
    bace:	1e050513          	addi	a0,a0,480 # 1bbc14 <_stack_end+0xae3a4>
    bad2:	0000                	.insn	2, 0x
    bad4:	001b0517          	auipc	a0,0x1b0
    bad8:	0000                	.insn	2, 0x
    bada:	0000                	.insn	2, 0x
    badc:	1500                	.insn	2, 0x1500
    bade:	0f05                	.insn	2, 0x0f05
	...
    bae8:	1100                	.insn	2, 0x1100
    baea:	0505                	.insn	2, 0x0505
    baec:	18101013          	.insn	4, 0x18101013
    baf0:	0505                	.insn	2, 0x0505
    baf2:	0015                	.insn	2, 0x0015
    baf4:	0000                	.insn	2, 0x
    baf6:	1700                	.insn	2, 0x1700
    baf8:	0512                	.insn	2, 0x0512
    bafa:	1f11                	.insn	2, 0x1f11
    bafc:	1b10                	.insn	2, 0x1b10
    bafe:	0512                	.insn	2, 0x0512
    bb00:	1705                	.insn	2, 0x1705
    bb02:	0000                	.insn	2, 0x
    bb04:	1304                	.insn	2, 0x1304
    bb06:	1105                	.insn	2, 0x1105
    bb08:	1410                	.insn	2, 0x1410
    bb0a:	1b05111b          	.insn	4, 0x1b05111b
    bb0e:	0000                	.insn	2, 0x
    bb10:	0000                	.insn	2, 0x
    bb12:	001e050f          	.insn	4, 0x001e050f
    bb16:	0000                	.insn	2, 0x
    bb18:	0000                	.insn	2, 0x
    bb1a:	04120523          	sb	ra,74(tp) # 4a <_isr_routine+0x42>
    bb1e:	1700                	.insn	2, 0x1700
    bb20:	1105                	.insn	2, 0x1105
    bb22:	13131313          	.insn	4, 0x13131313
    bb26:	001f1313          	slli	t1,t5,0x1
	...
    bb4e:	0000                	.insn	2, 0x
    bb50:	1510                	.insn	2, 0x1510
    bb52:	0000                	.insn	2, 0x
    bb54:	0000                	.insn	2, 0x
    bb56:	0000                	.insn	2, 0x
    bb58:	101a                	.insn	2, 0x101a
    bb5a:	1d00000f          	.insn	4, 0x1d00000f
    bb5e:	1010                	.insn	2, 0x1010
    bb60:	1010                	.insn	2, 0x1010
    bb62:	0010                	.insn	2, 0x0010
    bb64:	0000                	.insn	2, 0x
    bb66:	0000                	.insn	2, 0x
    bb68:	2300                	.insn	2, 0x2300
    bb6a:	1310                	.insn	2, 0x1310
    bb6c:	16101313          	.insn	4, 0x16101313
    bb70:	0004                	.insn	2, 0x0004
    bb72:	0000                	.insn	2, 0x
    bb74:	1004                	.insn	2, 0x1004
    bb76:	0016                	.insn	2, 0x0016
    bb78:	0000                	.insn	2, 0x
    bb7a:	0000                	.insn	2, 0x
    bb7c:	0f00                	.insn	2, 0x0f00
    bb7e:	1a10                	.insn	2, 0x1a10
	...
    bb88:	0000                	.insn	2, 0x
    bb8a:	1419                	.insn	2, 0x1419
    bb8c:	1f13131b          	.insn	4, 0x1f13131b
    bb90:	2022                	.insn	2, 0x2022
    bb92:	0000                	.insn	2, 0x
    bb94:	0000                	.insn	2, 0x
    bb96:	0000                	.insn	2, 0x
    bb98:	0f00                	.insn	2, 0x0f00
    bb9a:	1c10                	.insn	2, 0x1c10
    bb9c:	0f101c13          	.insn	4, 0x0f101c13
    bba0:	0000                	.insn	2, 0x
    bba2:	0000                	.insn	2, 0x
    bba4:	0000                	.insn	2, 0x
    bba6:	1213100f          	.insn	4, 0x1213100f
    bbaa:	001a1413          	slli	s0,s4,0x1
    bbae:	0000                	.insn	2, 0x
    bbb0:	0000                	.insn	2, 0x
    bbb2:	101a                	.insn	2, 0x101a
    bbb4:	0000000f          	fence	unknown,unknown
    bbb8:	0000                	.insn	2, 0x
    bbba:	2400                	.insn	2, 0x2400
    bbbc:	1510                	.insn	2, 0x1510
    bbbe:	0400                	.insn	2, 0x0400
    bbc0:	1010                	.insn	2, 0x1010
    bbc2:	1010                	.insn	2, 0x1010
    bbc4:	1010                	.insn	2, 0x1010
    bbc6:	1010                	.insn	2, 0x1010
    bbc8:	0014                	.insn	2, 0x0014
	...
    cd72:	0000                	.insn	2, 0x
    cd74:	0f1d                	.insn	2, 0x0f1d
    cd76:	041d                	.insn	2, 0x041d
	...
    ce10:	1700                	.insn	2, 0x1700
    ce12:	0518                	.insn	2, 0x0518
    ce14:	0505                	.insn	2, 0x0505
    ce16:	0505                	.insn	2, 0x0505
    ce18:	00001913          	slli	s2,zero,0x0
    ce1c:	0000                	.insn	2, 0x
    ce1e:	0022050f          	.insn	4, 0x0022050f
    ce22:	0000                	.insn	2, 0x
    ce24:	0000                	.insn	2, 0x
    ce26:	1000                	.insn	2, 0x1000
    ce28:	1d05                	.insn	2, 0x1d05
    ce2a:	0000                	.insn	2, 0x
    ce2c:	0512                	.insn	2, 0x0512
    ce2e:	0505                	.insn	2, 0x0505
    ce30:	1405                	.insn	2, 0x1405
    ce32:	05050517          	auipc	a0,0x5050
    ce36:	0505                	.insn	2, 0x0505
    ce38:	0505                	.insn	2, 0x0505
    ce3a:	0505                	.insn	2, 0x0505
    ce3c:	0505                	.insn	2, 0x0505
    ce3e:	0015                	.insn	2, 0x0015
	...
    ceb0:	051d                	.insn	2, 0x051d
    ceb2:	1505                	.insn	2, 0x1505
    ceb4:	001a                	.insn	2, 0x001a
    ceb6:	05111617          	auipc	a2,0x5111
    ceba:	0016                	.insn	2, 0x0016
    cebc:	0000                	.insn	2, 0x
    cebe:	0022050f          	.insn	4, 0x0022050f
    cec2:	0000                	.insn	2, 0x
    cec4:	0000                	.insn	2, 0x
    cec6:	1000                	.insn	2, 0x1000
    cec8:	1d05                	.insn	2, 0x1d05
    ceca:	0000                	.insn	2, 0x
    cecc:	1a04                	.insn	2, 0x1a04
    cece:	1305                	.insn	2, 0x1305
    ced0:	0420                	.insn	2, 0x0420
    ced2:	0f00                	.insn	2, 0x0f00
    ced4:	220f0f0f          	.insn	4, 0x220f0f0f
    ced8:	1f05                	.insn	2, 0x1f05
    ceda:	0f0f0f0f          	.insn	4, 0x0f0f0f0f
    cede:	00000017          	auipc	zero,0x0
	...
    cf4e:	0000                	.insn	2, 0x
    cf50:	0511                	.insn	2, 0x0511
    cf52:	001d                	.insn	2, 0x001d
    cf54:	0000                	.insn	2, 0x
    cf56:	0000                	.insn	2, 0x
    cf58:	1104                	.insn	2, 0x1104
    cf5a:	1705                	.insn	2, 0x1705
    cf5c:	0000                	.insn	2, 0x
    cf5e:	0022050f          	.insn	4, 0x0022050f
    cf62:	0000                	.insn	2, 0x
    cf64:	0000                	.insn	2, 0x
    cf66:	1000                	.insn	2, 0x1000
    cf68:	1d05                	.insn	2, 0x1d05
    cf6a:	0000                	.insn	2, 0x
    cf6c:	0000                	.insn	2, 0x
    cf6e:	1305                	.insn	2, 0x1305
    cf70:	0000                	.insn	2, 0x
    cf72:	0000                	.insn	2, 0x
    cf74:	0000                	.insn	2, 0x
    cf76:	1900                	.insn	2, 0x1900
    cf78:	1405                	.insn	2, 0x1405
	...
    cfee:	1600                	.insn	2, 0x1600
    cff0:	1405                	.insn	2, 0x1405
    cff2:	0000                	.insn	2, 0x
    cff4:	0000                	.insn	2, 0x
    cff6:	0000                	.insn	2, 0x
    cff8:	1600                	.insn	2, 0x1600
    cffa:	1005                	.insn	2, 0x1005
    cffc:	0000                	.insn	2, 0x
    cffe:	0022050f          	.insn	4, 0x0022050f
    d002:	0000                	.insn	2, 0x
    d004:	0000                	.insn	2, 0x
    d006:	1000                	.insn	2, 0x1000
    d008:	1d05                	.insn	2, 0x1d05
    d00a:	0000                	.insn	2, 0x
    d00c:	0000                	.insn	2, 0x
    d00e:	1305                	.insn	2, 0x1305
    d010:	0000                	.insn	2, 0x
    d012:	0000                	.insn	2, 0x
    d014:	0000                	.insn	2, 0x
    d016:	1900                	.insn	2, 0x1900
    d018:	1405                	.insn	2, 0x1405
	...
    d08e:	1b00                	.insn	2, 0x1b00
    d090:	1905                	.insn	2, 0x1905
	...
    d09a:	1205                	.insn	2, 0x1205
    d09c:	0000                	.insn	2, 0x
    d09e:	0022050f          	.insn	4, 0x0022050f
    d0a2:	0000                	.insn	2, 0x
    d0a4:	0000                	.insn	2, 0x
    d0a6:	1000                	.insn	2, 0x1000
    d0a8:	1d05                	.insn	2, 0x1d05
    d0aa:	0000                	.insn	2, 0x
    d0ac:	0000                	.insn	2, 0x
    d0ae:	1305                	.insn	2, 0x1305
    d0b0:	0000                	.insn	2, 0x
    d0b2:	0000                	.insn	2, 0x
    d0b4:	0000                	.insn	2, 0x
    d0b6:	1900                	.insn	2, 0x1900
    d0b8:	1405                	.insn	2, 0x1405
	...
    d12e:	1c00                	.insn	2, 0x1c00
    d130:	1705                	.insn	2, 0x1705
	...
    d13a:	0511                	.insn	2, 0x0511
    d13c:	0000                	.insn	2, 0x
    d13e:	0022050f          	.insn	4, 0x0022050f
    d142:	0000                	.insn	2, 0x
    d144:	0000                	.insn	2, 0x
    d146:	1000                	.insn	2, 0x1000
    d148:	1d05                	.insn	2, 0x1d05
    d14a:	0000                	.insn	2, 0x
    d14c:	0000                	.insn	2, 0x
    d14e:	1305                	.insn	2, 0x1305
    d150:	0000                	.insn	2, 0x
    d152:	0000                	.insn	2, 0x
    d154:	0000                	.insn	2, 0x
    d156:	1900                	.insn	2, 0x1900
    d158:	1405                	.insn	2, 0x1405
	...
    d1ce:	1c00                	.insn	2, 0x1c00
    d1d0:	1705                	.insn	2, 0x1705
	...
    d1da:	1105                	.insn	2, 0x1105
    d1dc:	0000                	.insn	2, 0x
    d1de:	0022050f          	.insn	4, 0x0022050f
    d1e2:	0000                	.insn	2, 0x
    d1e4:	0000                	.insn	2, 0x
    d1e6:	1000                	.insn	2, 0x1000
    d1e8:	1d05                	.insn	2, 0x1d05
    d1ea:	0000                	.insn	2, 0x
    d1ec:	0000                	.insn	2, 0x
    d1ee:	1305                	.insn	2, 0x1305
    d1f0:	0000                	.insn	2, 0x
    d1f2:	0000                	.insn	2, 0x
    d1f4:	0000                	.insn	2, 0x
    d1f6:	1900                	.insn	2, 0x1900
    d1f8:	1405                	.insn	2, 0x1405
	...
    d26e:	1000                	.insn	2, 0x1000
    d270:	0f05                	.insn	2, 0x0f05
    d272:	0000                	.insn	2, 0x
    d274:	0000                	.insn	2, 0x
    d276:	0000                	.insn	2, 0x
    d278:	0400                	.insn	2, 0x0400
    d27a:	1305                	.insn	2, 0x1305
    d27c:	0000                	.insn	2, 0x
    d27e:	0014050f          	.insn	4, 0x0014050f
    d282:	0000                	.insn	2, 0x
    d284:	0000                	.insn	2, 0x
    d286:	1b00                	.insn	2, 0x1b00
    d288:	1a05                	.insn	2, 0x1a05
    d28a:	0000                	.insn	2, 0x
    d28c:	0000                	.insn	2, 0x
    d28e:	1305                	.insn	2, 0x1305
    d290:	0000                	.insn	2, 0x
    d292:	0000                	.insn	2, 0x
    d294:	0000                	.insn	2, 0x
    d296:	1900                	.insn	2, 0x1900
    d298:	1405                	.insn	2, 0x1405
	...
    d30e:	0f00                	.insn	2, 0x0f00
    d310:	1805                	.insn	2, 0x1805
    d312:	0000                	.insn	2, 0x
    d314:	0000                	.insn	2, 0x
    d316:	0000                	.insn	2, 0x
    d318:	1500                	.insn	2, 0x1500
    d31a:	1505                	.insn	2, 0x1505
    d31c:	0000                	.insn	2, 0x
    d31e:	051a                	.insn	2, 0x051a
    d320:	0018                	.insn	2, 0x0018
    d322:	0000                	.insn	2, 0x
    d324:	0000                	.insn	2, 0x
    d326:	1300                	.insn	2, 0x1300
    d328:	0405                	.insn	2, 0x0405
    d32a:	0000                	.insn	2, 0x
    d32c:	0000                	.insn	2, 0x
    d32e:	1305                	.insn	2, 0x1305
    d330:	0000                	.insn	2, 0x
    d332:	0000                	.insn	2, 0x
    d334:	0000                	.insn	2, 0x
    d336:	1900                	.insn	2, 0x1900
    d338:	1405                	.insn	2, 0x1405
	...
    d3ae:	0000                	.insn	2, 0x
    d3b0:	0512                	.insn	2, 0x0512
    d3b2:	0016                	.insn	2, 0x0016
    d3b4:	0000                	.insn	2, 0x
    d3b6:	0000                	.insn	2, 0x
    d3b8:	051d                	.insn	2, 0x051d
    d3ba:	0011                	.insn	2, 0x0011
    d3bc:	0000                	.insn	2, 0x
    d3be:	1100                	.insn	2, 0x1100
    d3c0:	2005                	.insn	2, 0x2005
    d3c2:	0000                	.insn	2, 0x
    d3c4:	0000                	.insn	2, 0x
    d3c6:	051a                	.insn	2, 0x051a
    d3c8:	00000013          	nop
    d3cc:	0000                	.insn	2, 0x
    d3ce:	1305                	.insn	2, 0x1305
    d3d0:	0000                	.insn	2, 0x
    d3d2:	0000                	.insn	2, 0x
    d3d4:	0000                	.insn	2, 0x
    d3d6:	1900                	.insn	2, 0x1900
    d3d8:	1405                	.insn	2, 0x1405
	...
    d44e:	0000                	.insn	2, 0x
    d450:	1204                	.insn	2, 0x1204
    d452:	1f05                	.insn	2, 0x1f05
    d454:	1916                	.insn	2, 0x1916
    d456:	11051b23          	sh	a6,278(a0) # 505cf48 <_stack_end+0x4f4f6d8>
    d45a:	00000017          	auipc	zero,0x0
    d45e:	0f00                	.insn	2, 0x0f00
    d460:	1105                	.insn	2, 0x1105
    d462:	0f15                	.insn	2, 0x0f15
    d464:	05111e0f          	.insn	4, 0x05111e0f
    d468:	001d                	.insn	2, 0x001d
    d46a:	0000                	.insn	2, 0x
    d46c:	2319                	.insn	2, 0x2319
    d46e:	1205                	.insn	2, 0x1205
    d470:	00001a0f          	.insn	4, 0x1a0f
    d474:	0000                	.insn	2, 0x
    d476:	1900                	.insn	2, 0x1900
    d478:	1405                	.insn	2, 0x1405
	...
    d4f2:	1215                	.insn	2, 0x1215
    d4f4:	0505                	.insn	2, 0x0505
    d4f6:	0505                	.insn	2, 0x0505
    d4f8:	0014                	.insn	2, 0x0014
    d4fa:	0000                	.insn	2, 0x
    d4fc:	0000                	.insn	2, 0x
    d4fe:	0000                	.insn	2, 0x
    d500:	1f1d                	.insn	2, 0x1f1d
    d502:	0505                	.insn	2, 0x0505
    d504:	0505                	.insn	2, 0x0505
    d506:	1a18                	.insn	2, 0x1a18
    d508:	0000                	.insn	2, 0x
    d50a:	0000                	.insn	2, 0x
    d50c:	121c                	.insn	2, 0x121c
    d50e:	1212                	.insn	2, 0x1212
    d510:	1512                	.insn	2, 0x1512
    d512:	0000                	.insn	2, 0x
    d514:	0000                	.insn	2, 0x
    d516:	1d00                	.insn	2, 0x1d00
    d518:	1512                	.insn	2, 0x1512
	...
    d596:	0515                	.insn	2, 0x0515
    d598:	0016                	.insn	2, 0x0016
	...
    d636:	1120                	.insn	2, 0x1120
    d638:	1411                	.insn	2, 0x1411
    d63a:	1416                	.insn	2, 0x1416
    d63c:	00000017          	auipc	zero,0x0
	...
    d6d4:	0000                	.insn	2, 0x
    d6d6:	1a00                	.insn	2, 0x1a00
    d6d8:	111f 1105 001a      	.insn	6, 0x001a1105111f
	...
    d75a:	0000                	.insn	2, 0x
    d75c:	15ec                	.insn	2, 0x15ec
    d75e:	0000                	.insn	2, 0x
    d760:	161c                	.insn	2, 0x161c
    d762:	0000                	.insn	2, 0x
    d764:	162c                	.insn	2, 0x162c
    d766:	0000                	.insn	2, 0x
    d768:	1640                	.insn	2, 0x1640
    d76a:	0000                	.insn	2, 0x
    d76c:	1654                	.insn	2, 0x1654
    d76e:	0000                	.insn	2, 0x
    d770:	166c                	.insn	2, 0x166c
    d772:	0000                	.insn	2, 0x
    d774:	1688                	.insn	2, 0x1688
    d776:	0000                	.insn	2, 0x
    d778:	16a4                	.insn	2, 0x16a4
    d77a:	0000                	.insn	2, 0x
    d77c:	16c0                	.insn	2, 0x16c0
    d77e:	0000                	.insn	2, 0x
    d780:	16dc                	.insn	2, 0x16dc
    d782:	0000                	.insn	2, 0x
    d784:	1604                	.insn	2, 0x1604
    d786:	0000                	.insn	2, 0x
    d788:	1604                	.insn	2, 0x1604
    d78a:	0000                	.insn	2, 0x
    d78c:	1604                	.insn	2, 0x1604
    d78e:	0000                	.insn	2, 0x
    d790:	1604                	.insn	2, 0x1604
    d792:	0000                	.insn	2, 0x
    d794:	1604                	.insn	2, 0x1604
    d796:	0000                	.insn	2, 0x
    d798:	1604                	.insn	2, 0x1604
    d79a:	0000                	.insn	2, 0x
    d79c:	1604                	.insn	2, 0x1604
    d79e:	0000                	.insn	2, 0x
    d7a0:	16f8                	.insn	2, 0x16f8
    d7a2:	0000                	.insn	2, 0x
    d7a4:	170c                	.insn	2, 0x170c
    d7a6:	0000                	.insn	2, 0x
    d7a8:	1608                	.insn	2, 0x1608
	...

Disassembly of section .srodata.cst8:

0000d7b0 <.srodata.cst8>:
    d7b0:	0000                	.insn	2, 0x
    d7b2:	0000                	.insn	2, 0x
    d7b4:	0000                	.insn	2, 0x
    d7b6:	00004033          	xor	zero,zero,zero
    d7ba:	0000                	.insn	2, 0x
    d7bc:	0000                	.insn	2, 0x
    d7be:	4044                	.insn	2, 0x4044
    d7c0:	0000                	.insn	2, 0x
    d7c2:	0000                	.insn	2, 0x
    d7c4:	e000                	.insn	2, 0xe000
    d7c6:	4065                	.insn	2, 0x4065
    d7c8:	0000                	.insn	2, 0x
    d7ca:	0000                	.insn	2, 0x
    d7cc:	0000                	.insn	2, 0x
    d7ce:	403e                	.insn	2, 0x403e
    d7d0:	0000                	.insn	2, 0x
    d7d2:	0000                	.insn	2, 0x
    d7d4:	0000                	.insn	2, 0x
    d7d6:	4024                	.insn	2, 0x4024

Disassembly of section .srodata:

0000d7d8 <charOffsetX>:
    d7d8:	0050                	.insn	2, 0x0050
	...

0000d7dc <letterPlacementY>:
    d7dc:	00000063          	beqz	zero,d7dc <letterPlacementY>

0000d7e0 <availableLetters>:
    d7e0:	4241                	.insn	2, 0x4241
    d7e2:	33323143          	.insn	4, 0x33323143
	...

Disassembly of section .rodata.str1.4:

0000d7e8 <.rodata.str1.4>:
    d7e8:	5b0a                	.insn	2, 0x5b0a
    d7ea:	5845                	.insn	2, 0x5845
    d7ec:	54504543          	.insn	4, 0x54504543
    d7f0:	4f49                	.insn	2, 0x4f49
    d7f2:	5d4e                	.insn	2, 0x5d4e
    d7f4:	4920                	.insn	2, 0x4920
    d7f6:	736e                	.insn	2, 0x736e
    d7f8:	7274                	.insn	2, 0x7274
    d7fa:	6375                	.insn	2, 0x6375
    d7fc:	6974                	.insn	2, 0x6974
    d7fe:	61206e6f          	jal	t3,13e10 <availableLetters+0x6630>
    d802:	6464                	.insn	2, 0x6464
    d804:	6572                	.insn	2, 0x6572
    d806:	6d207373          	csrrci	t1,0x6d2,0
    d80a:	7369                	.insn	2, 0x7369
    d80c:	6c61                	.insn	2, 0x6c61
    d80e:	6769                	.insn	2, 0x6769
    d810:	6d6e                	.insn	2, 0x6d6e
    d812:	6e65                	.insn	2, 0x6e65
    d814:	2e74                	.insn	2, 0x2e74
    d816:	0020                	.insn	2, 0x0020
    d818:	5b0a                	.insn	2, 0x5b0a
    d81a:	5845                	.insn	2, 0x5845
    d81c:	54504543          	.insn	4, 0x54504543
    d820:	4f49                	.insn	2, 0x4f49
    d822:	5d4e                	.insn	2, 0x5d4e
    d824:	4920                	.insn	2, 0x4920
    d826:	6c6c                	.insn	2, 0x6c6c
    d828:	6765                	.insn	2, 0x6765
    d82a:	6c61                	.insn	2, 0x6c61
    d82c:	6920                	.insn	2, 0x6920
    d82e:	736e                	.insn	2, 0x736e
    d830:	7274                	.insn	2, 0x7274
    d832:	6375                	.insn	2, 0x6375
    d834:	6974                	.insn	2, 0x6974
    d836:	202e6e6f          	jal	t3,f3a38 <availableLetters+0xe6258>
    d83a:	0000                	.insn	2, 0x
    d83c:	5b0a                	.insn	2, 0x5b0a
    d83e:	5845                	.insn	2, 0x5845
    d840:	54504543          	.insn	4, 0x54504543
    d844:	4f49                	.insn	2, 0x4f49
    d846:	5d4e                	.insn	2, 0x5d4e
    d848:	5520                	.insn	2, 0x5520
    d84a:	6b6e                	.insn	2, 0x6b6e
    d84c:	6f6e                	.insn	2, 0x6f6e
    d84e:	65206e77          	.insn	4, 0x65206e77
    d852:	7272                	.insn	2, 0x7272
    d854:	202e726f          	jal	tp,f4a56 <availableLetters+0xe7276>
    d858:	0000                	.insn	2, 0x
    d85a:	0000                	.insn	2, 0x
    d85c:	7845                	.insn	2, 0x7845
    d85e:	74706563          	bltu	zero,t2,dfa8 <availableLetters+0x7c8>
    d862:	6f69                	.insn	2, 0x6f69
    d864:	206e                	.insn	2, 0x206e
    d866:	6441                	.insn	2, 0x6441
    d868:	7264                	.insn	2, 0x7264
    d86a:	7365                	.insn	2, 0x7365
    d86c:	00203a73          	csrrc	s4,frm,zero

Disassembly of section .comment:

00000000 <.comment>:
   0:	3a434347          	.insn	4, 0x3a434347
   4:	2820                	.insn	2, 0x2820
   6:	2029                	.insn	2, 0x2029
   8:	3331                	.insn	2, 0x3331
   a:	322e                	.insn	2, 0x322e
   c:	302e                	.insn	2, 0x302e
	...

Disassembly of section .riscv.attributes:

00000000 <.riscv.attributes>:
   0:	3641                	.insn	2, 0x3641
   2:	0000                	.insn	2, 0x
   4:	7200                	.insn	2, 0x7200
   6:	7369                	.insn	2, 0x7369
   8:	01007663          	bgeu	zero,a6,14 <_isr_routine+0xc>
   c:	002c                	.insn	2, 0x002c
   e:	0000                	.insn	2, 0x
  10:	1004                	.insn	2, 0x1004
  12:	7205                	.insn	2, 0x7205
  14:	3376                	.insn	2, 0x3376
  16:	6932                	.insn	2, 0x6932
  18:	7032                	.insn	2, 0x7032
  1a:	5f31                	.insn	2, 0x5f31
  1c:	326d                	.insn	2, 0x326d
  1e:	3070                	.insn	2, 0x3070
  20:	7a5f 6369 7273      	.insn	6, 0x727363697a5f
  26:	7032                	.insn	2, 0x7032
  28:	5f30                	.insn	2, 0x5f30
  2a:	6d7a                	.insn	2, 0x6d7a
  2c:	756d                	.insn	2, 0x756d
  2e:	316c                	.insn	2, 0x316c
  30:	3070                	.insn	2, 0x3070
  32:	0800                	.insn	2, 0x0800
  34:	0a01                	.insn	2, 0x0a01
  36:	Address 0x36 is out of bounds.

