
main.elf:     file format elf32-littleriscv


Disassembly of section .text:

00000000 <_isr_handler>:
       0:	0080006f          	j	8 <_isr_routine>
       4:	1440006f          	j	148 <_start>

00000008 <_isr_routine>:
       8:	f8010113          	addi	sp,sp,-128
       c:	00112023          	sw	ra,0(sp)
      10:	00312423          	sw	gp,8(sp)
      14:	00412623          	sw	tp,12(sp)
      18:	00512823          	sw	t0,16(sp)
      1c:	00612a23          	sw	t1,20(sp)
      20:	00712c23          	sw	t2,24(sp)
      24:	00812e23          	sw	s0,28(sp)
      28:	02912023          	sw	s1,32(sp)
      2c:	02a12223          	sw	a0,36(sp)
      30:	02b12423          	sw	a1,40(sp)
      34:	02c12623          	sw	a2,44(sp)
      38:	02d12823          	sw	a3,48(sp)
      3c:	02e12a23          	sw	a4,52(sp)
      40:	02f12c23          	sw	a5,56(sp)
      44:	03012e23          	sw	a6,60(sp)
      48:	05112023          	sw	a7,64(sp)
      4c:	05212223          	sw	s2,68(sp)
      50:	05312423          	sw	s3,72(sp)
      54:	05412623          	sw	s4,76(sp)
      58:	05512823          	sw	s5,80(sp)
      5c:	05612a23          	sw	s6,84(sp)
      60:	05712c23          	sw	s7,88(sp)
      64:	05812e23          	sw	s8,92(sp)
      68:	07912023          	sw	s9,96(sp)
      6c:	07a12223          	sw	s10,100(sp)
      70:	07b12423          	sw	s11,104(sp)
      74:	07c12623          	sw	t3,108(sp)
      78:	07d12823          	sw	t4,112(sp)
      7c:	07e12a23          	sw	t5,116(sp)
      80:	07f12c23          	sw	t6,120(sp)
      84:	342022f3          	csrr	t0,mcause
      88:	80000337          	lui	t1,0x80000
      8c:	02536463          	bltu	t1,t0,b4 <external_irq>
      90:	00028833          	add	a6,t0,zero
      94:	00b00313          	li	t1,11
      98:	00628463          	beq	t0,t1,a0 <skip_init_args>
      9c:	34102573          	csrr	a0,mepc

000000a0 <skip_init_args>:
      a0:	0fc020ef          	jal	219c <handle_exception>
      a4:	341022f3          	csrr	t0,mepc
      a8:	00428293          	addi	t0,t0,4
      ac:	34129073          	csrw	mepc,t0
      b0:	0180006f          	j	c8 <restore>

000000b4 <external_irq>:
      b4:	800002b7          	lui	t0,0x80000
      b8:	fff28293          	addi	t0,t0,-1 # 7fffffff <_stack_end+0x7fef5a9f>
      bc:	34202373          	csrr	t1,mcause
      c0:	0062f533          	and	a0,t0,t1
      c4:	530010ef          	jal	15f4 <handle_interrupt>

000000c8 <restore>:
      c8:	00012083          	lw	ra,0(sp)
      cc:	00812183          	lw	gp,8(sp)
      d0:	00c12203          	lw	tp,12(sp)
      d4:	01012283          	lw	t0,16(sp)
      d8:	01412303          	lw	t1,20(sp)
      dc:	01812383          	lw	t2,24(sp)
      e0:	01c12403          	lw	s0,28(sp)
      e4:	02012483          	lw	s1,32(sp)
      e8:	02412503          	lw	a0,36(sp)
      ec:	02812583          	lw	a1,40(sp)
      f0:	02c12603          	lw	a2,44(sp)
      f4:	03012683          	lw	a3,48(sp)
      f8:	03412703          	lw	a4,52(sp)
      fc:	03812783          	lw	a5,56(sp)
     100:	03c12803          	lw	a6,60(sp)
     104:	04012883          	lw	a7,64(sp)
     108:	04412903          	lw	s2,68(sp)
     10c:	04812983          	lw	s3,72(sp)
     110:	04c12a03          	lw	s4,76(sp)
     114:	05012a83          	lw	s5,80(sp)
     118:	05412b03          	lw	s6,84(sp)
     11c:	05812b83          	lw	s7,88(sp)
     120:	05c12c03          	lw	s8,92(sp)
     124:	06012c83          	lw	s9,96(sp)
     128:	06412d03          	lw	s10,100(sp)
     12c:	06812d83          	lw	s11,104(sp)
     130:	06c12e03          	lw	t3,108(sp)
     134:	07012e83          	lw	t4,112(sp)
     138:	07412f03          	lw	t5,116(sp)
     13c:	07812f83          	lw	t6,120(sp)
     140:	08010113          	addi	sp,sp,128
     144:	30200073          	mret

00000148 <_start>:
     148:	30401073          	csrw	mie,zero
     14c:	0010a117          	auipc	sp,0x10a
     150:	41410113          	addi	sp,sp,1044 # 10a560 <_stack_end>
     154:	00003197          	auipc	gp,0x3
     158:	5cc18193          	addi	gp,gp,1484 # 3720 <__global_pointer>
     15c:	00003517          	auipc	a0,0x3
     160:	d3050513          	addi	a0,a0,-720 # 2e8c <welcome_msg>
     164:	00400893          	li	a7,4
     168:	00000073          	ecall
     16c:	3a4020ef          	jal	2510 <main>

00000170 <loop>:
     170:	0000006f          	j	170 <loop>

00000174 <enable_interrupt>:
     174:	30486073          	csrsi	mie,16
     178:	3001e073          	csrsi	mstatus,3

0000017c <drawPixel>:
     17c:	00259793          	slli	a5,a1,0x2
     180:	00b785b3          	add	a1,a5,a1
     184:	00659593          	slli	a1,a1,0x6
     188:	00a585b3          	add	a1,a1,a0
     18c:	080007b7          	lui	a5,0x8000
     190:	00b787b3          	add	a5,a5,a1
     194:	0ff67613          	zext.b	a2,a2
     198:	00c78023          	sb	a2,0(a5) # 8000000 <_stack_end+0x7ef5aa0>
     19c:	00008067          	ret

000001a0 <drawCell>:
     1a0:	00052783          	lw	a5,0(a0)
     1a4:	00400713          	li	a4,4
     1a8:	00000813          	li	a6,0
     1ac:	fff78793          	addi	a5,a5,-1
     1b0:	00f76c63          	bltu	a4,a5,1c8 <drawCell+0x28>
     1b4:	00003737          	lui	a4,0x3
     1b8:	00279793          	slli	a5,a5,0x2
     1bc:	fa470713          	addi	a4,a4,-92 # 2fa4 <CSWTCH.8>
     1c0:	00f707b3          	add	a5,a4,a5
     1c4:	0007c803          	lbu	a6,0(a5)
     1c8:	00452783          	lw	a5,4(a0)
     1cc:	00852603          	lw	a2,8(a0)
     1d0:	08000337          	lui	t1,0x8000
     1d4:	00379893          	slli	a7,a5,0x3
     1d8:	00f888b3          	add	a7,a7,a5
     1dc:	04688893          	addi	a7,a7,70
     1e0:	00361593          	slli	a1,a2,0x3
     1e4:	00c585b3          	add	a1,a1,a2
     1e8:	01e58693          	addi	a3,a1,30
     1ec:	00269793          	slli	a5,a3,0x2
     1f0:	00d787b3          	add	a5,a5,a3
     1f4:	00679793          	slli	a5,a5,0x6
     1f8:	011787b3          	add	a5,a5,a7
     1fc:	00f307b3          	add	a5,t1,a5
     200:	01078023          	sb	a6,0(a5)
     204:	00852603          	lw	a2,8(a0)
     208:	00168693          	addi	a3,a3,1
     20c:	14078793          	addi	a5,a5,320
     210:	00361593          	slli	a1,a2,0x3
     214:	00c58733          	add	a4,a1,a2
     218:	02670713          	addi	a4,a4,38
     21c:	fed752e3          	bge	a4,a3,200 <drawCell+0x60>
     220:	00452703          	lw	a4,4(a0)
     224:	00188893          	addi	a7,a7,1
     228:	00371793          	slli	a5,a4,0x3
     22c:	00e787b3          	add	a5,a5,a4
     230:	04e78793          	addi	a5,a5,78
     234:	fb17d8e3          	bge	a5,a7,1e4 <drawCell+0x44>
     238:	00008067          	ret

0000023c <drawBoard>:
     23c:	00052783          	lw	a5,0(a0)
     240:	00050e93          	mv	t4,a0
     244:	0cf05c63          	blez	a5,31c <drawBoard+0xe0>
     248:	00452783          	lw	a5,4(a0)
     24c:	00003fb7          	lui	t6,0x3
     250:	00050393          	mv	t2,a0
     254:	00000293          	li	t0,0
     258:	00400f13          	li	t5,4
     25c:	fa4f8f93          	addi	t6,t6,-92 # 2fa4 <CSWTCH.8>
     260:	08000337          	lui	t1,0x8000
     264:	0af05c63          	blez	a5,31c <drawBoard+0xe0>
     268:	00038513          	mv	a0,t2
     26c:	00000e13          	li	t3,0
     270:	00852783          	lw	a5,8(a0)
     274:	00000813          	li	a6,0
     278:	fff78793          	addi	a5,a5,-1
     27c:	00ff6863          	bltu	t5,a5,28c <drawBoard+0x50>
     280:	00279793          	slli	a5,a5,0x2
     284:	00ff87b3          	add	a5,t6,a5
     288:	0007c803          	lbu	a6,0(a5)
     28c:	00c52783          	lw	a5,12(a0)
     290:	01052603          	lw	a2,16(a0)
     294:	00379893          	slli	a7,a5,0x3
     298:	00f888b3          	add	a7,a7,a5
     29c:	04688893          	addi	a7,a7,70
     2a0:	00361593          	slli	a1,a2,0x3
     2a4:	00c585b3          	add	a1,a1,a2
     2a8:	01e58693          	addi	a3,a1,30
     2ac:	00269793          	slli	a5,a3,0x2
     2b0:	00d787b3          	add	a5,a5,a3
     2b4:	00679793          	slli	a5,a5,0x6
     2b8:	011787b3          	add	a5,a5,a7
     2bc:	00f307b3          	add	a5,t1,a5
     2c0:	01078023          	sb	a6,0(a5)
     2c4:	01052603          	lw	a2,16(a0)
     2c8:	00168693          	addi	a3,a3,1
     2cc:	14078793          	addi	a5,a5,320
     2d0:	00361593          	slli	a1,a2,0x3
     2d4:	00c58733          	add	a4,a1,a2
     2d8:	02670713          	addi	a4,a4,38
     2dc:	fed752e3          	bge	a4,a3,2c0 <drawBoard+0x84>
     2e0:	00c52703          	lw	a4,12(a0)
     2e4:	00188893          	addi	a7,a7,1
     2e8:	00371793          	slli	a5,a4,0x3
     2ec:	00e787b3          	add	a5,a5,a4
     2f0:	04e78793          	addi	a5,a5,78
     2f4:	fb17d8e3          	bge	a5,a7,2a4 <drawBoard+0x68>
     2f8:	004ea783          	lw	a5,4(t4)
     2fc:	001e0e13          	addi	t3,t3,1
     300:	01050513          	addi	a0,a0,16
     304:	f6fe46e3          	blt	t3,a5,270 <drawBoard+0x34>
     308:	000ea703          	lw	a4,0(t4)
     30c:	00128293          	addi	t0,t0,1
     310:	00e2d663          	bge	t0,a4,31c <drawBoard+0xe0>
     314:	14038393          	addi	t2,t2,320
     318:	f4f048e3          	bgtz	a5,268 <drawBoard+0x2c>
     31c:	00008067          	ret

00000320 <clearScreen>:
     320:	08013737          	lui	a4,0x8013
     324:	080007b7          	lui	a5,0x8000
     328:	c0070713          	addi	a4,a4,-1024 # 8012c00 <_stack_end+0x7f086a0>
     32c:	00078023          	sb	zero,0(a5) # 8000000 <_stack_end+0x7ef5aa0>
     330:	00178793          	addi	a5,a5,1
     334:	fee79ce3          	bne	a5,a4,32c <clearScreen+0xc>
     338:	00008067          	ret

0000033c <drawMenuHighlight>:
     33c:	00259793          	slli	a5,a1,0x2
     340:	fe010113          	addi	sp,sp,-32
     344:	00b787b3          	add	a5,a5,a1
     348:	00812c23          	sw	s0,24(sp)
     34c:	00050413          	mv	s0,a0
     350:	00179513          	slli	a0,a5,0x1
     354:	00112e23          	sw	ra,28(sp)
     358:	00912a23          	sw	s1,20(sp)
     35c:	01212823          	sw	s2,16(sp)
     360:	01312623          	sw	s3,12(sp)
     364:	01412423          	sw	s4,8(sp)
     368:	01512223          	sw	s5,4(sp)
     36c:	0e9020ef          	jal	2c54 <__floatsidf>
     370:	0000aab7          	lui	s5,0xa
     374:	4a0aa603          	lw	a2,1184(s5) # a4a0 <__global_pointer+0x6d80>
     378:	4a4aa683          	lw	a3,1188(s5)
     37c:	0000aa37          	lui	s4,0xa
     380:	0000a9b7          	lui	s3,0xa
     384:	2c0020ef          	jal	2644 <__adddf3>
     388:	4a8a2603          	lw	a2,1192(s4) # a4a8 <__global_pointer+0x6d88>
     38c:	4aca2683          	lw	a3,1196(s4)
     390:	0000a937          	lui	s2,0xa
     394:	0000a4b7          	lui	s1,0xa
     398:	5bc020ef          	jal	2954 <__divdf3>
     39c:	4b09a603          	lw	a2,1200(s3) # a4b0 <__global_pointer+0x6d90>
     3a0:	4b49a683          	lw	a3,1204(s3)
     3a4:	0f1020ef          	jal	2c94 <__muldf3>
     3a8:	4b892603          	lw	a2,1208(s2) # a4b8 <__global_pointer+0x6d98>
     3ac:	4bc92683          	lw	a3,1212(s2)
     3b0:	294020ef          	jal	2644 <__adddf3>
     3b4:	4c44a683          	lw	a3,1220(s1) # a4c4 <__global_pointer+0x6da4>
     3b8:	4c04a603          	lw	a2,1216(s1)
     3bc:	288020ef          	jal	2644 <__adddf3>
     3c0:	24d020ef          	jal	2e0c <__truncdfsf2>
     3c4:	041020ef          	jal	2c04 <__fixsfsi>
     3c8:	00251793          	slli	a5,a0,0x2
     3cc:	00a78733          	add	a4,a5,a0
     3d0:	080006b7          	lui	a3,0x8000
     3d4:	080007b7          	lui	a5,0x8000
     3d8:	00671713          	slli	a4,a4,0x6
     3dc:	06078793          	addi	a5,a5,96 # 8000060 <_stack_end+0x7ef5b00>
     3e0:	0e068693          	addi	a3,a3,224 # 80000e0 <_stack_end+0x7ef5b80>
     3e4:	00f707b3          	add	a5,a4,a5
     3e8:	00d70733          	add	a4,a4,a3
     3ec:	00078023          	sb	zero,0(a5)
     3f0:	14078023          	sb	zero,320(a5)
     3f4:	28078023          	sb	zero,640(a5)
     3f8:	00178793          	addi	a5,a5,1
     3fc:	fef718e3          	bne	a4,a5,3ec <drawMenuHighlight+0xb0>
     400:	00241513          	slli	a0,s0,0x2
     404:	00850533          	add	a0,a0,s0
     408:	00151513          	slli	a0,a0,0x1
     40c:	049020ef          	jal	2c54 <__floatsidf>
     410:	4a0aa603          	lw	a2,1184(s5)
     414:	4a4aa683          	lw	a3,1188(s5)
     418:	22c020ef          	jal	2644 <__adddf3>
     41c:	4a8a2603          	lw	a2,1192(s4)
     420:	4aca2683          	lw	a3,1196(s4)
     424:	530020ef          	jal	2954 <__divdf3>
     428:	4b09a603          	lw	a2,1200(s3)
     42c:	4b49a683          	lw	a3,1204(s3)
     430:	065020ef          	jal	2c94 <__muldf3>
     434:	4b892603          	lw	a2,1208(s2)
     438:	4bc92683          	lw	a3,1212(s2)
     43c:	208020ef          	jal	2644 <__adddf3>
     440:	4c44a683          	lw	a3,1220(s1)
     444:	4c04a603          	lw	a2,1216(s1)
     448:	1fc020ef          	jal	2644 <__adddf3>
     44c:	1c1020ef          	jal	2e0c <__truncdfsf2>
     450:	7b4020ef          	jal	2c04 <__fixsfsi>
     454:	00251793          	slli	a5,a0,0x2
     458:	00a786b3          	add	a3,a5,a0
     45c:	08000737          	lui	a4,0x8000
     460:	080007b7          	lui	a5,0x8000
     464:	00669693          	slli	a3,a3,0x6
     468:	0e070713          	addi	a4,a4,224 # 80000e0 <_stack_end+0x7ef5b80>
     46c:	06078793          	addi	a5,a5,96 # 8000060 <_stack_end+0x7ef5b00>
     470:	00f687b3          	add	a5,a3,a5
     474:	00e686b3          	add	a3,a3,a4
     478:	01c00713          	li	a4,28
     47c:	00e78023          	sb	a4,0(a5)
     480:	14e78023          	sb	a4,320(a5)
     484:	28e78023          	sb	a4,640(a5)
     488:	00178793          	addi	a5,a5,1
     48c:	fef698e3          	bne	a3,a5,47c <drawMenuHighlight+0x140>
     490:	01c12083          	lw	ra,28(sp)
     494:	01812403          	lw	s0,24(sp)
     498:	01412483          	lw	s1,20(sp)
     49c:	01012903          	lw	s2,16(sp)
     4a0:	00c12983          	lw	s3,12(sp)
     4a4:	00812a03          	lw	s4,8(sp)
     4a8:	00412a83          	lw	s5,4(sp)
     4ac:	02010113          	addi	sp,sp,32
     4b0:	00008067          	ret

000004b4 <drawMainMenu>:
     4b4:	ffff98b7          	lui	a7,0xffff9
     4b8:	08002837          	lui	a6,0x8002
     4bc:	0000a637          	lui	a2,0xa
     4c0:	3d460613          	addi	a2,a2,980 # a3d4 <__global_pointer+0x6cb4>
     4c4:	00000513          	li	a0,0
     4c8:	2a088893          	addi	a7,a7,672 # ffff92a0 <_stack_end+0xffeeed40>
     4cc:	5d080813          	addi	a6,a6,1488 # 80025d0 <_stack_end+0x7ef8070>
     4d0:	fff00593          	li	a1,-1
     4d4:	0a000313          	li	t1,160
     4d8:	011607b3          	add	a5,a2,a7
     4dc:	01050733          	add	a4,a0,a6
     4e0:	0140006f          	j	4f4 <drawMainMenu+0x40>
     4e4:	00b70023          	sb	a1,0(a4)
     4e8:	0a078793          	addi	a5,a5,160
     4ec:	14070713          	addi	a4,a4,320
     4f0:	00f60e63          	beq	a2,a5,50c <drawMainMenu+0x58>
     4f4:	0007c683          	lbu	a3,0(a5)
     4f8:	fe0696e3          	bnez	a3,4e4 <drawMainMenu+0x30>
     4fc:	00070023          	sb	zero,0(a4)
     500:	0a078793          	addi	a5,a5,160
     504:	14070713          	addi	a4,a4,320
     508:	fef616e3          	bne	a2,a5,4f4 <drawMainMenu+0x40>
     50c:	00150513          	addi	a0,a0,1
     510:	00160613          	addi	a2,a2,1
     514:	fc6512e3          	bne	a0,t1,4d8 <drawMainMenu+0x24>
     518:	00008067          	ret

0000051c <drawLetter>:
     51c:	fe010113          	addi	sp,sp,-32
     520:	00812c23          	sw	s0,24(sp)
     524:	00912a23          	sw	s1,20(sp)
     528:	00058413          	mv	s0,a1
     52c:	00060493          	mv	s1,a2
     530:	00810593          	addi	a1,sp,8
     534:	00c10613          	addi	a2,sp,12
     538:	01212823          	sw	s2,16(sp)
     53c:	00112e23          	sw	ra,28(sp)
     540:	00068913          	mv	s2,a3
     544:	00012423          	sw	zero,8(sp)
     548:	00012623          	sw	zero,12(sp)
     54c:	4ac010ef          	jal	19f8 <getLetterFromArray>
     550:	00100793          	li	a5,1
     554:	0af90863          	beq	s2,a5,604 <drawLetter+0xe8>
     558:	00812703          	lw	a4,8(sp)
     55c:	00c12783          	lw	a5,12(sp)
     560:	01500513          	li	a0,21
     564:	01400693          	li	a3,20
     568:	40e787b3          	sub	a5,a5,a4
     56c:	02a7c533          	div	a0,a5,a0
     570:	06f6de63          	bge	a3,a5,5ec <drawLetter+0xd0>
     574:	00249613          	slli	a2,s1,0x2
     578:	00960633          	add	a2,a2,s1
     57c:	00661613          	slli	a2,a2,0x6
     580:	080027b7          	lui	a5,0x8002
     584:	000038b7          	lui	a7,0x3
     588:	00860633          	add	a2,a2,s0
     58c:	a4078793          	addi	a5,a5,-1472 # 8001a40 <_stack_end+0x7ef74e0>
     590:	ffffe337          	lui	t1,0xffffe
     594:	fb888893          	addi	a7,a7,-72 # 2fb8 <letter_images>
     598:	00f60633          	add	a2,a2,a5
     59c:	00000813          	li	a6,0
     5a0:	00e888b3          	add	a7,a7,a4
     5a4:	5c030313          	addi	t1,t1,1472 # ffffe5c0 <_stack_end+0xffef4060>
     5a8:	fff00593          	li	a1,-1
     5ac:	01088733          	add	a4,a7,a6
     5b0:	006607b3          	add	a5,a2,t1
     5b4:	0140006f          	j	5c8 <drawLetter+0xac>
     5b8:	00078023          	sb	zero,0(a5)
     5bc:	14078793          	addi	a5,a5,320
     5c0:	00a70733          	add	a4,a4,a0
     5c4:	00c78e63          	beq	a5,a2,5e0 <drawLetter+0xc4>
     5c8:	00074683          	lbu	a3,0(a4)
     5cc:	fe0686e3          	beqz	a3,5b8 <drawLetter+0x9c>
     5d0:	00b78023          	sb	a1,0(a5)
     5d4:	14078793          	addi	a5,a5,320
     5d8:	00a70733          	add	a4,a4,a0
     5dc:	fec796e3          	bne	a5,a2,5c8 <drawLetter+0xac>
     5e0:	00180813          	addi	a6,a6,1
     5e4:	00160613          	addi	a2,a2,1
     5e8:	fd0512e3          	bne	a0,a6,5ac <drawLetter+0x90>
     5ec:	01c12083          	lw	ra,28(sp)
     5f0:	01812403          	lw	s0,24(sp)
     5f4:	01412483          	lw	s1,20(sp)
     5f8:	01012903          	lw	s2,16(sp)
     5fc:	02010113          	addi	sp,sp,32
     600:	00008067          	ret
     604:	00249713          	slli	a4,s1,0x2
     608:	00970733          	add	a4,a4,s1
     60c:	00671713          	slli	a4,a4,0x6
     610:	080027b7          	lui	a5,0x8002
     614:	00870733          	add	a4,a4,s0
     618:	a4078793          	addi	a5,a5,-1472 # 8001a40 <_stack_end+0x7ef74e0>
     61c:	ffffe637          	lui	a2,0xffffe
     620:	00040693          	mv	a3,s0
     624:	00f70733          	add	a4,a4,a5
     628:	01340593          	addi	a1,s0,19
     62c:	5c060613          	addi	a2,a2,1472 # ffffe5c0 <_stack_end+0xffef4060>
     630:	00c707b3          	add	a5,a4,a2
     634:	00078023          	sb	zero,0(a5)
     638:	14078793          	addi	a5,a5,320
     63c:	fee79ce3          	bne	a5,a4,634 <drawLetter+0x118>
     640:	00168693          	addi	a3,a3,1
     644:	00170713          	addi	a4,a4,1
     648:	feb694e3          	bne	a3,a1,630 <drawLetter+0x114>
     64c:	01c12083          	lw	ra,28(sp)
     650:	01812403          	lw	s0,24(sp)
     654:	01412483          	lw	s1,20(sp)
     658:	01012903          	lw	s2,16(sp)
     65c:	02010113          	addi	sp,sp,32
     660:	00008067          	ret

00000664 <drawNumber>:
     664:	dd010113          	addi	sp,sp,-560
     668:	00012023          	sw	zero,0(sp)
     66c:	00012223          	sw	zero,4(sp)
     670:	00012423          	sw	zero,8(sp)
     674:	00012623          	sw	zero,12(sp)
     678:	00012823          	sw	zero,16(sp)
     67c:	00012a23          	sw	zero,20(sp)
     680:	00012c23          	sw	zero,24(sp)
     684:	00012e23          	sw	zero,28(sp)
     688:	02012023          	sw	zero,32(sp)
     68c:	02012223          	sw	zero,36(sp)
     690:	02012423          	sw	zero,40(sp)
     694:	02012623          	sw	zero,44(sp)
     698:	02012823          	sw	zero,48(sp)
     69c:	02012a23          	sw	zero,52(sp)
     6a0:	02012c23          	sw	zero,56(sp)
     6a4:	02012e23          	sw	zero,60(sp)
     6a8:	04012023          	sw	zero,64(sp)
     6ac:	04012223          	sw	zero,68(sp)
     6b0:	04012423          	sw	zero,72(sp)
     6b4:	04012623          	sw	zero,76(sp)
     6b8:	04012823          	sw	zero,80(sp)
     6bc:	04012a23          	sw	zero,84(sp)
     6c0:	04012c23          	sw	zero,88(sp)
     6c4:	04012e23          	sw	zero,92(sp)
     6c8:	06012023          	sw	zero,96(sp)
     6cc:	06012223          	sw	zero,100(sp)
     6d0:	06012423          	sw	zero,104(sp)
     6d4:	06012623          	sw	zero,108(sp)
     6d8:	06012823          	sw	zero,112(sp)
     6dc:	06012a23          	sw	zero,116(sp)
     6e0:	06012c23          	sw	zero,120(sp)
     6e4:	06012e23          	sw	zero,124(sp)
     6e8:	08012023          	sw	zero,128(sp)
     6ec:	08012223          	sw	zero,132(sp)
     6f0:	08012423          	sw	zero,136(sp)
     6f4:	08012623          	sw	zero,140(sp)
     6f8:	08012823          	sw	zero,144(sp)
     6fc:	08012a23          	sw	zero,148(sp)
     700:	08012c23          	sw	zero,152(sp)
     704:	08012e23          	sw	zero,156(sp)
     708:	0a012023          	sw	zero,160(sp)
     70c:	0a012223          	sw	zero,164(sp)
     710:	0a012423          	sw	zero,168(sp)
     714:	0a012623          	sw	zero,172(sp)
     718:	0a012823          	sw	zero,176(sp)
     71c:	0a012a23          	sw	zero,180(sp)
     720:	0a012c23          	sw	zero,184(sp)
     724:	0a012e23          	sw	zero,188(sp)
     728:	0c012023          	sw	zero,192(sp)
     72c:	0c012223          	sw	zero,196(sp)
     730:	0c012423          	sw	zero,200(sp)
     734:	0c012623          	sw	zero,204(sp)
     738:	0c012823          	sw	zero,208(sp)
     73c:	0c012a23          	sw	zero,212(sp)
     740:	0c012c23          	sw	zero,216(sp)
     744:	0c012e23          	sw	zero,220(sp)
     748:	0e012023          	sw	zero,224(sp)
     74c:	0e012223          	sw	zero,228(sp)
     750:	0e012423          	sw	zero,232(sp)
     754:	0e012623          	sw	zero,236(sp)
     758:	0e012823          	sw	zero,240(sp)
     75c:	0e012a23          	sw	zero,244(sp)
     760:	0e012c23          	sw	zero,248(sp)
     764:	0e012e23          	sw	zero,252(sp)
     768:	10012023          	sw	zero,256(sp)
     76c:	10012223          	sw	zero,260(sp)
     770:	10012423          	sw	zero,264(sp)
     774:	10012623          	sw	zero,268(sp)
     778:	10012823          	sw	zero,272(sp)
     77c:	10012a23          	sw	zero,276(sp)
     780:	10012c23          	sw	zero,280(sp)
     784:	10012e23          	sw	zero,284(sp)
     788:	12012023          	sw	zero,288(sp)
     78c:	12012223          	sw	zero,292(sp)
     790:	12012423          	sw	zero,296(sp)
     794:	12012623          	sw	zero,300(sp)
     798:	12012823          	sw	zero,304(sp)
     79c:	12012a23          	sw	zero,308(sp)
     7a0:	12012c23          	sw	zero,312(sp)
     7a4:	12012e23          	sw	zero,316(sp)
     7a8:	14012023          	sw	zero,320(sp)
     7ac:	14012223          	sw	zero,324(sp)
     7b0:	14012423          	sw	zero,328(sp)
     7b4:	14012623          	sw	zero,332(sp)
     7b8:	14012823          	sw	zero,336(sp)
     7bc:	14012a23          	sw	zero,340(sp)
     7c0:	14012c23          	sw	zero,344(sp)
     7c4:	14012e23          	sw	zero,348(sp)
     7c8:	16012023          	sw	zero,352(sp)
     7cc:	16012223          	sw	zero,356(sp)
     7d0:	16012423          	sw	zero,360(sp)
     7d4:	16012623          	sw	zero,364(sp)
     7d8:	16012823          	sw	zero,368(sp)
     7dc:	16012a23          	sw	zero,372(sp)
     7e0:	16012c23          	sw	zero,376(sp)
     7e4:	16012e23          	sw	zero,380(sp)
     7e8:	18012023          	sw	zero,384(sp)
     7ec:	18012223          	sw	zero,388(sp)
     7f0:	18012423          	sw	zero,392(sp)
     7f4:	18012623          	sw	zero,396(sp)
     7f8:	18012823          	sw	zero,400(sp)
     7fc:	18012a23          	sw	zero,404(sp)
     800:	18012c23          	sw	zero,408(sp)
     804:	18012e23          	sw	zero,412(sp)
     808:	1a012023          	sw	zero,416(sp)
     80c:	1a012223          	sw	zero,420(sp)
     810:	1a012423          	sw	zero,424(sp)
     814:	1a012623          	sw	zero,428(sp)
     818:	1a012823          	sw	zero,432(sp)
     81c:	1a012a23          	sw	zero,436(sp)
     820:	1a012c23          	sw	zero,440(sp)
     824:	1a012e23          	sw	zero,444(sp)
     828:	1c012023          	sw	zero,448(sp)
     82c:	1c012223          	sw	zero,452(sp)
     830:	1c012423          	sw	zero,456(sp)
     834:	1c012623          	sw	zero,460(sp)
     838:	1c012823          	sw	zero,464(sp)
     83c:	1c012a23          	sw	zero,468(sp)
     840:	1c012c23          	sw	zero,472(sp)
     844:	1c012e23          	sw	zero,476(sp)
     848:	1e012023          	sw	zero,480(sp)
     84c:	1e012223          	sw	zero,484(sp)
     850:	1e012423          	sw	zero,488(sp)
     854:	1e012623          	sw	zero,492(sp)
     858:	1e012823          	sw	zero,496(sp)
     85c:	1e012a23          	sw	zero,500(sp)
     860:	1e012c23          	sw	zero,504(sp)
     864:	1e012e23          	sw	zero,508(sp)
     868:	20012023          	sw	zero,512(sp)
     86c:	20012223          	sw	zero,516(sp)
     870:	20012423          	sw	zero,520(sp)
     874:	20012623          	sw	zero,524(sp)
     878:	00800793          	li	a5,8
     87c:	20012823          	sw	zero,528(sp)
     880:	20012a23          	sw	zero,532(sp)
     884:	20012c23          	sw	zero,536(sp)
     888:	20012e23          	sw	zero,540(sp)
     88c:	22012023          	sw	zero,544(sp)
     890:	22012223          	sw	zero,548(sp)
     894:	22012423          	sw	zero,552(sp)
     898:	22012623          	sw	zero,556(sp)
     89c:	2ea7e4e3          	bltu	a5,a0,1384 <__heap_size+0xb84>
     8a0:	00003737          	lui	a4,0x3
     8a4:	00251793          	slli	a5,a0,0x2
     8a8:	f8070713          	addi	a4,a4,-128 # 2f80 <player_button+0x4>
     8ac:	00e787b3          	add	a5,a5,a4
     8b0:	0007a783          	lw	a5,0(a5)
     8b4:	00078067          	jr	a5
     8b8:	00100793          	li	a5,1
     8bc:	00f12223          	sw	a5,4(sp)
     8c0:	00f12423          	sw	a5,8(sp)
     8c4:	00f12623          	sw	a5,12(sp)
     8c8:	00f12823          	sw	a5,16(sp)
     8cc:	00f12a23          	sw	a5,20(sp)
     8d0:	00f12c23          	sw	a5,24(sp)
     8d4:	00f12e23          	sw	a5,28(sp)
     8d8:	02f12023          	sw	a5,32(sp)
     8dc:	02f12223          	sw	a5,36(sp)
     8e0:	02f12623          	sw	a5,44(sp)
     8e4:	02f12823          	sw	a5,48(sp)
     8e8:	02f12a23          	sw	a5,52(sp)
     8ec:	02f12c23          	sw	a5,56(sp)
     8f0:	02f12e23          	sw	a5,60(sp)
     8f4:	04f12023          	sw	a5,64(sp)
     8f8:	04f12223          	sw	a5,68(sp)
     8fc:	04f12423          	sw	a5,72(sp)
     900:	04f12623          	sw	a5,76(sp)
     904:	0ef12e23          	sw	a5,252(sp)
     908:	10f12023          	sw	a5,256(sp)
     90c:	10f12223          	sw	a5,260(sp)
     910:	10f12423          	sw	a5,264(sp)
     914:	10f12623          	sw	a5,268(sp)
     918:	10f12823          	sw	a5,272(sp)
     91c:	10f12a23          	sw	a5,276(sp)
     920:	12f12223          	sw	a5,292(sp)
     924:	12f12423          	sw	a5,296(sp)
     928:	12f12623          	sw	a5,300(sp)
     92c:	12f12823          	sw	a5,304(sp)
     930:	12f12a23          	sw	a5,308(sp)
     934:	12f12c23          	sw	a5,312(sp)
     938:	12f12e23          	sw	a5,316(sp)
     93c:	08f12c23          	sw	a5,152(sp)
     940:	08f12a23          	sw	a5,148(sp)
     944:	06f12823          	sw	a5,112(sp)
     948:	06f12623          	sw	a5,108(sp)
     94c:	0af12c23          	sw	a5,184(sp)
     950:	0af12e23          	sw	a5,188(sp)
     954:	0ef12023          	sw	a5,224(sp)
     958:	0ef12223          	sw	a5,228(sp)
     95c:	14f12a23          	sw	a5,340(sp)
     960:	14f12c23          	sw	a5,344(sp)
     964:	16f12e23          	sw	a5,380(sp)
     968:	18f12023          	sw	a5,384(sp)
     96c:	1af12023          	sw	a5,416(sp)
     970:	1af12223          	sw	a5,420(sp)
     974:	1cf12423          	sw	a5,456(sp)
     978:	1cf12623          	sw	a5,460(sp)
     97c:	1ef12623          	sw	a5,492(sp)
     980:	1ef12823          	sw	a5,496(sp)
     984:	20f12a23          	sw	a5,532(sp)
     988:	20f12c23          	sw	a5,536(sp)
     98c:	08001737          	lui	a4,0x8001
     990:	a4f70713          	addi	a4,a4,-1457 # 8000a4f <_stack_end+0x7ef64ef>
     994:	00e58733          	add	a4,a1,a4
     998:	00010793          	mv	a5,sp
     99c:	23010593          	addi	a1,sp,560
     9a0:	fff00693          	li	a3,-1
     9a4:	0800006f          	j	a24 <__heap_size+0x224>
     9a8:	0047a603          	lw	a2,4(a5)
     9ac:	fe070ba3          	sb	zero,-9(a4)
     9b0:	08061463          	bnez	a2,a38 <__heap_size+0x238>
     9b4:	0087a603          	lw	a2,8(a5)
     9b8:	fe070c23          	sb	zero,-8(a4)
     9bc:	08061463          	bnez	a2,a44 <__heap_size+0x244>
     9c0:	00c7a603          	lw	a2,12(a5)
     9c4:	fe070ca3          	sb	zero,-7(a4)
     9c8:	08061463          	bnez	a2,a50 <__heap_size+0x250>
     9cc:	0107a603          	lw	a2,16(a5)
     9d0:	fe070d23          	sb	zero,-6(a4)
     9d4:	08061463          	bnez	a2,a5c <__heap_size+0x25c>
     9d8:	0147a603          	lw	a2,20(a5)
     9dc:	fe070da3          	sb	zero,-5(a4)
     9e0:	08061463          	bnez	a2,a68 <__heap_size+0x268>
     9e4:	0187a603          	lw	a2,24(a5)
     9e8:	fe070e23          	sb	zero,-4(a4)
     9ec:	08061463          	bnez	a2,a74 <__heap_size+0x274>
     9f0:	01c7a603          	lw	a2,28(a5)
     9f4:	fe070ea3          	sb	zero,-3(a4)
     9f8:	08061463          	bnez	a2,a80 <__heap_size+0x280>
     9fc:	0207a603          	lw	a2,32(a5)
     a00:	fe070f23          	sb	zero,-2(a4)
     a04:	08061463          	bnez	a2,a8c <__heap_size+0x28c>
     a08:	0247a603          	lw	a2,36(a5)
     a0c:	fe070fa3          	sb	zero,-1(a4)
     a10:	08061463          	bnez	a2,a98 <__heap_size+0x298>
     a14:	00070023          	sb	zero,0(a4)
     a18:	02878793          	addi	a5,a5,40
     a1c:	14070713          	addi	a4,a4,320
     a20:	08b78463          	beq	a5,a1,aa8 <__heap_size+0x2a8>
     a24:	0007a603          	lw	a2,0(a5)
     a28:	f80600e3          	beqz	a2,9a8 <__heap_size+0x1a8>
     a2c:	0047a603          	lw	a2,4(a5)
     a30:	fed70ba3          	sb	a3,-9(a4)
     a34:	f80600e3          	beqz	a2,9b4 <__heap_size+0x1b4>
     a38:	0087a603          	lw	a2,8(a5)
     a3c:	fed70c23          	sb	a3,-8(a4)
     a40:	f80600e3          	beqz	a2,9c0 <__heap_size+0x1c0>
     a44:	00c7a603          	lw	a2,12(a5)
     a48:	fed70ca3          	sb	a3,-7(a4)
     a4c:	f80600e3          	beqz	a2,9cc <__heap_size+0x1cc>
     a50:	0107a603          	lw	a2,16(a5)
     a54:	fed70d23          	sb	a3,-6(a4)
     a58:	f80600e3          	beqz	a2,9d8 <__heap_size+0x1d8>
     a5c:	0147a603          	lw	a2,20(a5)
     a60:	fed70da3          	sb	a3,-5(a4)
     a64:	f80600e3          	beqz	a2,9e4 <__heap_size+0x1e4>
     a68:	0187a603          	lw	a2,24(a5)
     a6c:	fed70e23          	sb	a3,-4(a4)
     a70:	f80600e3          	beqz	a2,9f0 <__heap_size+0x1f0>
     a74:	01c7a603          	lw	a2,28(a5)
     a78:	fed70ea3          	sb	a3,-3(a4)
     a7c:	f80600e3          	beqz	a2,9fc <__heap_size+0x1fc>
     a80:	0207a603          	lw	a2,32(a5)
     a84:	fed70f23          	sb	a3,-2(a4)
     a88:	f80600e3          	beqz	a2,a08 <__heap_size+0x208>
     a8c:	0247a603          	lw	a2,36(a5)
     a90:	fed70fa3          	sb	a3,-1(a4)
     a94:	f80600e3          	beqz	a2,a14 <__heap_size+0x214>
     a98:	00d70023          	sb	a3,0(a4)
     a9c:	02878793          	addi	a5,a5,40
     aa0:	14070713          	addi	a4,a4,320
     aa4:	f8b790e3          	bne	a5,a1,a24 <__heap_size+0x224>
     aa8:	23010113          	addi	sp,sp,560
     aac:	00008067          	ret
     ab0:	00100793          	li	a5,1
     ab4:	00f12223          	sw	a5,4(sp)
     ab8:	00f12423          	sw	a5,8(sp)
     abc:	00f12623          	sw	a5,12(sp)
     ac0:	00f12823          	sw	a5,16(sp)
     ac4:	00f12a23          	sw	a5,20(sp)
     ac8:	00f12c23          	sw	a5,24(sp)
     acc:	00f12e23          	sw	a5,28(sp)
     ad0:	02f12023          	sw	a5,32(sp)
     ad4:	02f12623          	sw	a5,44(sp)
     ad8:	02f12823          	sw	a5,48(sp)
     adc:	02f12a23          	sw	a5,52(sp)
     ae0:	02f12c23          	sw	a5,56(sp)
     ae4:	02f12e23          	sw	a5,60(sp)
     ae8:	04f12023          	sw	a5,64(sp)
     aec:	04f12223          	sw	a5,68(sp)
     af0:	04f12423          	sw	a5,72(sp)
     af4:	0ef12c23          	sw	a5,248(sp)
     af8:	0ef12e23          	sw	a5,252(sp)
     afc:	10f12023          	sw	a5,256(sp)
     b00:	10f12223          	sw	a5,260(sp)
     b04:	10f12423          	sw	a5,264(sp)
     b08:	10f12623          	sw	a5,268(sp)
     b0c:	12f12023          	sw	a5,288(sp)
     b10:	12f12223          	sw	a5,292(sp)
     b14:	12f12423          	sw	a5,296(sp)
     b18:	12f12623          	sw	a5,300(sp)
     b1c:	12f12823          	sw	a5,304(sp)
     b20:	12f12a23          	sw	a5,308(sp)
     b24:	1ef12223          	sw	a5,484(sp)
     b28:	1ef12423          	sw	a5,488(sp)
     b2c:	1ef12623          	sw	a5,492(sp)
     b30:	1ef12823          	sw	a5,496(sp)
     b34:	1ef12a23          	sw	a5,500(sp)
     b38:	1ef12c23          	sw	a5,504(sp)
     b3c:	1ef12e23          	sw	a5,508(sp)
     b40:	20f12023          	sw	a5,512(sp)
     b44:	20f12623          	sw	a5,524(sp)
     b48:	20f12823          	sw	a5,528(sp)
     b4c:	20f12a23          	sw	a5,532(sp)
     b50:	20f12c23          	sw	a5,536(sp)
     b54:	20f12e23          	sw	a5,540(sp)
     b58:	22f12023          	sw	a5,544(sp)
     b5c:	22f12223          	sw	a5,548(sp)
     b60:	22f12423          	sw	a5,552(sp)
     b64:	04f12623          	sw	a5,76(sp)
     b68:	06f12823          	sw	a5,112(sp)
     b6c:	06f12a23          	sw	a5,116(sp)
     b70:	08f12c23          	sw	a5,152(sp)
     b74:	08f12e23          	sw	a5,156(sp)
     b78:	0cf12023          	sw	a5,192(sp)
     b7c:	0cf12223          	sw	a5,196(sp)
     b80:	0ef12423          	sw	a5,232(sp)
     b84:	0ef12623          	sw	a5,236(sp)
     b88:	10f12823          	sw	a5,272(sp)
     b8c:	10f12a23          	sw	a5,276(sp)
     b90:	12f12c23          	sw	a5,312(sp)
     b94:	12f12e23          	sw	a5,316(sp)
     b98:	16f12023          	sw	a5,352(sp)
     b9c:	16f12223          	sw	a5,356(sp)
     ba0:	18f12423          	sw	a5,392(sp)
     ba4:	18f12623          	sw	a5,396(sp)
     ba8:	1af12823          	sw	a5,432(sp)
     bac:	1af12a23          	sw	a5,436(sp)
     bb0:	1cf12c23          	sw	a5,472(sp)
     bb4:	1cf12e23          	sw	a5,476(sp)
     bb8:	20f12223          	sw	a5,516(sp)
     bbc:	02f12423          	sw	a5,40(sp)
     bc0:	04f12823          	sw	a5,80(sp)
     bc4:	04f12a23          	sw	a5,84(sp)
     bc8:	06f12c23          	sw	a5,120(sp)
     bcc:	06f12e23          	sw	a5,124(sp)
     bd0:	0af12023          	sw	a5,160(sp)
     bd4:	0af12223          	sw	a5,164(sp)
     bd8:	0cf12423          	sw	a5,200(sp)
     bdc:	0cf12623          	sw	a5,204(sp)
     be0:	0ef12823          	sw	a5,240(sp)
     be4:	0ef12a23          	sw	a5,244(sp)
     be8:	10f12c23          	sw	a5,280(sp)
     bec:	10f12e23          	sw	a5,284(sp)
     bf0:	14f12023          	sw	a5,320(sp)
     bf4:	14f12223          	sw	a5,324(sp)
     bf8:	16f12423          	sw	a5,360(sp)
     bfc:	16f12623          	sw	a5,364(sp)
     c00:	18f12823          	sw	a5,400(sp)
     c04:	18f12a23          	sw	a5,404(sp)
     c08:	1af12c23          	sw	a5,440(sp)
     c0c:	1af12e23          	sw	a5,444(sp)
     c10:	1ef12023          	sw	a5,480(sp)
     c14:	d79ff06f          	j	98c <__heap_size+0x18c>
     c18:	00100793          	li	a5,1
     c1c:	00f12023          	sw	a5,0(sp)
     c20:	00f12223          	sw	a5,4(sp)
     c24:	00f12423          	sw	a5,8(sp)
     c28:	00f12623          	sw	a5,12(sp)
     c2c:	00f12823          	sw	a5,16(sp)
     c30:	00f12a23          	sw	a5,20(sp)
     c34:	00f12c23          	sw	a5,24(sp)
     c38:	00f12e23          	sw	a5,28(sp)
     c3c:	02f12023          	sw	a5,32(sp)
     c40:	02f12223          	sw	a5,36(sp)
     c44:	02f12423          	sw	a5,40(sp)
     c48:	02f12623          	sw	a5,44(sp)
     c4c:	02f12823          	sw	a5,48(sp)
     c50:	02f12a23          	sw	a5,52(sp)
     c54:	02f12c23          	sw	a5,56(sp)
     c58:	02f12e23          	sw	a5,60(sp)
     c5c:	04f12023          	sw	a5,64(sp)
     c60:	04f12223          	sw	a5,68(sp)
     c64:	04f12423          	sw	a5,72(sp)
     c68:	04f12623          	sw	a5,76(sp)
     c6c:	04f12823          	sw	a5,80(sp)
     c70:	04f12a23          	sw	a5,84(sp)
     c74:	06f12c23          	sw	a5,120(sp)
     c78:	06f12e23          	sw	a5,124(sp)
     c7c:	0af12023          	sw	a5,160(sp)
     c80:	0af12223          	sw	a5,164(sp)
     c84:	0cf12423          	sw	a5,200(sp)
     c88:	0cf12623          	sw	a5,204(sp)
     c8c:	0ef12823          	sw	a5,240(sp)
     c90:	0ef12a23          	sw	a5,244(sp)
     c94:	10f12c23          	sw	a5,280(sp)
     c98:	10f12e23          	sw	a5,284(sp)
     c9c:	14f12023          	sw	a5,320(sp)
     ca0:	14f12223          	sw	a5,324(sp)
     ca4:	16f12423          	sw	a5,360(sp)
     ca8:	16f12623          	sw	a5,364(sp)
     cac:	18f12823          	sw	a5,400(sp)
     cb0:	18f12a23          	sw	a5,404(sp)
     cb4:	1af12c23          	sw	a5,440(sp)
     cb8:	1af12e23          	sw	a5,444(sp)
     cbc:	1ef12023          	sw	a5,480(sp)
     cc0:	1ef12223          	sw	a5,484(sp)
     cc4:	20f12423          	sw	a5,520(sp)
     cc8:	20f12623          	sw	a5,524(sp)
     ccc:	06f12823          	sw	a5,112(sp)
     cd0:	06f12a23          	sw	a5,116(sp)
     cd4:	08f12c23          	sw	a5,152(sp)
     cd8:	08f12e23          	sw	a5,156(sp)
     cdc:	0cf12023          	sw	a5,192(sp)
     ce0:	0cf12223          	sw	a5,196(sp)
     ce4:	0ef12423          	sw	a5,232(sp)
     ce8:	0ef12623          	sw	a5,236(sp)
     cec:	10f12823          	sw	a5,272(sp)
     cf0:	10f12a23          	sw	a5,276(sp)
     cf4:	12f12c23          	sw	a5,312(sp)
     cf8:	12f12e23          	sw	a5,316(sp)
     cfc:	16f12023          	sw	a5,352(sp)
     d00:	16f12223          	sw	a5,356(sp)
     d04:	18f12423          	sw	a5,392(sp)
     d08:	18f12623          	sw	a5,396(sp)
     d0c:	1af12823          	sw	a5,432(sp)
     d10:	1af12a23          	sw	a5,436(sp)
     d14:	1cf12c23          	sw	a5,472(sp)
     d18:	1cf12e23          	sw	a5,476(sp)
     d1c:	20f12023          	sw	a5,512(sp)
     d20:	20f12223          	sw	a5,516(sp)
     d24:	22f12423          	sw	a5,552(sp)
     d28:	22f12623          	sw	a5,556(sp)
     d2c:	1ef12423          	sw	a5,488(sp)
     d30:	1ef12623          	sw	a5,492(sp)
     d34:	1ef12823          	sw	a5,496(sp)
     d38:	1ef12a23          	sw	a5,500(sp)
     d3c:	1ef12c23          	sw	a5,504(sp)
     d40:	1ef12e23          	sw	a5,508(sp)
     d44:	20f12823          	sw	a5,528(sp)
     d48:	20f12a23          	sw	a5,532(sp)
     d4c:	20f12c23          	sw	a5,536(sp)
     d50:	20f12e23          	sw	a5,540(sp)
     d54:	22f12023          	sw	a5,544(sp)
     d58:	22f12223          	sw	a5,548(sp)
     d5c:	c31ff06f          	j	98c <__heap_size+0x18c>
     d60:	00100793          	li	a5,1
     d64:	00f12823          	sw	a5,16(sp)
     d68:	00f12a23          	sw	a5,20(sp)
     d6c:	02f12c23          	sw	a5,56(sp)
     d70:	02f12e23          	sw	a5,60(sp)
     d74:	06f12023          	sw	a5,96(sp)
     d78:	06f12223          	sw	a5,100(sp)
     d7c:	08f12423          	sw	a5,136(sp)
     d80:	08f12623          	sw	a5,140(sp)
     d84:	0af12823          	sw	a5,176(sp)
     d88:	0af12a23          	sw	a5,180(sp)
     d8c:	0cf12c23          	sw	a5,216(sp)
     d90:	0cf12e23          	sw	a5,220(sp)
     d94:	10f12023          	sw	a5,256(sp)
     d98:	10f12223          	sw	a5,260(sp)
     d9c:	12f12423          	sw	a5,296(sp)
     da0:	12f12623          	sw	a5,300(sp)
     da4:	14f12823          	sw	a5,336(sp)
     da8:	14f12a23          	sw	a5,340(sp)
     dac:	16f12c23          	sw	a5,376(sp)
     db0:	16f12e23          	sw	a5,380(sp)
     db4:	1af12023          	sw	a5,416(sp)
     db8:	1af12223          	sw	a5,420(sp)
     dbc:	1cf12423          	sw	a5,456(sp)
     dc0:	1cf12623          	sw	a5,460(sp)
     dc4:	1ef12823          	sw	a5,496(sp)
     dc8:	1ef12a23          	sw	a5,500(sp)
     dcc:	20f12c23          	sw	a5,536(sp)
     dd0:	20f12e23          	sw	a5,540(sp)
     dd4:	bb9ff06f          	j	98c <__heap_size+0x18c>
     dd8:	00100793          	li	a5,1
     ddc:	00f12223          	sw	a5,4(sp)
     de0:	00f12423          	sw	a5,8(sp)
     de4:	00f12623          	sw	a5,12(sp)
     de8:	00f12823          	sw	a5,16(sp)
     dec:	00f12a23          	sw	a5,20(sp)
     df0:	00f12c23          	sw	a5,24(sp)
     df4:	00f12e23          	sw	a5,28(sp)
     df8:	02f12023          	sw	a5,32(sp)
     dfc:	02f12623          	sw	a5,44(sp)
     e00:	02f12823          	sw	a5,48(sp)
     e04:	02f12a23          	sw	a5,52(sp)
     e08:	02f12c23          	sw	a5,56(sp)
     e0c:	02f12e23          	sw	a5,60(sp)
     e10:	04f12023          	sw	a5,64(sp)
     e14:	04f12223          	sw	a5,68(sp)
     e18:	04f12423          	sw	a5,72(sp)
     e1c:	0af12e23          	sw	a5,188(sp)
     e20:	0cf12023          	sw	a5,192(sp)
     e24:	0cf12223          	sw	a5,196(sp)
     e28:	0cf12423          	sw	a5,200(sp)
     e2c:	0ef12023          	sw	a5,224(sp)
     e30:	0ef12223          	sw	a5,228(sp)
     e34:	0ef12423          	sw	a5,232(sp)
     e38:	0ef12623          	sw	a5,236(sp)
     e3c:	10f12223          	sw	a5,260(sp)
     e40:	10f12423          	sw	a5,264(sp)
     e44:	10f12623          	sw	a5,268(sp)
     e48:	10f12823          	sw	a5,272(sp)
     e4c:	12f12423          	sw	a5,296(sp)
     e50:	12f12623          	sw	a5,300(sp)
     e54:	12f12823          	sw	a5,304(sp)
     e58:	12f12a23          	sw	a5,308(sp)
     e5c:	14f12623          	sw	a5,332(sp)
     e60:	14f12823          	sw	a5,336(sp)
     e64:	14f12a23          	sw	a5,340(sp)
     e68:	14f12c23          	sw	a5,344(sp)
     e6c:	16f12823          	sw	a5,368(sp)
     e70:	16f12a23          	sw	a5,372(sp)
     e74:	16f12c23          	sw	a5,376(sp)
     e78:	16f12e23          	sw	a5,380(sp)
     e7c:	18f12a23          	sw	a5,404(sp)
     e80:	18f12c23          	sw	a5,408(sp)
     e84:	18f12e23          	sw	a5,412(sp)
     e88:	1af12023          	sw	a5,416(sp)
     e8c:	1af12c23          	sw	a5,440(sp)
     e90:	1af12e23          	sw	a5,444(sp)
     e94:	1cf12023          	sw	a5,448(sp)
     e98:	1cf12223          	sw	a5,452(sp)
     e9c:	1ef12023          	sw	a5,480(sp)
     ea0:	1ef12223          	sw	a5,484(sp)
     ea4:	1ef12423          	sw	a5,488(sp)
     ea8:	1ef12623          	sw	a5,492(sp)
     eac:	1ef12823          	sw	a5,496(sp)
     eb0:	1ef12a23          	sw	a5,500(sp)
     eb4:	1ef12c23          	sw	a5,504(sp)
     eb8:	1ef12e23          	sw	a5,508(sp)
     ebc:	20f12023          	sw	a5,512(sp)
     ec0:	20f12223          	sw	a5,516(sp)
     ec4:	20f12423          	sw	a5,520(sp)
     ec8:	20f12623          	sw	a5,524(sp)
     ecc:	20f12823          	sw	a5,528(sp)
     ed0:	20f12a23          	sw	a5,532(sp)
     ed4:	20f12c23          	sw	a5,536(sp)
     ed8:	20f12e23          	sw	a5,540(sp)
     edc:	22f12023          	sw	a5,544(sp)
     ee0:	22f12223          	sw	a5,548(sp)
     ee4:	22f12423          	sw	a5,552(sp)
     ee8:	22f12623          	sw	a5,556(sp)
     eec:	02f12423          	sw	a5,40(sp)
     ef0:	04f12823          	sw	a5,80(sp)
     ef4:	04f12a23          	sw	a5,84(sp)
     ef8:	08f12c23          	sw	a5,152(sp)
     efc:	08f12e23          	sw	a5,156(sp)
     f00:	06f12823          	sw	a5,112(sp)
     f04:	06f12a23          	sw	a5,116(sp)
     f08:	a85ff06f          	j	98c <__heap_size+0x18c>
     f0c:	00100793          	li	a5,1
     f10:	00f12223          	sw	a5,4(sp)
     f14:	00f12423          	sw	a5,8(sp)
     f18:	00f12623          	sw	a5,12(sp)
     f1c:	00f12823          	sw	a5,16(sp)
     f20:	00f12a23          	sw	a5,20(sp)
     f24:	00f12c23          	sw	a5,24(sp)
     f28:	00f12e23          	sw	a5,28(sp)
     f2c:	02f12023          	sw	a5,32(sp)
     f30:	02f12623          	sw	a5,44(sp)
     f34:	02f12823          	sw	a5,48(sp)
     f38:	02f12a23          	sw	a5,52(sp)
     f3c:	02f12c23          	sw	a5,56(sp)
     f40:	02f12e23          	sw	a5,60(sp)
     f44:	04f12023          	sw	a5,64(sp)
     f48:	04f12223          	sw	a5,68(sp)
     f4c:	04f12423          	sw	a5,72(sp)
     f50:	10f12023          	sw	a5,256(sp)
     f54:	10f12223          	sw	a5,260(sp)
     f58:	10f12423          	sw	a5,264(sp)
     f5c:	10f12623          	sw	a5,268(sp)
     f60:	12f12423          	sw	a5,296(sp)
     f64:	12f12623          	sw	a5,300(sp)
     f68:	12f12823          	sw	a5,304(sp)
     f6c:	12f12a23          	sw	a5,308(sp)
     f70:	04f12623          	sw	a5,76(sp)
     f74:	06f12823          	sw	a5,112(sp)
     f78:	06f12a23          	sw	a5,116(sp)
     f7c:	08f12c23          	sw	a5,152(sp)
     f80:	08f12e23          	sw	a5,156(sp)
     f84:	0cf12023          	sw	a5,192(sp)
     f88:	0cf12223          	sw	a5,196(sp)
     f8c:	0ef12423          	sw	a5,232(sp)
     f90:	0ef12623          	sw	a5,236(sp)
     f94:	10f12823          	sw	a5,272(sp)
     f98:	10f12a23          	sw	a5,276(sp)
     f9c:	12f12c23          	sw	a5,312(sp)
     fa0:	12f12e23          	sw	a5,316(sp)
     fa4:	16f12023          	sw	a5,352(sp)
     fa8:	16f12223          	sw	a5,356(sp)
     fac:	18f12423          	sw	a5,392(sp)
     fb0:	18f12623          	sw	a5,396(sp)
     fb4:	1af12823          	sw	a5,432(sp)
     fb8:	1af12a23          	sw	a5,436(sp)
     fbc:	1cf12c23          	sw	a5,472(sp)
     fc0:	1cf12e23          	sw	a5,476(sp)
     fc4:	20f12023          	sw	a5,512(sp)
     fc8:	20f12223          	sw	a5,516(sp)
     fcc:	1ef12223          	sw	a5,484(sp)
     fd0:	1ef12423          	sw	a5,488(sp)
     fd4:	1ef12623          	sw	a5,492(sp)
     fd8:	1ef12823          	sw	a5,496(sp)
     fdc:	1ef12a23          	sw	a5,500(sp)
     fe0:	1ef12c23          	sw	a5,504(sp)
     fe4:	1ef12e23          	sw	a5,508(sp)
     fe8:	20f12623          	sw	a5,524(sp)
     fec:	20f12823          	sw	a5,528(sp)
     ff0:	20f12a23          	sw	a5,532(sp)
     ff4:	20f12c23          	sw	a5,536(sp)
     ff8:	20f12e23          	sw	a5,540(sp)
     ffc:	22f12023          	sw	a5,544(sp)
    1000:	22f12223          	sw	a5,548(sp)
    1004:	22f12423          	sw	a5,552(sp)
    1008:	02f12423          	sw	a5,40(sp)
    100c:	04f12823          	sw	a5,80(sp)
    1010:	04f12a23          	sw	a5,84(sp)
    1014:	06f12623          	sw	a5,108(sp)
    1018:	1cf12a23          	sw	a5,468(sp)
    101c:	1af12c23          	sw	a5,440(sp)
    1020:	1af12e23          	sw	a5,444(sp)
    1024:	1ef12023          	sw	a5,480(sp)
    1028:	965ff06f          	j	98c <__heap_size+0x18c>
    102c:	00100793          	li	a5,1
    1030:	00f12023          	sw	a5,0(sp)
    1034:	00f12223          	sw	a5,4(sp)
    1038:	02f12423          	sw	a5,40(sp)
    103c:	02f12623          	sw	a5,44(sp)
    1040:	04f12823          	sw	a5,80(sp)
    1044:	04f12a23          	sw	a5,84(sp)
    1048:	06f12c23          	sw	a5,120(sp)
    104c:	06f12e23          	sw	a5,124(sp)
    1050:	0af12023          	sw	a5,160(sp)
    1054:	0af12223          	sw	a5,164(sp)
    1058:	0cf12423          	sw	a5,200(sp)
    105c:	0cf12623          	sw	a5,204(sp)
    1060:	0ef12823          	sw	a5,240(sp)
    1064:	0ef12a23          	sw	a5,244(sp)
    1068:	10f12c23          	sw	a5,280(sp)
    106c:	10f12e23          	sw	a5,284(sp)
    1070:	0ef12c23          	sw	a5,248(sp)
    1074:	0ef12e23          	sw	a5,252(sp)
    1078:	10f12023          	sw	a5,256(sp)
    107c:	10f12223          	sw	a5,260(sp)
    1080:	10f12423          	sw	a5,264(sp)
    1084:	10f12623          	sw	a5,268(sp)
    1088:	12f12023          	sw	a5,288(sp)
    108c:	12f12223          	sw	a5,292(sp)
    1090:	12f12423          	sw	a5,296(sp)
    1094:	12f12623          	sw	a5,300(sp)
    1098:	12f12823          	sw	a5,304(sp)
    109c:	12f12a23          	sw	a5,308(sp)
    10a0:	02f12023          	sw	a5,32(sp)
    10a4:	02f12223          	sw	a5,36(sp)
    10a8:	04f12423          	sw	a5,72(sp)
    10ac:	04f12623          	sw	a5,76(sp)
    10b0:	06f12823          	sw	a5,112(sp)
    10b4:	06f12a23          	sw	a5,116(sp)
    10b8:	08f12c23          	sw	a5,152(sp)
    10bc:	08f12e23          	sw	a5,156(sp)
    10c0:	0cf12023          	sw	a5,192(sp)
    10c4:	0cf12223          	sw	a5,196(sp)
    10c8:	0ef12423          	sw	a5,232(sp)
    10cc:	0ef12623          	sw	a5,236(sp)
    10d0:	10f12823          	sw	a5,272(sp)
    10d4:	10f12a23          	sw	a5,276(sp)
    10d8:	12f12c23          	sw	a5,312(sp)
    10dc:	12f12e23          	sw	a5,316(sp)
    10e0:	16f12023          	sw	a5,352(sp)
    10e4:	16f12223          	sw	a5,356(sp)
    10e8:	18f12423          	sw	a5,392(sp)
    10ec:	18f12623          	sw	a5,396(sp)
    10f0:	1af12823          	sw	a5,432(sp)
    10f4:	1af12a23          	sw	a5,436(sp)
    10f8:	1cf12c23          	sw	a5,472(sp)
    10fc:	1cf12e23          	sw	a5,476(sp)
    1100:	20f12023          	sw	a5,512(sp)
    1104:	20f12223          	sw	a5,516(sp)
    1108:	22f12423          	sw	a5,552(sp)
    110c:	22f12623          	sw	a5,556(sp)
    1110:	87dff06f          	j	98c <__heap_size+0x18c>
    1114:	00100793          	li	a5,1
    1118:	00f12023          	sw	a5,0(sp)
    111c:	00f12223          	sw	a5,4(sp)
    1120:	00f12423          	sw	a5,8(sp)
    1124:	00f12623          	sw	a5,12(sp)
    1128:	00f12823          	sw	a5,16(sp)
    112c:	00f12a23          	sw	a5,20(sp)
    1130:	00f12c23          	sw	a5,24(sp)
    1134:	00f12e23          	sw	a5,28(sp)
    1138:	02f12023          	sw	a5,32(sp)
    113c:	02f12223          	sw	a5,36(sp)
    1140:	02f12423          	sw	a5,40(sp)
    1144:	02f12623          	sw	a5,44(sp)
    1148:	02f12823          	sw	a5,48(sp)
    114c:	02f12a23          	sw	a5,52(sp)
    1150:	02f12c23          	sw	a5,56(sp)
    1154:	02f12e23          	sw	a5,60(sp)
    1158:	04f12023          	sw	a5,64(sp)
    115c:	04f12223          	sw	a5,68(sp)
    1160:	04f12423          	sw	a5,72(sp)
    1164:	04f12623          	sw	a5,76(sp)
    1168:	04f12823          	sw	a5,80(sp)
    116c:	04f12a23          	sw	a5,84(sp)
    1170:	06f12c23          	sw	a5,120(sp)
    1174:	06f12e23          	sw	a5,124(sp)
    1178:	0af12023          	sw	a5,160(sp)
    117c:	0af12223          	sw	a5,164(sp)
    1180:	0cf12423          	sw	a5,200(sp)
    1184:	0cf12623          	sw	a5,204(sp)
    1188:	0ef12823          	sw	a5,240(sp)
    118c:	0ef12a23          	sw	a5,244(sp)
    1190:	0ef12c23          	sw	a5,248(sp)
    1194:	0ef12e23          	sw	a5,252(sp)
    1198:	10f12023          	sw	a5,256(sp)
    119c:	10f12223          	sw	a5,260(sp)
    11a0:	10f12423          	sw	a5,264(sp)
    11a4:	10f12623          	sw	a5,268(sp)
    11a8:	10f12823          	sw	a5,272(sp)
    11ac:	12f12023          	sw	a5,288(sp)
    11b0:	12f12223          	sw	a5,292(sp)
    11b4:	12f12423          	sw	a5,296(sp)
    11b8:	12f12623          	sw	a5,300(sp)
    11bc:	12f12823          	sw	a5,304(sp)
    11c0:	12f12a23          	sw	a5,308(sp)
    11c4:	12f12c23          	sw	a5,312(sp)
    11c8:	16f12023          	sw	a5,352(sp)
    11cc:	16f12223          	sw	a5,356(sp)
    11d0:	18f12423          	sw	a5,392(sp)
    11d4:	18f12623          	sw	a5,396(sp)
    11d8:	1af12823          	sw	a5,432(sp)
    11dc:	1af12a23          	sw	a5,436(sp)
    11e0:	1cf12c23          	sw	a5,472(sp)
    11e4:	1cf12e23          	sw	a5,476(sp)
    11e8:	20f12023          	sw	a5,512(sp)
    11ec:	20f12223          	sw	a5,516(sp)
    11f0:	1ef12223          	sw	a5,484(sp)
    11f4:	1ef12423          	sw	a5,488(sp)
    11f8:	1ef12623          	sw	a5,492(sp)
    11fc:	1ef12823          	sw	a5,496(sp)
    1200:	1ef12a23          	sw	a5,500(sp)
    1204:	1ef12c23          	sw	a5,504(sp)
    1208:	1ef12e23          	sw	a5,508(sp)
    120c:	20f12623          	sw	a5,524(sp)
    1210:	20f12823          	sw	a5,528(sp)
    1214:	20f12a23          	sw	a5,532(sp)
    1218:	20f12c23          	sw	a5,536(sp)
    121c:	20f12e23          	sw	a5,540(sp)
    1220:	22f12023          	sw	a5,544(sp)
    1224:	22f12223          	sw	a5,548(sp)
    1228:	22f12423          	sw	a5,552(sp)
    122c:	10f12e23          	sw	a5,284(sp)
    1230:	12f12e23          	sw	a5,316(sp)
    1234:	1cf12a23          	sw	a5,468(sp)
    1238:	1af12e23          	sw	a5,444(sp)
    123c:	1af12c23          	sw	a5,440(sp)
    1240:	1ef12023          	sw	a5,480(sp)
    1244:	f48ff06f          	j	98c <__heap_size+0x18c>
    1248:	00100793          	li	a5,1
    124c:	00f12223          	sw	a5,4(sp)
    1250:	00f12423          	sw	a5,8(sp)
    1254:	00f12623          	sw	a5,12(sp)
    1258:	00f12823          	sw	a5,16(sp)
    125c:	00f12a23          	sw	a5,20(sp)
    1260:	00f12c23          	sw	a5,24(sp)
    1264:	00f12e23          	sw	a5,28(sp)
    1268:	02f12023          	sw	a5,32(sp)
    126c:	02f12623          	sw	a5,44(sp)
    1270:	02f12823          	sw	a5,48(sp)
    1274:	02f12a23          	sw	a5,52(sp)
    1278:	02f12c23          	sw	a5,56(sp)
    127c:	02f12e23          	sw	a5,60(sp)
    1280:	04f12023          	sw	a5,64(sp)
    1284:	04f12223          	sw	a5,68(sp)
    1288:	04f12423          	sw	a5,72(sp)
    128c:	02f12423          	sw	a5,40(sp)
    1290:	04f12823          	sw	a5,80(sp)
    1294:	04f12a23          	sw	a5,84(sp)
    1298:	06f12c23          	sw	a5,120(sp)
    129c:	06f12e23          	sw	a5,124(sp)
    12a0:	0af12023          	sw	a5,160(sp)
    12a4:	0af12223          	sw	a5,164(sp)
    12a8:	0cf12423          	sw	a5,200(sp)
    12ac:	0cf12623          	sw	a5,204(sp)
    12b0:	0ef12823          	sw	a5,240(sp)
    12b4:	0ef12a23          	sw	a5,244(sp)
    12b8:	10f12c23          	sw	a5,280(sp)
    12bc:	10f12e23          	sw	a5,284(sp)
    12c0:	14f12023          	sw	a5,320(sp)
    12c4:	14f12223          	sw	a5,324(sp)
    12c8:	16f12423          	sw	a5,360(sp)
    12cc:	16f12623          	sw	a5,364(sp)
    12d0:	18f12823          	sw	a5,400(sp)
    12d4:	18f12a23          	sw	a5,404(sp)
    12d8:	1af12c23          	sw	a5,440(sp)
    12dc:	1af12e23          	sw	a5,444(sp)
    12e0:	1ef12023          	sw	a5,480(sp)
    12e4:	1ef12223          	sw	a5,484(sp)
    12e8:	0ef12c23          	sw	a5,248(sp)
    12ec:	0ef12e23          	sw	a5,252(sp)
    12f0:	10f12023          	sw	a5,256(sp)
    12f4:	10f12223          	sw	a5,260(sp)
    12f8:	10f12423          	sw	a5,264(sp)
    12fc:	10f12623          	sw	a5,268(sp)
    1300:	12f12023          	sw	a5,288(sp)
    1304:	12f12223          	sw	a5,292(sp)
    1308:	12f12423          	sw	a5,296(sp)
    130c:	12f12623          	sw	a5,300(sp)
    1310:	12f12823          	sw	a5,304(sp)
    1314:	12f12a23          	sw	a5,308(sp)
    1318:	12f12c23          	sw	a5,312(sp)
    131c:	12f12e23          	sw	a5,316(sp)
    1320:	16f12023          	sw	a5,352(sp)
    1324:	16f12223          	sw	a5,356(sp)
    1328:	18f12423          	sw	a5,392(sp)
    132c:	18f12623          	sw	a5,396(sp)
    1330:	1af12823          	sw	a5,432(sp)
    1334:	1af12a23          	sw	a5,436(sp)
    1338:	1cf12c23          	sw	a5,472(sp)
    133c:	1cf12e23          	sw	a5,476(sp)
    1340:	20f12023          	sw	a5,512(sp)
    1344:	20f12223          	sw	a5,516(sp)
    1348:	1ef12423          	sw	a5,488(sp)
    134c:	1ef12623          	sw	a5,492(sp)
    1350:	1ef12823          	sw	a5,496(sp)
    1354:	1ef12a23          	sw	a5,500(sp)
    1358:	1ef12c23          	sw	a5,504(sp)
    135c:	1ef12e23          	sw	a5,508(sp)
    1360:	20f12623          	sw	a5,524(sp)
    1364:	20f12823          	sw	a5,528(sp)
    1368:	20f12a23          	sw	a5,532(sp)
    136c:	20f12c23          	sw	a5,536(sp)
    1370:	20f12e23          	sw	a5,540(sp)
    1374:	22f12023          	sw	a5,544(sp)
    1378:	22f12223          	sw	a5,548(sp)
    137c:	22f12423          	sw	a5,552(sp)
    1380:	e0cff06f          	j	98c <__heap_size+0x18c>
    1384:	00100793          	li	a5,1
    1388:	00f12223          	sw	a5,4(sp)
    138c:	00f12423          	sw	a5,8(sp)
    1390:	00f12623          	sw	a5,12(sp)
    1394:	00f12823          	sw	a5,16(sp)
    1398:	00f12a23          	sw	a5,20(sp)
    139c:	00f12c23          	sw	a5,24(sp)
    13a0:	00f12e23          	sw	a5,28(sp)
    13a4:	02f12023          	sw	a5,32(sp)
    13a8:	02f12623          	sw	a5,44(sp)
    13ac:	02f12823          	sw	a5,48(sp)
    13b0:	02f12a23          	sw	a5,52(sp)
    13b4:	02f12c23          	sw	a5,56(sp)
    13b8:	02f12e23          	sw	a5,60(sp)
    13bc:	04f12023          	sw	a5,64(sp)
    13c0:	04f12223          	sw	a5,68(sp)
    13c4:	04f12423          	sw	a5,72(sp)
    13c8:	04f12623          	sw	a5,76(sp)
    13cc:	06f12823          	sw	a5,112(sp)
    13d0:	06f12a23          	sw	a5,116(sp)
    13d4:	08f12c23          	sw	a5,152(sp)
    13d8:	08f12e23          	sw	a5,156(sp)
    13dc:	0cf12023          	sw	a5,192(sp)
    13e0:	0cf12223          	sw	a5,196(sp)
    13e4:	0ef12423          	sw	a5,232(sp)
    13e8:	0ef12623          	sw	a5,236(sp)
    13ec:	10f12823          	sw	a5,272(sp)
    13f0:	10f12a23          	sw	a5,276(sp)
    13f4:	12f12c23          	sw	a5,312(sp)
    13f8:	12f12e23          	sw	a5,316(sp)
    13fc:	16f12023          	sw	a5,352(sp)
    1400:	16f12223          	sw	a5,356(sp)
    1404:	18f12423          	sw	a5,392(sp)
    1408:	18f12623          	sw	a5,396(sp)
    140c:	1af12823          	sw	a5,432(sp)
    1410:	1af12a23          	sw	a5,436(sp)
    1414:	1cf12c23          	sw	a5,472(sp)
    1418:	1cf12e23          	sw	a5,476(sp)
    141c:	20f12023          	sw	a5,512(sp)
    1420:	20f12223          	sw	a5,516(sp)
    1424:	02f12423          	sw	a5,40(sp)
    1428:	04f12823          	sw	a5,80(sp)
    142c:	04f12a23          	sw	a5,84(sp)
    1430:	06f12c23          	sw	a5,120(sp)
    1434:	06f12e23          	sw	a5,124(sp)
    1438:	0af12023          	sw	a5,160(sp)
    143c:	0af12223          	sw	a5,164(sp)
    1440:	0cf12423          	sw	a5,200(sp)
    1444:	0cf12623          	sw	a5,204(sp)
    1448:	0ef12823          	sw	a5,240(sp)
    144c:	0ef12a23          	sw	a5,244(sp)
    1450:	0ef12c23          	sw	a5,248(sp)
    1454:	0ef12e23          	sw	a5,252(sp)
    1458:	10f12023          	sw	a5,256(sp)
    145c:	10f12223          	sw	a5,260(sp)
    1460:	10f12423          	sw	a5,264(sp)
    1464:	10f12623          	sw	a5,268(sp)
    1468:	10f12e23          	sw	a5,284(sp)
    146c:	12f12023          	sw	a5,288(sp)
    1470:	12f12223          	sw	a5,292(sp)
    1474:	12f12423          	sw	a5,296(sp)
    1478:	12f12623          	sw	a5,300(sp)
    147c:	12f12823          	sw	a5,304(sp)
    1480:	12f12a23          	sw	a5,308(sp)
    1484:	1ef12223          	sw	a5,484(sp)
    1488:	ec1ff06f          	j	1348 <__heap_size+0xb48>

0000148c <drawScore>:
    148c:	fe010113          	addi	sp,sp,-32
    1490:	00812c23          	sw	s0,24(sp)
    1494:	00912a23          	sw	s1,20(sp)
    1498:	01212823          	sw	s2,16(sp)
    149c:	01312623          	sw	s3,12(sp)
    14a0:	01412423          	sw	s4,8(sp)
    14a4:	00112e23          	sw	ra,28(sp)
    14a8:	00050993          	mv	s3,a0
    14ac:	00000413          	li	s0,0
    14b0:	3e800493          	li	s1,1000
    14b4:	00a00913          	li	s2,10
    14b8:	03000a13          	li	s4,48
    14bc:	0299c533          	div	a0,s3,s1
    14c0:	00040593          	mv	a1,s0
    14c4:	00c40413          	addi	s0,s0,12
    14c8:	03256533          	rem	a0,a0,s2
    14cc:	998ff0ef          	jal	664 <drawNumber>
    14d0:	0324c4b3          	div	s1,s1,s2
    14d4:	ff4414e3          	bne	s0,s4,14bc <drawScore+0x30>
    14d8:	01c12083          	lw	ra,28(sp)
    14dc:	01812403          	lw	s0,24(sp)
    14e0:	01412483          	lw	s1,20(sp)
    14e4:	01012903          	lw	s2,16(sp)
    14e8:	00c12983          	lw	s3,12(sp)
    14ec:	00812a03          	lw	s4,8(sp)
    14f0:	02010113          	addi	sp,sp,32
    14f4:	00008067          	ret

000014f8 <gameTick>:
    14f8:	fe010113          	addi	sp,sp,-32
    14fc:	01512223          	sw	s5,4(sp)
    1500:	00003ab7          	lui	s5,0x3
    1504:	f20aa703          	lw	a4,-224(s5) # 2f20 <snake_lastdir>
    1508:	00812c23          	sw	s0,24(sp)
    150c:	00912a23          	sw	s1,20(sp)
    1510:	01312623          	sw	s3,12(sp)
    1514:	01412423          	sw	s4,8(sp)
    1518:	00112e23          	sw	ra,28(sp)
    151c:	01212823          	sw	s2,16(sp)
    1520:	00177793          	andi	a5,a4,1
    1524:	00058493          	mv	s1,a1
    1528:	00050a13          	mv	s4,a0
    152c:	0005a583          	lw	a1,0(a1)
    1530:	00060993          	mv	s3,a2
    1534:	00068413          	mv	s0,a3
    1538:	08079663          	bnez	a5,15c4 <gameTick+0xcc>
    153c:	01f6d693          	srli	a3,a3,0x1f
    1540:	00d407b3          	add	a5,s0,a3
    1544:	0017f793          	andi	a5,a5,1
    1548:	fff78793          	addi	a5,a5,-1
    154c:	08d78063          	beq	a5,a3,15cc <gameTick+0xd4>
    1550:	00070613          	mv	a2,a4
    1554:	0dd000ef          	jal	1e30 <getCellInDirection>
    1558:	00050913          	mv	s2,a0
    155c:	00092783          	lw	a5,0(s2)
    1560:	08f05263          	blez	a5,15e4 <gameTick+0xec>
    1564:	00400713          	li	a4,4
    1568:	00000513          	li	a0,0
    156c:	02f74463          	blt	a4,a5,1594 <gameTick+0x9c>
    1570:	01c12083          	lw	ra,28(sp)
    1574:	01812403          	lw	s0,24(sp)
    1578:	01412483          	lw	s1,20(sp)
    157c:	01012903          	lw	s2,16(sp)
    1580:	00c12983          	lw	s3,12(sp)
    1584:	00812a03          	lw	s4,8(sp)
    1588:	00412a83          	lw	s5,4(sp)
    158c:	02010113          	addi	sp,sp,32
    1590:	00008067          	ret
    1594:	00003737          	lui	a4,0x3
    1598:	f7872783          	lw	a5,-136(a4) # 2f78 <currentGameScore>
    159c:	000a0513          	mv	a0,s4
    15a0:	00178793          	addi	a5,a5,1
    15a4:	f6f72c23          	sw	a5,-136(a4)
    15a8:	77c000ef          	jal	1d24 <newApple>
    15ac:	0004a503          	lw	a0,0(s1)
    15b0:	00090593          	mv	a1,s2
    15b4:	754000ef          	jal	1d08 <moveHead>
    15b8:	00a4a023          	sw	a0,0(s1)
    15bc:	00100513          	li	a0,1
    15c0:	fb1ff06f          	j	1570 <gameTick+0x78>
    15c4:	0016f793          	andi	a5,a3,1
    15c8:	f80794e3          	bnez	a5,1550 <gameTick+0x58>
    15cc:	00040613          	mv	a2,s0
    15d0:	061000ef          	jal	1e30 <getCellInDirection>
    15d4:	00050913          	mv	s2,a0
    15d8:	00092783          	lw	a5,0(s2)
    15dc:	f28aa023          	sw	s0,-224(s5)
    15e0:	f8f042e3          	bgtz	a5,1564 <gameTick+0x6c>
    15e4:	0009a503          	lw	a0,0(s3)
    15e8:	704000ef          	jal	1cec <moveEnd>
    15ec:	00a9a023          	sw	a0,0(s3)
    15f0:	fbdff06f          	j	15ac <gameTick+0xb4>

000015f4 <handle_interrupt>:
    15f4:	fe010113          	addi	sp,sp,-32
    15f8:	01512223          	sw	s5,4(sp)
    15fc:	040007b7          	lui	a5,0x4000
    1600:	00003ab7          	lui	s5,0x3
    1604:	0207d703          	lhu	a4,32(a5) # 4000020 <_stack_end+0x3ef5ac0>
    1608:	f20aa603          	lw	a2,-224(s5) # 2f20 <snake_lastdir>
    160c:	00912a23          	sw	s1,20(sp)
    1610:	01212823          	sw	s2,16(sp)
    1614:	01312623          	sw	s3,12(sp)
    1618:	01412423          	sw	s4,8(sp)
    161c:	00112e23          	sw	ra,28(sp)
    1620:	00812c23          	sw	s0,24(sp)
    1624:	000015b7          	lui	a1,0x1
    1628:	02079023          	sh	zero,32(a5)
    162c:	040006b7          	lui	a3,0x4000
    1630:	b2058593          	addi	a1,a1,-1248 # b20 <__heap_size+0x320>
    1634:	02b69423          	sh	a1,40(a3) # 4000028 <_stack_end+0x3ef5ac8>
    1638:	04000737          	lui	a4,0x4000
    163c:	02000693          	li	a3,32
    1640:	000039b7          	lui	s3,0x3
    1644:	00003937          	lui	s2,0x3
    1648:	02d71623          	sh	a3,44(a4) # 400002c <_stack_end+0x3ef5acc>
    164c:	000037b7          	lui	a5,0x3
    1650:	00167713          	andi	a4,a2,1
    1654:	f749aa03          	lw	s4,-140(s3) # 2f74 <game_board>
    1658:	f7c7a483          	lw	s1,-132(a5) # 2f7c <player_button>
    165c:	f7092583          	lw	a1,-144(s2) # 2f70 <snake_head>
    1660:	0c071463          	bnez	a4,1728 <handle_interrupt+0x134>
    1664:	01f4d713          	srli	a4,s1,0x1f
    1668:	00e487b3          	add	a5,s1,a4
    166c:	0017f793          	andi	a5,a5,1
    1670:	fff78793          	addi	a5,a5,-1
    1674:	0ae78e63          	beq	a5,a4,1730 <handle_interrupt+0x13c>
    1678:	000a0513          	mv	a0,s4
    167c:	7b4000ef          	jal	1e30 <getCellInDirection>
    1680:	00050413          	mv	s0,a0
    1684:	00042783          	lw	a5,0(s0)
    1688:	0cf05263          	blez	a5,174c <handle_interrupt+0x158>
    168c:	00400713          	li	a4,4
    1690:	04f74063          	blt	a4,a5,16d0 <handle_interrupt+0xdc>
    1694:	04000737          	lui	a4,0x4000
    1698:	02475783          	lhu	a5,36(a4) # 4000024 <_stack_end+0x3ef5ac4>
    169c:	01079793          	slli	a5,a5,0x10
    16a0:	4107d793          	srai	a5,a5,0x10
    16a4:	0087e793          	ori	a5,a5,8
    16a8:	02f71223          	sh	a5,36(a4)
    16ac:	01c12083          	lw	ra,28(sp)
    16b0:	01812403          	lw	s0,24(sp)
    16b4:	01412483          	lw	s1,20(sp)
    16b8:	01012903          	lw	s2,16(sp)
    16bc:	00c12983          	lw	s3,12(sp)
    16c0:	00812a03          	lw	s4,8(sp)
    16c4:	00412a83          	lw	s5,4(sp)
    16c8:	02010113          	addi	sp,sp,32
    16cc:	00008067          	ret
    16d0:	000034b7          	lui	s1,0x3
    16d4:	f784a783          	lw	a5,-136(s1) # 2f78 <currentGameScore>
    16d8:	000a0513          	mv	a0,s4
    16dc:	00178793          	addi	a5,a5,1
    16e0:	f6f4ac23          	sw	a5,-136(s1)
    16e4:	640000ef          	jal	1d24 <newApple>
    16e8:	f7092503          	lw	a0,-144(s2)
    16ec:	00040593          	mv	a1,s0
    16f0:	618000ef          	jal	1d08 <moveHead>
    16f4:	00050793          	mv	a5,a0
    16f8:	f784a503          	lw	a0,-136(s1)
    16fc:	f6f92823          	sw	a5,-144(s2)
    1700:	d8dff0ef          	jal	148c <drawScore>
    1704:	f749a503          	lw	a0,-140(s3)
    1708:	b35fe0ef          	jal	23c <drawBoard>
    170c:	04000737          	lui	a4,0x4000
    1710:	02475783          	lhu	a5,36(a4) # 4000024 <_stack_end+0x3ef5ac4>
    1714:	01079793          	slli	a5,a5,0x10
    1718:	4107d793          	srai	a5,a5,0x10
    171c:	0047e793          	ori	a5,a5,4
    1720:	02f71223          	sh	a5,36(a4)
    1724:	f89ff06f          	j	16ac <handle_interrupt+0xb8>
    1728:	0014f793          	andi	a5,s1,1
    172c:	f40796e3          	bnez	a5,1678 <handle_interrupt+0x84>
    1730:	00048613          	mv	a2,s1
    1734:	000a0513          	mv	a0,s4
    1738:	6f8000ef          	jal	1e30 <getCellInDirection>
    173c:	00050413          	mv	s0,a0
    1740:	00042783          	lw	a5,0(s0)
    1744:	f29aa023          	sw	s1,-224(s5)
    1748:	f4f042e3          	bgtz	a5,168c <handle_interrupt+0x98>
    174c:	000034b7          	lui	s1,0x3
    1750:	f6c4a503          	lw	a0,-148(s1) # 2f6c <snake_end>
    1754:	598000ef          	jal	1cec <moveEnd>
    1758:	f6a4a623          	sw	a0,-148(s1)
    175c:	000034b7          	lui	s1,0x3
    1760:	f89ff06f          	j	16e8 <handle_interrupt+0xf4>

00001764 <runGame>:
    1764:	fffff2b7          	lui	t0,0xfffff
    1768:	81010113          	addi	sp,sp,-2032
    176c:	00002637          	lui	a2,0x2
    1770:	ea028293          	addi	t0,t0,-352 # ffffeea0 <_stack_end+0xffef4940>
    1774:	7f212023          	sw	s2,2016(sp)
    1778:	7d412c23          	sw	s4,2008(sp)
    177c:	7e112623          	sw	ra,2028(sp)
    1780:	7e812423          	sw	s0,2024(sp)
    1784:	7e912223          	sw	s1,2020(sp)
    1788:	7d312e23          	sw	s3,2012(sp)
    178c:	ffffe737          	lui	a4,0xffffe
    1790:	00510133          	add	sp,sp,t0
    1794:	92060693          	addi	a3,a2,-1760 # 1920 <runGame+0x1bc>
    1798:	00e686b3          	add	a3,a3,a4
    179c:	01010713          	addi	a4,sp,16
    17a0:	00e68733          	add	a4,a3,a4
    17a4:	00e12423          	sw	a4,8(sp)
    17a8:	00812683          	lw	a3,8(sp)
    17ac:	01400713          	li	a4,20
    17b0:	ffffe7b7          	lui	a5,0xffffe
    17b4:	6e078793          	addi	a5,a5,1760 # ffffe6e0 <_stack_end+0xffef4180>
    17b8:	6ee6ac23          	sw	a4,1784(a3)
    17bc:	6ee6ae23          	sw	a4,1788(a3)
    17c0:	92060713          	addi	a4,a2,-1760
    17c4:	00f70733          	add	a4,a4,a5
    17c8:	01010793          	addi	a5,sp,16
    17cc:	00003a37          	lui	s4,0x3
    17d0:	00f707b3          	add	a5,a4,a5
    17d4:	f60a2423          	sw	zero,-152(s4) # 2f68 <end_game>
    17d8:	00000913          	li	s2,0
    17dc:	00f12623          	sw	a5,12(sp)
    17e0:	00291993          	slli	s3,s2,0x2
    17e4:	012989b3          	add	s3,s3,s2
    17e8:	00000493          	li	s1,0
    17ec:	00299993          	slli	s3,s3,0x2
    17f0:	00812783          	lw	a5,8(sp)
    17f4:	00c12503          	lw	a0,12(sp)
    17f8:	00998433          	add	s0,s3,s1
    17fc:	00048693          	mv	a3,s1
    1800:	00090613          	mv	a2,s2
    1804:	00000593          	li	a1,0
    1808:	00441413          	slli	s0,s0,0x4
    180c:	00878433          	add	s0,a5,s0
    1810:	448000ef          	jal	1c58 <newCell>
    1814:	00812783          	lw	a5,8(sp)
    1818:	00148493          	addi	s1,s1,1 # 3001 <letter_images+0x49>
    181c:	6e07a583          	lw	a1,1760(a5)
    1820:	6e47a603          	lw	a2,1764(a5)
    1824:	6e87a683          	lw	a3,1768(a5)
    1828:	6ec7a703          	lw	a4,1772(a5)
    182c:	6fc7a783          	lw	a5,1788(a5)
    1830:	70b42023          	sw	a1,1792(s0)
    1834:	70c42223          	sw	a2,1796(s0)
    1838:	70d42423          	sw	a3,1800(s0)
    183c:	70e42623          	sw	a4,1804(s0)
    1840:	faf4c8e3          	blt	s1,a5,17f0 <runGame+0x8c>
    1844:	00812703          	lw	a4,8(sp)
    1848:	00190913          	addi	s2,s2,1
    184c:	6f872703          	lw	a4,1784(a4) # ffffe6f8 <_stack_end+0xffef4198>
    1850:	00e95463          	bge	s2,a4,1858 <runGame+0xf4>
    1854:	f8f046e3          	bgtz	a5,17e0 <runGame+0x7c>
    1858:	00002737          	lui	a4,0x2
    185c:	ffffe7b7          	lui	a5,0xffffe
    1860:	92070693          	addi	a3,a4,-1760 # 1920 <runGame+0x1bc>
    1864:	6f878793          	addi	a5,a5,1784 # ffffe6f8 <_stack_end+0xffef4198>
    1868:	00f686b3          	add	a3,a3,a5
    186c:	01010793          	addi	a5,sp,16
    1870:	00f687b3          	add	a5,a3,a5
    1874:	ffffe637          	lui	a2,0xffffe
    1878:	00f12423          	sw	a5,8(sp)
    187c:	6f460613          	addi	a2,a2,1780 # ffffe6f4 <_stack_end+0xffef4194>
    1880:	92070793          	addi	a5,a4,-1760
    1884:	01010693          	addi	a3,sp,16
    1888:	00c787b3          	add	a5,a5,a2
    188c:	ffffe5b7          	lui	a1,0xffffe
    1890:	00d78633          	add	a2,a5,a3
    1894:	00812503          	lw	a0,8(sp)
    1898:	92070793          	addi	a5,a4,-1760
    189c:	6f058593          	addi	a1,a1,1776 # ffffe6f0 <_stack_end+0xffef4190>
    18a0:	00b787b3          	add	a5,a5,a1
    18a4:	00d785b3          	add	a1,a5,a3
    18a8:	00070413          	mv	s0,a4
    18ac:	648000ef          	jal	1ef4 <game_init>
    18b0:	ffffe7b7          	lui	a5,0xffffe
    18b4:	92040713          	addi	a4,s0,-1760
    18b8:	00f70733          	add	a4,a4,a5
    18bc:	01010793          	addi	a5,sp,16
    18c0:	00f707b3          	add	a5,a4,a5
    18c4:	00812603          	lw	a2,8(sp)
    18c8:	6f07a683          	lw	a3,1776(a5) # ffffe6f0 <_stack_end+0xffef4190>
    18cc:	6f47a703          	lw	a4,1780(a5)
    18d0:	00f12623          	sw	a5,12(sp)
    18d4:	000037b7          	lui	a5,0x3
    18d8:	f6c7aa23          	sw	a2,-140(a5) # 2f74 <game_board>
    18dc:	000037b7          	lui	a5,0x3
    18e0:	f6d7a823          	sw	a3,-144(a5) # 2f70 <snake_head>
    18e4:	000037b7          	lui	a5,0x3
    18e8:	f6e7a623          	sw	a4,-148(a5) # 2f6c <snake_end>
    18ec:	455000ef          	jal	2540 <timerInterruptInit>
    18f0:	f68a2783          	lw	a5,-152(s4)
    18f4:	04000737          	lui	a4,0x4000
    18f8:	08079a63          	bnez	a5,198c <runGame+0x228>
    18fc:	0000a6b7          	lui	a3,0xa
    1900:	3d468693          	addi	a3,a3,980 # a3d4 <__global_pointer+0x6cb4>
    1904:	0e070713          	addi	a4,a4,224 # 40000e0 <_stack_end+0x3ef5b80>
    1908:	00003637          	lui	a2,0x3
    190c:	00100893          	li	a7,1
    1910:	00200813          	li	a6,2
    1914:	00300513          	li	a0,3
    1918:	00400593          	li	a1,4
    191c:	00072783          	lw	a5,0(a4)
    1920:	00f7f793          	andi	a5,a5,15
    1924:	00279793          	slli	a5,a5,0x2
    1928:	00f687b3          	add	a5,a3,a5
    192c:	0007a783          	lw	a5,0(a5)
    1930:	00078067          	jr	a5
    1934:	00100793          	li	a5,1
    1938:	f6fa2423          	sw	a5,-152(s4)
    193c:	000012b7          	lui	t0,0x1
    1940:	16028293          	addi	t0,t0,352 # 1160 <__heap_size+0x960>
    1944:	00510133          	add	sp,sp,t0
    1948:	7ec12083          	lw	ra,2028(sp)
    194c:	7e812403          	lw	s0,2024(sp)
    1950:	7e412483          	lw	s1,2020(sp)
    1954:	7e012903          	lw	s2,2016(sp)
    1958:	7dc12983          	lw	s3,2012(sp)
    195c:	7d812a03          	lw	s4,2008(sp)
    1960:	00000513          	li	a0,0
    1964:	7f010113          	addi	sp,sp,2032
    1968:	00008067          	ret
    196c:	f6b62e23          	sw	a1,-132(a2) # 2f7c <player_button>
    1970:	fadff06f          	j	191c <runGame+0x1b8>
    1974:	f6a62e23          	sw	a0,-132(a2)
    1978:	fa5ff06f          	j	191c <runGame+0x1b8>
    197c:	f7062e23          	sw	a6,-132(a2)
    1980:	f9dff06f          	j	191c <runGame+0x1b8>
    1984:	f7162e23          	sw	a7,-132(a2)
    1988:	f95ff06f          	j	191c <runGame+0x1b8>
    198c:	0e072783          	lw	a5,224(a4)
    1990:	00e00693          	li	a3,14
    1994:	00f7f793          	andi	a5,a5,15
    1998:	fff78793          	addi	a5,a5,-1
    199c:	faf6e0e3          	bltu	a3,a5,193c <runGame+0x1d8>
    19a0:	0000a737          	lui	a4,0xa
    19a4:	00279793          	slli	a5,a5,0x2
    19a8:	41470713          	addi	a4,a4,1044 # a414 <__global_pointer+0x6cf4>
    19ac:	00e787b3          	add	a5,a5,a4
    19b0:	0007a783          	lw	a5,0(a5)
    19b4:	00078067          	jr	a5
    19b8:	000037b7          	lui	a5,0x3
    19bc:	00100713          	li	a4,1
    19c0:	f6e7ae23          	sw	a4,-132(a5) # 2f7c <player_button>
    19c4:	f79ff06f          	j	193c <runGame+0x1d8>
    19c8:	000037b7          	lui	a5,0x3
    19cc:	00400713          	li	a4,4
    19d0:	f6e7ae23          	sw	a4,-132(a5) # 2f7c <player_button>
    19d4:	f69ff06f          	j	193c <runGame+0x1d8>
    19d8:	000037b7          	lui	a5,0x3
    19dc:	00300713          	li	a4,3
    19e0:	f6e7ae23          	sw	a4,-132(a5) # 2f7c <player_button>
    19e4:	f59ff06f          	j	193c <runGame+0x1d8>
    19e8:	000037b7          	lui	a5,0x3
    19ec:	00200713          	li	a4,2
    19f0:	f6e7ae23          	sw	a4,-132(a5) # 2f7c <player_button>
    19f4:	f49ff06f          	j	193c <runGame+0x1d8>

000019f8 <getLetterFromArray>:
    19f8:	fcf50513          	addi	a0,a0,-49
    19fc:	0ff57513          	zext.b	a0,a0
    1a00:	01200793          	li	a5,18
    1a04:	02a7e663          	bltu	a5,a0,1a30 <getLetterFromArray+0x38>
    1a08:	0000a7b7          	lui	a5,0xa
    1a0c:	45078793          	addi	a5,a5,1104 # a450 <__global_pointer+0x6d30>
    1a10:	00251513          	slli	a0,a0,0x2
    1a14:	00f50533          	add	a0,a0,a5
    1a18:	00052783          	lw	a5,0(a0)
    1a1c:	00078067          	jr	a5
    1a20:	59400793          	li	a5,1428
    1a24:	00f5a023          	sw	a5,0(a1)
    1a28:	6ba00793          	li	a5,1722
    1a2c:	00f62023          	sw	a5,0(a2)
    1a30:	00008067          	ret
    1a34:	0005a023          	sw	zero,0(a1)
    1a38:	11100793          	li	a5,273
    1a3c:	00f62023          	sw	a5,0(a2)
    1a40:	00008067          	ret
    1a44:	11100793          	li	a5,273
    1a48:	00f5a023          	sw	a5,0(a1)
    1a4c:	22200793          	li	a5,546
    1a50:	00f62023          	sw	a5,0(a2)
    1a54:	00008067          	ret
    1a58:	22200793          	li	a5,546
    1a5c:	00f5a023          	sw	a5,0(a1)
    1a60:	31e00793          	li	a5,798
    1a64:	00f62023          	sw	a5,0(a2)
    1a68:	00008067          	ret
    1a6c:	31e00793          	li	a5,798
    1a70:	00f5a023          	sw	a5,0(a1)
    1a74:	48300793          	li	a5,1155
    1a78:	00f62023          	sw	a5,0(a2)
    1a7c:	00008067          	ret
    1a80:	48300793          	li	a5,1155
    1a84:	00f5a023          	sw	a5,0(a1)
    1a88:	59400793          	li	a5,1428
    1a8c:	00f62023          	sw	a5,0(a2)
    1a90:	00008067          	ret

00001a94 <makeMenu>:
    1a94:	fd010113          	addi	sp,sp,-48
    1a98:	01612823          	sw	s6,16(sp)
    1a9c:	00003b37          	lui	s6,0x3
    1aa0:	f28b0b13          	addi	s6,s6,-216 # 2f28 <players>
    1aa4:	03cb2703          	lw	a4,60(s6)
    1aa8:	000037b7          	lui	a5,0x3
    1aac:	f787a683          	lw	a3,-136(a5) # 2f78 <currentGameScore>
    1ab0:	00171793          	slli	a5,a4,0x1
    1ab4:	00e787b3          	add	a5,a5,a4
    1ab8:	00279793          	slli	a5,a5,0x2
    1abc:	02812423          	sw	s0,40(sp)
    1ac0:	02912223          	sw	s1,36(sp)
    1ac4:	03212023          	sw	s2,32(sp)
    1ac8:	01312e23          	sw	s3,28(sp)
    1acc:	01412c23          	sw	s4,24(sp)
    1ad0:	01512a23          	sw	s5,20(sp)
    1ad4:	01712623          	sw	s7,12(sp)
    1ad8:	01812423          	sw	s8,8(sp)
    1adc:	01912223          	sw	s9,4(sp)
    1ae0:	02112623          	sw	ra,44(sp)
    1ae4:	00fb0b33          	add	s6,s6,a5
    1ae8:	04000c37          	lui	s8,0x4000
    1aec:	04000437          	lui	s0,0x4000
    1af0:	0000aab7          	lui	s5,0xa
    1af4:	00db2423          	sw	a3,8(s6)
    1af8:	00000913          	li	s2,0
    1afc:	05000a13          	li	s4,80
    1b00:	00000993          	li	s3,0
    1b04:	4d0a8a93          	addi	s5,s5,1232 # a4d0 <availableLetters>
    1b08:	00003cb7          	lui	s9,0x3
    1b0c:	0e0c0c13          	addi	s8,s8,224 # 40000e0 <_stack_end+0x3ef5b80>
    1b10:	02040413          	addi	s0,s0,32 # 4000020 <_stack_end+0x3ef5ac0>
    1b14:	00400493          	li	s1,4
    1b18:	00800b93          	li	s7,8
    1b1c:	000c2783          	lw	a5,0(s8)
    1b20:	00045703          	lhu	a4,0(s0)
    1b24:	00f7f793          	andi	a5,a5,15
    1b28:	f6fcae23          	sw	a5,-132(s9) # 2f7c <player_button>
    1b2c:	00177713          	andi	a4,a4,1
    1b30:	fe0706e3          	beqz	a4,1b1c <makeMenu+0x88>
    1b34:	08978e63          	beq	a5,s1,1bd0 <makeMenu+0x13c>
    1b38:	02f4ca63          	blt	s1,a5,1b6c <makeMenu+0xd8>
    1b3c:	00100713          	li	a4,1
    1b40:	04e78663          	beq	a5,a4,1b8c <makeMenu+0xf8>
    1b44:	00200713          	li	a4,2
    1b48:	00e79e63          	bne	a5,a4,1b64 <makeMenu+0xd0>
    1b4c:	0b500793          	li	a5,181
    1b50:	0147c463          	blt	a5,s4,1b58 <makeMenu+0xc4>
    1b54:	014a0a13          	addi	s4,s4,20
    1b58:	00190913          	addi	s2,s2,1
    1b5c:	00600793          	li	a5,6
    1b60:	02f96933          	rem	s2,s2,a5
    1b64:	245000ef          	jal	25a8 <runTimer>
    1b68:	fb5ff06f          	j	1b1c <makeMenu+0x88>
    1b6c:	ff779ce3          	bne	a5,s7,1b64 <makeMenu+0xd0>
    1b70:	03b00793          	li	a5,59
    1b74:	0147d463          	bge	a5,s4,1b7c <makeMenu+0xe8>
    1b78:	feca0a13          	addi	s4,s4,-20
    1b7c:	fff90913          	addi	s2,s2,-1
    1b80:	00600793          	li	a5,6
    1b84:	02f96933          	rem	s2,s2,a5
    1b88:	fddff06f          	j	1b64 <makeMenu+0xd0>
    1b8c:	013a87b3          	add	a5,s5,s3
    1b90:	0007c503          	lbu	a0,0(a5)
    1b94:	00100693          	li	a3,1
    1b98:	07800613          	li	a2,120
    1b9c:	000a0593          	mv	a1,s4
    1ba0:	97dfe0ef          	jal	51c <drawLetter>
    1ba4:	07305263          	blez	s3,1c08 <makeMenu+0x174>
    1ba8:	fff98993          	addi	s3,s3,-1
    1bac:	013a87b3          	add	a5,s5,s3
    1bb0:	0007c503          	lbu	a0,0(a5)
    1bb4:	012b07b3          	add	a5,s6,s2
    1bb8:	00000693          	li	a3,0
    1bbc:	07800613          	li	a2,120
    1bc0:	000a0593          	mv	a1,s4
    1bc4:	00a78023          	sb	a0,0(a5)
    1bc8:	955fe0ef          	jal	51c <drawLetter>
    1bcc:	f99ff06f          	j	1b64 <makeMenu+0xd0>
    1bd0:	013a87b3          	add	a5,s5,s3
    1bd4:	0007c503          	lbu	a0,0(a5)
    1bd8:	00100693          	li	a3,1
    1bdc:	07800613          	li	a2,120
    1be0:	000a0593          	mv	a1,s4
    1be4:	939fe0ef          	jal	51c <drawLetter>
    1be8:	0134ca63          	blt	s1,s3,1bfc <makeMenu+0x168>
    1bec:	00198993          	addi	s3,s3,1
    1bf0:	013a87b3          	add	a5,s5,s3
    1bf4:	0007c503          	lbu	a0,0(a5)
    1bf8:	fbdff06f          	j	1bb4 <makeMenu+0x120>
    1bfc:	04100513          	li	a0,65
    1c00:	00000993          	li	s3,0
    1c04:	fb1ff06f          	j	1bb4 <makeMenu+0x120>
    1c08:	03300513          	li	a0,51
    1c0c:	00500993          	li	s3,5
    1c10:	fa5ff06f          	j	1bb4 <makeMenu+0x120>

00001c14 <runHighscoreLetters>:
    1c14:	ff010113          	addi	sp,sp,-16
    1c18:	00112623          	sw	ra,12(sp)
    1c1c:	1dd000ef          	jal	25f8 <resetTimer>
    1c20:	189000ef          	jal	25a8 <runTimer>
    1c24:	e71ff0ef          	jal	1a94 <makeMenu>

00001c28 <pseudoRandom>:
    1c28:	000036b7          	lui	a3,0x3
    1c2c:	f246a783          	lw	a5,-220(a3) # 2f24 <seed>
    1c30:	0001e737          	lui	a4,0x1e
    1c34:	24070713          	addi	a4,a4,576 # 1e240 <availableLetters+0x13d70>
    1c38:	02e787b3          	mul	a5,a5,a4
    1c3c:	00179513          	slli	a0,a5,0x1
    1c40:	f2f6a223          	sw	a5,-220(a3)
    1c44:	01155513          	srli	a0,a0,0x11
    1c48:	00008067          	ret

00001c4c <newPos>:
    1c4c:	ff010113          	addi	sp,sp,-16
    1c50:	01010113          	addi	sp,sp,16
    1c54:	00008067          	ret

00001c58 <newCell>:
    1c58:	00b52023          	sw	a1,0(a0)
    1c5c:	00c52223          	sw	a2,4(a0)
    1c60:	00d52423          	sw	a3,8(a0)
    1c64:	00052623          	sw	zero,12(a0)
    1c68:	00008067          	ret

00001c6c <makeWalls>:
    1c6c:	00452583          	lw	a1,4(a0)
    1c70:	00052803          	lw	a6,0(a0)
    1c74:	00850793          	addi	a5,a0,8
    1c78:	fff58893          	addi	a7,a1,-1
    1c7c:	00489893          	slli	a7,a7,0x4
    1c80:	00000713          	li	a4,0
    1c84:	00100693          	li	a3,1
    1c88:	01005e63          	blez	a6,1ca4 <makeWalls+0x38>
    1c8c:	00d7a023          	sw	a3,0(a5)
    1c90:	01178633          	add	a2,a5,a7
    1c94:	00d62023          	sw	a3,0(a2)
    1c98:	00170713          	addi	a4,a4,1
    1c9c:	14078793          	addi	a5,a5,320
    1ca0:	ff0716e3          	bne	a4,a6,1c8c <makeWalls+0x20>
    1ca4:	00200793          	li	a5,2
    1ca8:	04b7d063          	bge	a5,a1,1ce8 <makeWalls+0x7c>
    1cac:	fff80813          	addi	a6,a6,-1
    1cb0:	00281613          	slli	a2,a6,0x2
    1cb4:	ff850793          	addi	a5,a0,-8
    1cb8:	00459693          	slli	a3,a1,0x4
    1cbc:	01060633          	add	a2,a2,a6
    1cc0:	00f686b3          	add	a3,a3,a5
    1cc4:	01850513          	addi	a0,a0,24
    1cc8:	00661613          	slli	a2,a2,0x6
    1ccc:	00100793          	li	a5,1
    1cd0:	00f52023          	sw	a5,0(a0)
    1cd4:	00c50733          	add	a4,a0,a2
    1cd8:	00f72023          	sw	a5,0(a4)
    1cdc:	01050513          	addi	a0,a0,16
    1ce0:	fed518e3          	bne	a0,a3,1cd0 <makeWalls+0x64>
    1ce4:	00008067          	ret
    1ce8:	00008067          	ret

00001cec <moveEnd>:
    1cec:	00050793          	mv	a5,a0
    1cf0:	00c52503          	lw	a0,12(a0)
    1cf4:	00400713          	li	a4,4
    1cf8:	0007a023          	sw	zero,0(a5)
    1cfc:	00e52023          	sw	a4,0(a0)
    1d00:	0007a623          	sw	zero,12(a5)
    1d04:	00008067          	ret

00001d08 <moveHead>:
    1d08:	00300793          	li	a5,3
    1d0c:	00f52023          	sw	a5,0(a0)
    1d10:	00b52623          	sw	a1,12(a0)
    1d14:	00200793          	li	a5,2
    1d18:	00f5a023          	sw	a5,0(a1)
    1d1c:	00058513          	mv	a0,a1
    1d20:	00008067          	ret

00001d24 <newApple>:
    1d24:	ff010113          	addi	sp,sp,-16
    1d28:	00812623          	sw	s0,12(sp)
    1d2c:	01010413          	addi	s0,sp,16
    1d30:	00052e03          	lw	t3,0(a0)
    1d34:	00452e83          	lw	t4,4(a0)
    1d38:	00200713          	li	a4,2
    1d3c:	ffee0793          	addi	a5,t3,-2
    1d40:	ffee8693          	addi	a3,t4,-2
    1d44:	02d787b3          	mul	a5,a5,a3
    1d48:	00279793          	slli	a5,a5,0x2
    1d4c:	00f78793          	addi	a5,a5,15
    1d50:	ff07f793          	andi	a5,a5,-16
    1d54:	40f10133          	sub	sp,sp,a5
    1d58:	00010813          	mv	a6,sp
    1d5c:	0dc75663          	bge	a4,t3,1e28 <newApple+0x104>
    1d60:	014e8593          	addi	a1,t4,20
    1d64:	41d00333          	neg	t1,t4
    1d68:	00459593          	slli	a1,a1,0x4
    1d6c:	ffc50793          	addi	a5,a0,-4
    1d70:	00431313          	slli	t1,t1,0x4
    1d74:	00f585b3          	add	a1,a1,a5
    1d78:	fffe0e13          	addi	t3,t3,-1
    1d7c:	00100893          	li	a7,1
    1d80:	00000693          	li	a3,0
    1d84:	00200f13          	li	t5,2
    1d88:	02030313          	addi	t1,t1,32
    1d8c:	00b307b3          	add	a5,t1,a1
    1d90:	03df5263          	bge	t5,t4,1db4 <newApple+0x90>
    1d94:	ffc7a603          	lw	a2,-4(a5)
    1d98:	00269713          	slli	a4,a3,0x2
    1d9c:	00e80733          	add	a4,a6,a4
    1da0:	00061663          	bnez	a2,1dac <newApple+0x88>
    1da4:	00f72023          	sw	a5,0(a4)
    1da8:	00168693          	addi	a3,a3,1
    1dac:	01078793          	addi	a5,a5,16
    1db0:	fef592e3          	bne	a1,a5,1d94 <newApple+0x70>
    1db4:	00188893          	addi	a7,a7,1
    1db8:	14058593          	addi	a1,a1,320
    1dbc:	fd1e18e3          	bne	t3,a7,1d8c <newApple+0x68>
    1dc0:	00003637          	lui	a2,0x3
    1dc4:	f2462703          	lw	a4,-220(a2) # 2f24 <seed>
    1dc8:	0001e7b7          	lui	a5,0x1e
    1dcc:	24078793          	addi	a5,a5,576 # 1e240 <availableLetters+0x13d70>
    1dd0:	02f70733          	mul	a4,a4,a5
    1dd4:	00171793          	slli	a5,a4,0x1
    1dd8:	0117d793          	srli	a5,a5,0x11
    1ddc:	02d7f7b3          	remu	a5,a5,a3
    1de0:	f2e62223          	sw	a4,-220(a2)
    1de4:	00279793          	slli	a5,a5,0x2
    1de8:	00f80833          	add	a6,a6,a5
    1dec:	00082783          	lw	a5,0(a6)
    1df0:	0007a703          	lw	a4,0(a5)
    1df4:	0047a683          	lw	a3,4(a5)
    1df8:	00271793          	slli	a5,a4,0x2
    1dfc:	00e787b3          	add	a5,a5,a4
    1e00:	00279793          	slli	a5,a5,0x2
    1e04:	00d787b3          	add	a5,a5,a3
    1e08:	00479793          	slli	a5,a5,0x4
    1e0c:	00f50533          	add	a0,a0,a5
    1e10:	00500793          	li	a5,5
    1e14:	00f52423          	sw	a5,8(a0)
    1e18:	ff040113          	addi	sp,s0,-16
    1e1c:	00c12403          	lw	s0,12(sp)
    1e20:	01010113          	addi	sp,sp,16
    1e24:	00008067          	ret
    1e28:	00000693          	li	a3,0
    1e2c:	f95ff06f          	j	1dc0 <newApple+0x9c>

00001e30 <getCellInDirection>:
    1e30:	00400713          	li	a4,4
    1e34:	0045a783          	lw	a5,4(a1)
    1e38:	0085a683          	lw	a3,8(a1)
    1e3c:	06e60863          	beq	a2,a4,1eac <getCellInDirection+0x7c>
    1e40:	02c74c63          	blt	a4,a2,1e78 <getCellInDirection+0x48>
    1e44:	00100713          	li	a4,1
    1e48:	08e60463          	beq	a2,a4,1ed0 <getCellInDirection+0xa0>
    1e4c:	00200713          	li	a4,2
    1e50:	04e61a63          	bne	a2,a4,1ea4 <getCellInDirection+0x74>
    1e54:	00279713          	slli	a4,a5,0x2
    1e58:	00f707b3          	add	a5,a4,a5
    1e5c:	00168693          	addi	a3,a3,1
    1e60:	00279793          	slli	a5,a5,0x2
    1e64:	00d787b3          	add	a5,a5,a3
    1e68:	00479793          	slli	a5,a5,0x4
    1e6c:	00878793          	addi	a5,a5,8
    1e70:	00f50533          	add	a0,a0,a5
    1e74:	00008067          	ret
    1e78:	00800713          	li	a4,8
    1e7c:	02e61463          	bne	a2,a4,1ea4 <getCellInDirection+0x74>
    1e80:	00279713          	slli	a4,a5,0x2
    1e84:	00f707b3          	add	a5,a4,a5
    1e88:	fff68693          	addi	a3,a3,-1
    1e8c:	00279793          	slli	a5,a5,0x2
    1e90:	00d787b3          	add	a5,a5,a3
    1e94:	00479793          	slli	a5,a5,0x4
    1e98:	00878793          	addi	a5,a5,8
    1e9c:	00f50533          	add	a0,a0,a5
    1ea0:	00008067          	ret
    1ea4:	00000513          	li	a0,0
    1ea8:	00008067          	ret
    1eac:	00178793          	addi	a5,a5,1
    1eb0:	00279713          	slli	a4,a5,0x2
    1eb4:	00f707b3          	add	a5,a4,a5
    1eb8:	00279793          	slli	a5,a5,0x2
    1ebc:	00d787b3          	add	a5,a5,a3
    1ec0:	00479793          	slli	a5,a5,0x4
    1ec4:	00878793          	addi	a5,a5,8
    1ec8:	00f50533          	add	a0,a0,a5
    1ecc:	00008067          	ret
    1ed0:	fff78793          	addi	a5,a5,-1
    1ed4:	00279713          	slli	a4,a5,0x2
    1ed8:	00f707b3          	add	a5,a4,a5
    1edc:	00279793          	slli	a5,a5,0x2
    1ee0:	00d787b3          	add	a5,a5,a3
    1ee4:	00479793          	slli	a5,a5,0x4
    1ee8:	00878793          	addi	a5,a5,8
    1eec:	00f50533          	add	a0,a0,a5
    1ef0:	00008067          	ret

00001ef4 <game_init>:
    1ef4:	00052883          	lw	a7,0(a0)
    1ef8:	00300813          	li	a6,3
    1efc:	00452e03          	lw	t3,4(a0)
    1f00:	0308c333          	div	t1,a7,a6
    1f04:	00189393          	slli	t2,a7,0x1
    1f08:	01fe5f13          	srli	t5,t3,0x1f
    1f0c:	01cf0f33          	add	t5,t5,t3
    1f10:	401f5f13          	srai	t5,t5,0x1
    1f14:	ff010113          	addi	sp,sp,-16
    1f18:	00812623          	sw	s0,12(sp)
    1f1c:	000037b7          	lui	a5,0x3
    1f20:	f607ac23          	sw	zero,-136(a5) # 2f78 <currentGameScore>
    1f24:	0303c3b3          	div	t2,t2,a6
    1f28:	00231813          	slli	a6,t1,0x2
    1f2c:	00680833          	add	a6,a6,t1
    1f30:	00281813          	slli	a6,a6,0x2
    1f34:	01e802b3          	add	t0,a6,t5
    1f38:	00429293          	slli	t0,t0,0x4
    1f3c:	fec80813          	addi	a6,a6,-20
    1f40:	00828413          	addi	s0,t0,8
    1f44:	01e80833          	add	a6,a6,t5
    1f48:	fff30f93          	addi	t6,t1,-1
    1f4c:	00481813          	slli	a6,a6,0x4
    1f50:	00850333          	add	t1,a0,s0
    1f54:	0065a023          	sw	t1,0(a1)
    1f58:	005502b3          	add	t0,a0,t0
    1f5c:	00880813          	addi	a6,a6,8
    1f60:	002f9313          	slli	t1,t6,0x2
    1f64:	00200413          	li	s0,2
    1f68:	0082a423          	sw	s0,8(t0)
    1f6c:	01050833          	add	a6,a0,a6
    1f70:	01f30333          	add	t1,t1,t6
    1f74:	01062023          	sw	a6,0(a2)
    1f78:	00231613          	slli	a2,t1,0x2
    1f7c:	0005a583          	lw	a1,0(a1)
    1f80:	01e60633          	add	a2,a2,t5
    1f84:	00461613          	slli	a2,a2,0x4
    1f88:	00c50633          	add	a2,a0,a2
    1f8c:	00400813          	li	a6,4
    1f90:	01062423          	sw	a6,8(a2)
    1f94:	00b62a23          	sw	a1,20(a2)
    1f98:	00500593          	li	a1,5
    1f9c:	00239613          	slli	a2,t2,0x2
    1fa0:	00760633          	add	a2,a2,t2
    1fa4:	00261613          	slli	a2,a2,0x2
    1fa8:	01e60633          	add	a2,a2,t5
    1fac:	00461613          	slli	a2,a2,0x4
    1fb0:	00c50633          	add	a2,a0,a2
    1fb4:	00b62423          	sw	a1,8(a2)
    1fb8:	03105863          	blez	a7,1fe8 <game_init+0xf4>
    1fbc:	fffe0e93          	addi	t4,t3,-1
    1fc0:	00850793          	addi	a5,a0,8
    1fc4:	004e9e93          	slli	t4,t4,0x4
    1fc8:	00000713          	li	a4,0
    1fcc:	00100693          	li	a3,1
    1fd0:	00d7a023          	sw	a3,0(a5)
    1fd4:	01d78633          	add	a2,a5,t4
    1fd8:	00d62023          	sw	a3,0(a2)
    1fdc:	00170713          	addi	a4,a4,1
    1fe0:	14078793          	addi	a5,a5,320
    1fe4:	fee896e3          	bne	a7,a4,1fd0 <game_init+0xdc>
    1fe8:	00200793          	li	a5,2
    1fec:	03c7de63          	bge	a5,t3,2028 <game_init+0x134>
    1ff0:	fff88893          	addi	a7,a7,-1
    1ff4:	00289693          	slli	a3,a7,0x2
    1ff8:	ff850613          	addi	a2,a0,-8
    1ffc:	004e1e13          	slli	t3,t3,0x4
    2000:	011686b3          	add	a3,a3,a7
    2004:	01850513          	addi	a0,a0,24
    2008:	01c60633          	add	a2,a2,t3
    200c:	00669693          	slli	a3,a3,0x6
    2010:	00100793          	li	a5,1
    2014:	00f52023          	sw	a5,0(a0)
    2018:	00d50733          	add	a4,a0,a3
    201c:	00f72023          	sw	a5,0(a4)
    2020:	01050513          	addi	a0,a0,16
    2024:	fec518e3          	bne	a0,a2,2014 <game_init+0x120>
    2028:	00c12403          	lw	s0,12(sp)
    202c:	01010113          	addi	sp,sp,16
    2030:	00008067          	ret

00002034 <printc>:
    2034:	04000737          	lui	a4,0x4000
    2038:	04470713          	addi	a4,a4,68 # 4000044 <_stack_end+0x3ef5ae4>
    203c:	000106b7          	lui	a3,0x10
    2040:	00072783          	lw	a5,0(a4)
    2044:	fed7eee3          	bltu	a5,a3,2040 <printc+0xc>
    2048:	040007b7          	lui	a5,0x4000
    204c:	04a7a023          	sw	a0,64(a5) # 4000040 <_stack_end+0x3ef5ae0>
    2050:	00008067          	ret

00002054 <print>:
    2054:	00054603          	lbu	a2,0(a0)
    2058:	02060863          	beqz	a2,2088 <print+0x34>
    205c:	04000737          	lui	a4,0x4000
    2060:	040005b7          	lui	a1,0x4000
    2064:	04470713          	addi	a4,a4,68 # 4000044 <_stack_end+0x3ef5ae4>
    2068:	000106b7          	lui	a3,0x10
    206c:	04058593          	addi	a1,a1,64 # 4000040 <_stack_end+0x3ef5ae0>
    2070:	00072783          	lw	a5,0(a4)
    2074:	fed7eee3          	bltu	a5,a3,2070 <print+0x1c>
    2078:	00c5a023          	sw	a2,0(a1)
    207c:	00154603          	lbu	a2,1(a0)
    2080:	00150513          	addi	a0,a0,1
    2084:	fe0616e3          	bnez	a2,2070 <print+0x1c>
    2088:	00008067          	ret

0000208c <print_dec>:
    208c:	3b9ad737          	lui	a4,0x3b9ad
    2090:	040006b7          	lui	a3,0x4000
    2094:	04000337          	lui	t1,0x4000
    2098:	00a00593          	li	a1,10
    209c:	00000793          	li	a5,0
    20a0:	a0070713          	addi	a4,a4,-1536 # 3b9aca00 <_stack_end+0x3b8a24a0>
    20a4:	04468693          	addi	a3,a3,68 # 4000044 <_stack_end+0x3ef5ae4>
    20a8:	00010637          	lui	a2,0x10
    20ac:	04030313          	addi	t1,t1,64 # 4000040 <_stack_end+0x3ef5ae0>
    20b0:	00a00893          	li	a7,10
    20b4:	04e57063          	bgeu	a0,a4,20f4 <print_dec+0x68>
    20b8:	02079e63          	bnez	a5,20f4 <print_dec+0x68>
    20bc:	fff58593          	addi	a1,a1,-1
    20c0:	02e57533          	remu	a0,a0,a4
    20c4:	03175733          	divu	a4,a4,a7
    20c8:	fe0596e3          	bnez	a1,20b4 <print_dec+0x28>
    20cc:	02079263          	bnez	a5,20f0 <print_dec+0x64>
    20d0:	04000737          	lui	a4,0x4000
    20d4:	04470713          	addi	a4,a4,68 # 4000044 <_stack_end+0x3ef5ae4>
    20d8:	000106b7          	lui	a3,0x10
    20dc:	00072783          	lw	a5,0(a4)
    20e0:	fed7eee3          	bltu	a5,a3,20dc <print_dec+0x50>
    20e4:	040007b7          	lui	a5,0x4000
    20e8:	03000713          	li	a4,48
    20ec:	04e7a023          	sw	a4,64(a5) # 4000040 <_stack_end+0x3ef5ae0>
    20f0:	00008067          	ret
    20f4:	02e55833          	divu	a6,a0,a4
    20f8:	03080813          	addi	a6,a6,48
    20fc:	0ff87813          	zext.b	a6,a6
    2100:	0006a783          	lw	a5,0(a3) # 10000 <availableLetters+0x5b30>
    2104:	fec7eee3          	bltu	a5,a2,2100 <print_dec+0x74>
    2108:	01032023          	sw	a6,0(t1)
    210c:	00100793          	li	a5,1
    2110:	fadff06f          	j	20bc <print_dec+0x30>

00002114 <print_hex32>:
    2114:	04000737          	lui	a4,0x4000
    2118:	04470713          	addi	a4,a4,68 # 4000044 <_stack_end+0x3ef5ae4>
    211c:	000106b7          	lui	a3,0x10
    2120:	00072783          	lw	a5,0(a4)
    2124:	fed7eee3          	bltu	a5,a3,2120 <print_hex32+0xc>
    2128:	03000693          	li	a3,48
    212c:	040007b7          	lui	a5,0x4000
    2130:	04000737          	lui	a4,0x4000
    2134:	04d7a023          	sw	a3,64(a5) # 4000040 <_stack_end+0x3ef5ae0>
    2138:	04470713          	addi	a4,a4,68 # 4000044 <_stack_end+0x3ef5ae4>
    213c:	000106b7          	lui	a3,0x10
    2140:	00072783          	lw	a5,0(a4)
    2144:	fed7eee3          	bltu	a5,a3,2140 <print_hex32+0x2c>
    2148:	04000837          	lui	a6,0x4000
    214c:	04080813          	addi	a6,a6,64 # 4000040 <_stack_end+0x3ef5ae0>
    2150:	04000737          	lui	a4,0x4000
    2154:	07800793          	li	a5,120
    2158:	00f82023          	sw	a5,0(a6)
    215c:	01c00613          	li	a2,28
    2160:	00900313          	li	t1,9
    2164:	04470713          	addi	a4,a4,68 # 4000044 <_stack_end+0x3ef5ae4>
    2168:	000106b7          	lui	a3,0x10
    216c:	ffc00893          	li	a7,-4
    2170:	00c557b3          	srl	a5,a0,a2
    2174:	00f7f793          	andi	a5,a5,15
    2178:	03778593          	addi	a1,a5,55
    217c:	00f36463          	bltu	t1,a5,2184 <print_hex32+0x70>
    2180:	03078593          	addi	a1,a5,48
    2184:	00072783          	lw	a5,0(a4)
    2188:	fed7eee3          	bltu	a5,a3,2184 <print_hex32+0x70>
    218c:	00b82023          	sw	a1,0(a6)
    2190:	ffc60613          	addi	a2,a2,-4 # fffc <availableLetters+0x5b2c>
    2194:	fd161ee3          	bne	a2,a7,2170 <print_hex32+0x5c>
    2198:	00008067          	ret

0000219c <handle_exception>:
    219c:	00200793          	li	a5,2
    21a0:	18f80863          	beq	a6,a5,2330 <handle_exception+0x194>
    21a4:	00b00793          	li	a5,11
    21a8:	12f80063          	beq	a6,a5,22c8 <handle_exception+0x12c>
    21ac:	04000737          	lui	a4,0x4000
    21b0:	14081463          	bnez	a6,22f8 <handle_exception+0x15c>
    21b4:	04000837          	lui	a6,0x4000
    21b8:	0000a637          	lui	a2,0xa
    21bc:	4d860613          	addi	a2,a2,1240 # a4d8 <availableLetters+0x8>
    21c0:	00a00593          	li	a1,10
    21c4:	04470713          	addi	a4,a4,68 # 4000044 <_stack_end+0x3ef5ae4>
    21c8:	000106b7          	lui	a3,0x10
    21cc:	04080813          	addi	a6,a6,64 # 4000040 <_stack_end+0x3ef5ae0>
    21d0:	00072783          	lw	a5,0(a4)
    21d4:	fed7eee3          	bltu	a5,a3,21d0 <handle_exception+0x34>
    21d8:	00b82023          	sw	a1,0(a6)
    21dc:	00164583          	lbu	a1,1(a2)
    21e0:	00160613          	addi	a2,a2,1
    21e4:	fe0596e3          	bnez	a1,21d0 <handle_exception+0x34>
    21e8:	04000737          	lui	a4,0x4000
    21ec:	04000837          	lui	a6,0x4000
    21f0:	0000a637          	lui	a2,0xa
    21f4:	54c60613          	addi	a2,a2,1356 # a54c <availableLetters+0x7c>
    21f8:	04500593          	li	a1,69
    21fc:	04470713          	addi	a4,a4,68 # 4000044 <_stack_end+0x3ef5ae4>
    2200:	000106b7          	lui	a3,0x10
    2204:	04080813          	addi	a6,a6,64 # 4000040 <_stack_end+0x3ef5ae0>
    2208:	00072783          	lw	a5,0(a4)
    220c:	fed7eee3          	bltu	a5,a3,2208 <handle_exception+0x6c>
    2210:	00b82023          	sw	a1,0(a6)
    2214:	00164583          	lbu	a1,1(a2)
    2218:	00160613          	addi	a2,a2,1
    221c:	fe0596e3          	bnez	a1,2208 <handle_exception+0x6c>
    2220:	04000737          	lui	a4,0x4000
    2224:	04470713          	addi	a4,a4,68 # 4000044 <_stack_end+0x3ef5ae4>
    2228:	000106b7          	lui	a3,0x10
    222c:	00072783          	lw	a5,0(a4)
    2230:	fed7eee3          	bltu	a5,a3,222c <handle_exception+0x90>
    2234:	03000693          	li	a3,48
    2238:	040007b7          	lui	a5,0x4000
    223c:	04000737          	lui	a4,0x4000
    2240:	04d7a023          	sw	a3,64(a5) # 4000040 <_stack_end+0x3ef5ae0>
    2244:	04470713          	addi	a4,a4,68 # 4000044 <_stack_end+0x3ef5ae4>
    2248:	000106b7          	lui	a3,0x10
    224c:	00072783          	lw	a5,0(a4)
    2250:	fed7eee3          	bltu	a5,a3,224c <handle_exception+0xb0>
    2254:	04000837          	lui	a6,0x4000
    2258:	04080813          	addi	a6,a6,64 # 4000040 <_stack_end+0x3ef5ae0>
    225c:	04000737          	lui	a4,0x4000
    2260:	07800793          	li	a5,120
    2264:	00f82023          	sw	a5,0(a6)
    2268:	01c00613          	li	a2,28
    226c:	00900313          	li	t1,9
    2270:	04470713          	addi	a4,a4,68 # 4000044 <_stack_end+0x3ef5ae4>
    2274:	000106b7          	lui	a3,0x10
    2278:	ffc00893          	li	a7,-4
    227c:	00c557b3          	srl	a5,a0,a2
    2280:	00f7f793          	andi	a5,a5,15
    2284:	03778593          	addi	a1,a5,55
    2288:	00f36463          	bltu	t1,a5,2290 <handle_exception+0xf4>
    228c:	03078593          	addi	a1,a5,48
    2290:	00072783          	lw	a5,0(a4)
    2294:	fed7eee3          	bltu	a5,a3,2290 <handle_exception+0xf4>
    2298:	00b82023          	sw	a1,0(a6)
    229c:	ffc60613          	addi	a2,a2,-4
    22a0:	fd161ee3          	bne	a2,a7,227c <handle_exception+0xe0>
    22a4:	04000737          	lui	a4,0x4000
    22a8:	04470713          	addi	a4,a4,68 # 4000044 <_stack_end+0x3ef5ae4>
    22ac:	000106b7          	lui	a3,0x10
    22b0:	00072783          	lw	a5,0(a4)
    22b4:	fed7eee3          	bltu	a5,a3,22b0 <handle_exception+0x114>
    22b8:	040007b7          	lui	a5,0x4000
    22bc:	00a00713          	li	a4,10
    22c0:	04e7a023          	sw	a4,64(a5) # 4000040 <_stack_end+0x3ef5ae0>
    22c4:	0000006f          	j	22c4 <handle_exception+0x128>
    22c8:	00400793          	li	a5,4
    22cc:	0af88063          	beq	a7,a5,236c <handle_exception+0x1d0>
    22d0:	0d089a63          	bne	a7,a6,23a4 <handle_exception+0x208>
    22d4:	04000737          	lui	a4,0x4000
    22d8:	04470713          	addi	a4,a4,68 # 4000044 <_stack_end+0x3ef5ae4>
    22dc:	000106b7          	lui	a3,0x10
    22e0:	00072783          	lw	a5,0(a4)
    22e4:	fed7eee3          	bltu	a5,a3,22e0 <handle_exception+0x144>
    22e8:	040007b7          	lui	a5,0x4000
    22ec:	0ff57513          	zext.b	a0,a0
    22f0:	04a7a023          	sw	a0,64(a5) # 4000040 <_stack_end+0x3ef5ae0>
    22f4:	00008067          	ret
    22f8:	04000837          	lui	a6,0x4000
    22fc:	0000a637          	lui	a2,0xa
    2300:	52c60613          	addi	a2,a2,1324 # a52c <availableLetters+0x5c>
    2304:	00a00593          	li	a1,10
    2308:	04470713          	addi	a4,a4,68
    230c:	000106b7          	lui	a3,0x10
    2310:	04080813          	addi	a6,a6,64 # 4000040 <_stack_end+0x3ef5ae0>
    2314:	00072783          	lw	a5,0(a4)
    2318:	fed7eee3          	bltu	a5,a3,2314 <handle_exception+0x178>
    231c:	00b82023          	sw	a1,0(a6)
    2320:	00164583          	lbu	a1,1(a2)
    2324:	00160613          	addi	a2,a2,1
    2328:	fe0596e3          	bnez	a1,2314 <handle_exception+0x178>
    232c:	ebdff06f          	j	21e8 <handle_exception+0x4c>
    2330:	04000737          	lui	a4,0x4000
    2334:	04000837          	lui	a6,0x4000
    2338:	0000a637          	lui	a2,0xa
    233c:	50860613          	addi	a2,a2,1288 # a508 <availableLetters+0x38>
    2340:	00a00593          	li	a1,10
    2344:	04470713          	addi	a4,a4,68 # 4000044 <_stack_end+0x3ef5ae4>
    2348:	000106b7          	lui	a3,0x10
    234c:	04080813          	addi	a6,a6,64 # 4000040 <_stack_end+0x3ef5ae0>
    2350:	00072783          	lw	a5,0(a4)
    2354:	fed7eee3          	bltu	a5,a3,2350 <handle_exception+0x1b4>
    2358:	00b82023          	sw	a1,0(a6)
    235c:	00164583          	lbu	a1,1(a2)
    2360:	00160613          	addi	a2,a2,1
    2364:	fe0596e3          	bnez	a1,2350 <handle_exception+0x1b4>
    2368:	e81ff06f          	j	21e8 <handle_exception+0x4c>
    236c:	00054603          	lbu	a2,0(a0)
    2370:	02060a63          	beqz	a2,23a4 <handle_exception+0x208>
    2374:	04000737          	lui	a4,0x4000
    2378:	040005b7          	lui	a1,0x4000
    237c:	04470713          	addi	a4,a4,68 # 4000044 <_stack_end+0x3ef5ae4>
    2380:	000106b7          	lui	a3,0x10
    2384:	04058593          	addi	a1,a1,64 # 4000040 <_stack_end+0x3ef5ae0>
    2388:	00072783          	lw	a5,0(a4)
    238c:	fed7eee3          	bltu	a5,a3,2388 <handle_exception+0x1ec>
    2390:	00c5a023          	sw	a2,0(a1)
    2394:	00154603          	lbu	a2,1(a0)
    2398:	00150513          	addi	a0,a0,1
    239c:	fe0616e3          	bnez	a2,2388 <handle_exception+0x1ec>
    23a0:	00008067          	ret
    23a4:	00008067          	ret

000023a8 <nextprime>:
    23a8:	00200713          	li	a4,2
    23ac:	00050793          	mv	a5,a0
    23b0:	02a74063          	blt	a4,a0,23d0 <nextprime+0x28>
    23b4:	00100513          	li	a0,1
    23b8:	00f05a63          	blez	a5,23cc <nextprime+0x24>
    23bc:	fff78793          	addi	a5,a5,-1
    23c0:	00f037b3          	snez	a5,a5
    23c4:	00278513          	addi	a0,a5,2
    23c8:	00008067          	ret
    23cc:	00008067          	ret
    23d0:	00150793          	addi	a5,a0,1
    23d4:	0017e513          	ori	a0,a5,1
    23d8:	00300613          	li	a2,3
    23dc:	02c567b3          	rem	a5,a0,a2
    23e0:	40155693          	srai	a3,a0,0x1
    23e4:	02078263          	beqz	a5,2408 <nextprime+0x60>
    23e8:	00268693          	addi	a3,a3,2 # 10002 <availableLetters+0x5b32>
    23ec:	00300793          	li	a5,3
    23f0:	00c0006f          	j	23fc <nextprime+0x54>
    23f4:	02f56733          	rem	a4,a0,a5
    23f8:	00070863          	beqz	a4,2408 <nextprime+0x60>
    23fc:	00178793          	addi	a5,a5,1
    2400:	fef69ae3          	bne	a3,a5,23f4 <nextprime+0x4c>
    2404:	00008067          	ret
    2408:	00250513          	addi	a0,a0,2
    240c:	fd1ff06f          	j	23dc <nextprime+0x34>

00002410 <moveSelect>:
    2410:	fe010113          	addi	sp,sp,-32
    2414:	00812c23          	sw	s0,24(sp)
    2418:	00912a23          	sw	s1,20(sp)
    241c:	04000437          	lui	s0,0x4000
    2420:	040004b7          	lui	s1,0x4000
    2424:	01212823          	sw	s2,16(sp)
    2428:	01312623          	sw	s3,12(sp)
    242c:	01412423          	sw	s4,8(sp)
    2430:	00112e23          	sw	ra,28(sp)
    2434:	00000a13          	li	s4,0
    2438:	00000593          	li	a1,0
    243c:	00003937          	lui	s2,0x3
    2440:	00200993          	li	s3,2
    2444:	0e048493          	addi	s1,s1,224 # 40000e0 <_stack_end+0x3ef5b80>
    2448:	02040413          	addi	s0,s0,32 # 4000020 <_stack_end+0x3ef5ac0>
    244c:	f7c92783          	lw	a5,-132(s2) # 2f7c <player_button>
    2450:	07378063          	beq	a5,s3,24b0 <moveSelect+0xa0>
    2454:	0004a783          	lw	a5,0(s1)
    2458:	00045703          	lhu	a4,0(s0)
    245c:	00f7f793          	andi	a5,a5,15
    2460:	f6f92e23          	sw	a5,-132(s2)
    2464:	00177713          	andi	a4,a4,1
    2468:	fe0704e3          	beqz	a4,2450 <moveSelect+0x40>
    246c:	01512223          	sw	s5,4(sp)
    2470:	00100713          	li	a4,1
    2474:	06e78663          	beq	a5,a4,24e0 <moveSelect+0xd0>
    2478:	00400713          	li	a4,4
    247c:	000a0a93          	mv	s5,s4
    2480:	00e79e63          	bne	a5,a4,249c <moveSelect+0x8c>
    2484:	001a0a93          	addi	s5,s4,1
    2488:	00300793          	li	a5,3
    248c:	02faeab3          	rem	s5,s5,a5
    2490:	000a0593          	mv	a1,s4
    2494:	000a8513          	mv	a0,s5
    2498:	ea5fd0ef          	jal	33c <drawMenuHighlight>
    249c:	10c000ef          	jal	25a8 <runTimer>
    24a0:	000a0593          	mv	a1,s4
    24a4:	000a8a13          	mv	s4,s5
    24a8:	00412a83          	lw	s5,4(sp)
    24ac:	fa1ff06f          	j	244c <moveSelect+0x3c>
    24b0:	000a0513          	mv	a0,s4
    24b4:	e89fd0ef          	jal	33c <drawMenuHighlight>
    24b8:	140000ef          	jal	25f8 <resetTimer>
    24bc:	01c12083          	lw	ra,28(sp)
    24c0:	01812403          	lw	s0,24(sp)
    24c4:	01412483          	lw	s1,20(sp)
    24c8:	01012903          	lw	s2,16(sp)
    24cc:	00c12983          	lw	s3,12(sp)
    24d0:	000a0513          	mv	a0,s4
    24d4:	00812a03          	lw	s4,8(sp)
    24d8:	02010113          	addi	sp,sp,32
    24dc:	00008067          	ret
    24e0:	00200a93          	li	s5,2
    24e4:	fb4056e3          	blez	s4,2490 <moveSelect+0x80>
    24e8:	fffa0a93          	addi	s5,s4,-1
    24ec:	fa5ff06f          	j	2490 <moveSelect+0x80>

000024f0 <runMenu>:
    24f0:	ff010113          	addi	sp,sp,-16
    24f4:	00112623          	sw	ra,12(sp)
    24f8:	100000ef          	jal	25f8 <resetTimer>
    24fc:	fb9fd0ef          	jal	4b4 <drawMainMenu>
    2500:	0a8000ef          	jal	25a8 <runTimer>
    2504:	00c12083          	lw	ra,12(sp)
    2508:	01010113          	addi	sp,sp,16
    250c:	f05ff06f          	j	2410 <moveSelect>

00002510 <main>:
    2510:	ff010113          	addi	sp,sp,-16
    2514:	00112623          	sw	ra,12(sp)
    2518:	e09fd0ef          	jal	320 <clearScreen>
    251c:	110000ef          	jal	262c <gpioInit>
    2520:	ef4ff0ef          	jal	1c14 <runHighscoreLetters>
    2524:	00003537          	lui	a0,0x3
    2528:	f2850513          	addi	a0,a0,-216 # 2f28 <players>
    252c:	b29ff0ef          	jal	2054 <print>
    2530:	00c12083          	lw	ra,12(sp)
    2534:	00000513          	li	a0,0
    2538:	01010113          	addi	sp,sp,16
    253c:	00008067          	ret

00002540 <timerInterruptInit>:
    2540:	ff010113          	addi	sp,sp,-16
    2544:	00812423          	sw	s0,8(sp)
    2548:	04000437          	lui	s0,0x4000
    254c:	02445783          	lhu	a5,36(s0) # 4000024 <_stack_end+0x3ef5ac4>
    2550:	00112623          	sw	ra,12(sp)
    2554:	000016b7          	lui	a3,0x1
    2558:	01079793          	slli	a5,a5,0x10
    255c:	4107d793          	srai	a5,a5,0x10
    2560:	0017e793          	ori	a5,a5,1
    2564:	02f41223          	sh	a5,36(s0)
    2568:	04000737          	lui	a4,0x4000
    256c:	b2068693          	addi	a3,a3,-1248 # b20 <__heap_size+0x320>
    2570:	040007b7          	lui	a5,0x4000
    2574:	02d71423          	sh	a3,40(a4) # 4000028 <_stack_end+0x3ef5ac8>
    2578:	02000713          	li	a4,32
    257c:	02e79623          	sh	a4,44(a5) # 400002c <_stack_end+0x3ef5acc>
    2580:	bf5fd0ef          	jal	174 <enable_interrupt>
    2584:	02445783          	lhu	a5,36(s0)
    2588:	00c12083          	lw	ra,12(sp)
    258c:	01079793          	slli	a5,a5,0x10
    2590:	4107d793          	srai	a5,a5,0x10
    2594:	0047e793          	ori	a5,a5,4
    2598:	02f41223          	sh	a5,36(s0)
    259c:	00812403          	lw	s0,8(sp)
    25a0:	01010113          	addi	sp,sp,16
    25a4:	00008067          	ret

000025a8 <runTimer>:
    25a8:	040006b7          	lui	a3,0x4000
    25ac:	0206d783          	lhu	a5,32(a3) # 4000020 <_stack_end+0x3ef5ac0>
    25b0:	00001637          	lui	a2,0x1
    25b4:	04000737          	lui	a4,0x4000
    25b8:	01079793          	slli	a5,a5,0x10
    25bc:	4107d793          	srai	a5,a5,0x10
    25c0:	0017e793          	ori	a5,a5,1
    25c4:	02f69023          	sh	a5,32(a3)
    25c8:	90060613          	addi	a2,a2,-1792 # 900 <__heap_size+0x100>
    25cc:	02c71423          	sh	a2,40(a4) # 4000028 <_stack_end+0x3ef5ac8>
    25d0:	040007b7          	lui	a5,0x4000
    25d4:	03d00613          	li	a2,61
    25d8:	04000737          	lui	a4,0x4000
    25dc:	02c79623          	sh	a2,44(a5) # 400002c <_stack_end+0x3ef5acc>
    25e0:	02475783          	lhu	a5,36(a4) # 4000024 <_stack_end+0x3ef5ac4>
    25e4:	01079793          	slli	a5,a5,0x10
    25e8:	4107d793          	srai	a5,a5,0x10
    25ec:	0047e793          	ori	a5,a5,4
    25f0:	02f71223          	sh	a5,36(a4)
    25f4:	00008067          	ret

000025f8 <resetTimer>:
    25f8:	04000637          	lui	a2,0x4000
    25fc:	02065783          	lhu	a5,32(a2) # 4000020 <_stack_end+0x3ef5ac0>
    2600:	040006b7          	lui	a3,0x4000
    2604:	02061023          	sh	zero,32(a2)
    2608:	0246d783          	lhu	a5,36(a3) # 4000024 <_stack_end+0x3ef5ac4>
    260c:	04000737          	lui	a4,0x4000
    2610:	02069223          	sh	zero,36(a3)
    2614:	02875583          	lhu	a1,40(a4) # 4000028 <_stack_end+0x3ef5ac8>
    2618:	040007b7          	lui	a5,0x4000
    261c:	02071423          	sh	zero,40(a4)
    2620:	02c7d703          	lhu	a4,44(a5) # 400002c <_stack_end+0x3ef5acc>
    2624:	02079623          	sh	zero,44(a5)
    2628:	00008067          	ret

0000262c <gpioInit>:
    262c:	040007b7          	lui	a5,0x4000
    2630:	00f00713          	li	a4,15
    2634:	0ee7a223          	sw	a4,228(a5) # 40000e4 <_stack_end+0x3ef5b84>
    2638:	00008067          	ret

0000263c <__subdf3>:
    263c:	800007b7          	lui	a5,0x80000
    2640:	00f6c6b3          	xor	a3,a3,a5

00002644 <__adddf3>:
    2644:	ffe007b7          	lui	a5,0xffe00
    2648:	00159393          	slli	t2,a1,0x1
    264c:	00169293          	slli	t0,a3,0x1
    2650:	2cf3fc63          	bgeu	t2,a5,2928 <infnan>
    2654:	2cf2f263          	bgeu	t0,a5,2918 <infnan_B_only>
    2658:	0153d393          	srli	t2,t2,0x15
    265c:	0152d293          	srli	t0,t0,0x15
    2660:	28038c63          	beqz	t2,28f8 <zero_operand>
    2664:	2a028063          	beqz	t0,2904 <zero_operand_Y>
    2668:	40538333          	sub	t1,t2,t0
    266c:	0253f263          	bgeu	t2,t0,2690 <__adddf3+0x4c>
    2670:	40600333          	neg	t1,t1
    2674:	00028393          	mv	t2,t0
    2678:	00c54633          	xor	a2,a0,a2
    267c:	00d5c6b3          	xor	a3,a1,a3
    2680:	00a64533          	xor	a0,a2,a0
    2684:	00b6c5b3          	xor	a1,a3,a1
    2688:	00c54633          	xor	a2,a0,a2
    268c:	00d5c6b3          	xor	a3,a1,a3
    2690:	03733293          	sltiu	t0,t1,55
    2694:	14028663          	beqz	t0,27e0 <exit>
    2698:	fff7c793          	not	a5,a5
    269c:	01429293          	slli	t0,t0,0x14
    26a0:	0055e5b3          	or	a1,a1,t0
    26a4:	0056e6b3          	or	a3,a3,t0
    26a8:	00b29293          	slli	t0,t0,0xb
    26ac:	0055b733          	sltu	a4,a1,t0
    26b0:	00f5f5b3          	and	a1,a1,a5
    26b4:	00071a63          	bnez	a4,26c8 <__adddf3+0x84>
    26b8:	00153713          	seqz	a4,a0
    26bc:	fff5c593          	not	a1,a1
    26c0:	40a00533          	neg	a0,a0
    26c4:	00e585b3          	add	a1,a1,a4
    26c8:	0056b733          	sltu	a4,a3,t0
    26cc:	00f6f6b3          	and	a3,a3,a5
    26d0:	00071a63          	bnez	a4,26e4 <sum>
    26d4:	00163713          	seqz	a4,a2
    26d8:	fff6c693          	not	a3,a3
    26dc:	40c00633          	neg	a2,a2
    26e0:	00e686b3          	add	a3,a3,a4

000026e4 <sum>:
    26e4:	fff38393          	addi	t2,t2,-1
    26e8:	00000713          	li	a4,0
    26ec:	02000793          	li	a5,32
    26f0:	00f36a63          	bltu	t1,a5,2704 <sum+0x20>
    26f4:	00060713          	mv	a4,a2
    26f8:	00068613          	mv	a2,a3
    26fc:	41f6d693          	srai	a3,a3,0x1f
    2700:	fe030313          	addi	t1,t1,-32
    2704:	02030863          	beqz	t1,2734 <sum+0x50>
    2708:	406782b3          	sub	t0,a5,t1
    270c:	005717b3          	sll	a5,a4,t0
    2710:	00675733          	srl	a4,a4,t1
    2714:	00f037b3          	snez	a5,a5
    2718:	00f76733          	or	a4,a4,a5
    271c:	005617b3          	sll	a5,a2,t0
    2720:	00f76733          	or	a4,a4,a5
    2724:	00665633          	srl	a2,a2,t1
    2728:	005697b3          	sll	a5,a3,t0
    272c:	00f66633          	or	a2,a2,a5
    2730:	4066d6b3          	sra	a3,a3,t1
    2734:	00c50533          	add	a0,a0,a2
    2738:	00c53633          	sltu	a2,a0,a2
    273c:	00c686b3          	add	a3,a3,a2
    2740:	00d585b3          	add	a1,a1,a3
    2744:	01f5d293          	srli	t0,a1,0x1f
    2748:	01f29293          	slli	t0,t0,0x1f
    274c:	0205d263          	bgez	a1,2770 <pos_or_zero>
    2750:	40e00733          	neg	a4,a4
    2754:	00173793          	seqz	a5,a4
    2758:	fff54513          	not	a0,a0
    275c:	00f50533          	add	a0,a0,a5
    2760:	00153613          	seqz	a2,a0
    2764:	00f67633          	and	a2,a2,a5
    2768:	fff5c593          	not	a1,a1
    276c:	00c585b3          	add	a1,a1,a2

00002770 <pos_or_zero>:
    2770:	001007b7          	lui	a5,0x100
    2774:	06f5e863          	bltu	a1,a5,27e4 <num_canc>
    2778:	00179793          	slli	a5,a5,0x1
    277c:	02f5ea63          	bltu	a1,a5,27b0 <rounding>
    2780:	00177793          	andi	a5,a4,1
    2784:	00175713          	srli	a4,a4,0x1
    2788:	00f76733          	or	a4,a4,a5
    278c:	01f51793          	slli	a5,a0,0x1f
    2790:	00f76733          	or	a4,a4,a5
    2794:	00155513          	srli	a0,a0,0x1
    2798:	01f59793          	slli	a5,a1,0x1f
    279c:	00f56533          	or	a0,a0,a5
    27a0:	0015d593          	srli	a1,a1,0x1
    27a4:	00138393          	addi	t2,t2,1
    27a8:	7fe00793          	li	a5,2046
    27ac:	14f3de63          	bge	t2,a5,2908 <inf>

000027b0 <rounding>:
    27b0:	800007b7          	lui	a5,0x80000
    27b4:	00f76c63          	bltu	a4,a5,27cc <exp_sign_exit>
    27b8:	00150513          	addi	a0,a0,1
    27bc:	00153613          	seqz	a2,a0
    27c0:	00c585b3          	add	a1,a1,a2
    27c4:	00f71463          	bne	a4,a5,27cc <exp_sign_exit>
    27c8:	ffe57513          	andi	a0,a0,-2

000027cc <exp_sign_exit>:
    27cc:	00a5e633          	or	a2,a1,a0
    27d0:	10060c63          	beqz	a2,28e8 <signed_zero>
    27d4:	01439393          	slli	t2,t2,0x14
    27d8:	007585b3          	add	a1,a1,t2

000027dc <sign_and_exit>:
    27dc:	0055e5b3          	or	a1,a1,t0

000027e0 <exit>:
    27e0:	00008067          	ret

000027e4 <num_canc>:
    27e4:	00159593          	slli	a1,a1,0x1
    27e8:	01f55793          	srli	a5,a0,0x1f
    27ec:	00f5e5b3          	or	a1,a1,a5
    27f0:	00151513          	slli	a0,a0,0x1
    27f4:	01f75793          	srli	a5,a4,0x1f
    27f8:	00f56533          	or	a0,a0,a5
    27fc:	00171713          	slli	a4,a4,0x1
    2800:	00038793          	mv	a5,t2
    2804:	fff38393          	addi	t2,t2,-1
    2808:	00078663          	beqz	a5,2814 <denormal_or_str_canc>
    280c:	001007b7          	lui	a5,0x100
    2810:	faf5f0e3          	bgeu	a1,a5,27b0 <rounding>

00002814 <denormal_or_str_canc>:
    2814:	00059863          	bnez	a1,2824 <denormal_or_str_canc+0x10>
    2818:	00050593          	mv	a1,a0
    281c:	00000513          	li	a0,0
    2820:	02000713          	li	a4,32
    2824:	00058693          	mv	a3,a1
    2828:	000107b7          	lui	a5,0x10
    282c:	00f6f663          	bgeu	a3,a5,2838 <denormal_or_str_canc+0x24>
    2830:	01069693          	slli	a3,a3,0x10
    2834:	01070713          	addi	a4,a4,16
    2838:	00479793          	slli	a5,a5,0x4
    283c:	00f6f663          	bgeu	a3,a5,2848 <denormal_or_str_canc+0x34>
    2840:	00c69693          	slli	a3,a3,0xc
    2844:	00c70713          	addi	a4,a4,12
    2848:	00479793          	slli	a5,a5,0x4
    284c:	00f6f663          	bgeu	a3,a5,2858 <denormal_or_str_canc+0x44>
    2850:	00869693          	slli	a3,a3,0x8
    2854:	00870713          	addi	a4,a4,8
    2858:	00479793          	slli	a5,a5,0x4
    285c:	00f6f663          	bgeu	a3,a5,2868 <denormal_or_str_canc+0x54>
    2860:	00469693          	slli	a3,a3,0x4
    2864:	00470713          	addi	a4,a4,4
    2868:	00279793          	slli	a5,a5,0x2
    286c:	00f6f663          	bgeu	a3,a5,2878 <denormal_or_str_canc+0x64>
    2870:	00269693          	slli	a3,a3,0x2
    2874:	00270713          	addi	a4,a4,2
    2878:	00179793          	slli	a5,a5,0x1
    287c:	00f6f663          	bgeu	a3,a5,2888 <denormal_or_str_canc+0x74>
    2880:	00169693          	slli	a3,a3,0x1
    2884:	00170713          	addi	a4,a4,1
    2888:	ff570713          	addi	a4,a4,-11
    288c:	04070863          	beqz	a4,28dc <denormal_canc>
    2890:	fe070613          	addi	a2,a4,-32
    2894:	02065263          	bgez	a2,28b8 <denormal_or_str_canc+0xa4>
    2898:	00c60613          	addi	a2,a2,12
    289c:	00c05c63          	blez	a2,28b4 <denormal_or_str_canc+0xa0>
    28a0:	00c00693          	li	a3,12
    28a4:	40c68633          	sub	a2,a3,a2
    28a8:	00e59533          	sll	a0,a1,a4
    28ac:	00c5d5b3          	srl	a1,a1,a2
    28b0:	0200006f          	j	28d0 <denormal_or_str_canc+0xbc>
    28b4:	01460613          	addi	a2,a2,20
    28b8:	00c595b3          	sll	a1,a1,a2
    28bc:	02000693          	li	a3,32
    28c0:	40c686b3          	sub	a3,a3,a2
    28c4:	00d556b3          	srl	a3,a0,a3
    28c8:	00d5e5b3          	or	a1,a1,a3
    28cc:	00c51533          	sll	a0,a0,a2
    28d0:	40e383b3          	sub	t2,t2,a4
    28d4:	0003c463          	bltz	t2,28dc <denormal_canc>
    28d8:	ef5ff06f          	j	27cc <exp_sign_exit>

000028dc <denormal_canc>:
    28dc:	00000593          	li	a1,0
    28e0:	02c0006f          	j	290c <sign_zero_xl>

000028e4 <both_denormals>:
    28e4:	00d5f5b3          	and	a1,a1,a3

000028e8 <signed_zero>:
    28e8:	01f5d593          	srli	a1,a1,0x1f
    28ec:	01f59593          	slli	a1,a1,0x1f

000028f0 <zero_xl>:
    28f0:	00000513          	li	a0,0
    28f4:	eedff06f          	j	27e0 <exit>

000028f8 <zero_operand>:
    28f8:	fe0286e3          	beqz	t0,28e4 <both_denormals>
    28fc:	00068593          	mv	a1,a3
    2900:	00060513          	mv	a0,a2

00002904 <zero_operand_Y>:
    2904:	eddff06f          	j	27e0 <exit>

00002908 <inf>:
    2908:	7ff005b7          	lui	a1,0x7ff00

0000290c <sign_zero_xl>:
    290c:	0055e5b3          	or	a1,a1,t0
    2910:	00000513          	li	a0,0
    2914:	ecdff06f          	j	27e0 <exit>

00002918 <infnan_B_only>:
    2918:	00068593          	mv	a1,a3
    291c:	00060513          	mv	a0,a2
    2920:	00028393          	mv	t2,t0
    2924:	0100006f          	j	2934 <infnan_end>

00002928 <infnan>:
    2928:	00f2f663          	bgeu	t0,a5,2934 <infnan_end>
    292c:	00058693          	mv	a3,a1
    2930:	00050613          	mv	a2,a0

00002934 <infnan_end>:
    2934:	00b39393          	slli	t2,t2,0xb
    2938:	00a3e3b3          	or	t2,t2,a0
    293c:	00039863          	bnez	t2,294c <produce_nan>
    2940:	00c51663          	bne	a0,a2,294c <produce_nan>
    2944:	00d59463          	bne	a1,a3,294c <produce_nan>
    2948:	e99ff06f          	j	27e0 <exit>

0000294c <produce_nan>:
    294c:	7ff805b7          	lui	a1,0x7ff80
    2950:	fa1ff06f          	j	28f0 <zero_xl>

00002954 <__divdf3>:
    2954:	ffe007b7          	lui	a5,0xffe00
    2958:	00159713          	slli	a4,a1,0x1
    295c:	00169313          	slli	t1,a3,0x1
    2960:	24f77c63          	bgeu	a4,a5,2bb8 <inf_nan>
    2964:	24f37a63          	bgeu	t1,a5,2bb8 <inf_nan>
    2968:	01575713          	srli	a4,a4,0x15
    296c:	01535313          	srli	t1,t1,0x15
    2970:	22070863          	beqz	a4,2ba0 <zero_denormal>
    2974:	22030663          	beqz	t1,2ba0 <zero_denormal>

00002978 <normal_case>:
    2978:	40670733          	sub	a4,a4,t1
    297c:	00d5c2b3          	xor	t0,a1,a3
    2980:	00c69693          	slli	a3,a3,0xc
    2984:	00d667b3          	or	a5,a2,a3
    2988:	00c59593          	slli	a1,a1,0xc
    298c:	1e078063          	beqz	a5,2b6c <pow_2>
    2990:	100007b7          	lui	a5,0x10000
    2994:	0046d693          	srli	a3,a3,0x4
    2998:	00f6e6b3          	or	a3,a3,a5
    299c:	01865393          	srli	t2,a2,0x18
    29a0:	0076e6b3          	or	a3,a3,t2
    29a4:	00861613          	slli	a2,a2,0x8
    29a8:	0045d393          	srli	t2,a1,0x4
    29ac:	0077e7b3          	or	a5,a5,t2
    29b0:	01855393          	srli	t2,a0,0x18
    29b4:	0077e7b3          	or	a5,a5,t2
    29b8:	00851313          	slli	t1,a0,0x8
    29bc:	800003b7          	lui	t2,0x80000
    29c0:	0072f5b3          	and	a1,t0,t2
    29c4:	40d783b3          	sub	t2,a5,a3
    29c8:	0013b393          	seqz	t2,t2
    29cc:	00c332b3          	sltu	t0,t1,a2
    29d0:	0053f3b3          	and	t2,t2,t0
    29d4:	00d7b2b3          	sltu	t0,a5,a3
    29d8:	0053e3b3          	or	t2,t2,t0
    29dc:	3fe70713          	addi	a4,a4,1022
    29e0:	40770733          	sub	a4,a4,t2
    29e4:	00038a63          	beqz	t2,29f8 <normal_case+0x80>
    29e8:	00165613          	srli	a2,a2,0x1
    29ec:	01f69293          	slli	t0,a3,0x1f
    29f0:	00566633          	or	a2,a2,t0
    29f4:	0016d693          	srli	a3,a3,0x1
    29f8:	00c332b3          	sltu	t0,t1,a2
    29fc:	40c30333          	sub	t1,t1,a2
    2a00:	40d787b3          	sub	a5,a5,a3
    2a04:	405787b3          	sub	a5,a5,t0
    2a08:	00165613          	srli	a2,a2,0x1
    2a0c:	01f69293          	slli	t0,a3,0x1f
    2a10:	00566633          	or	a2,a2,t0
    2a14:	0016d693          	srli	a3,a3,0x1
    2a18:	00100537          	lui	a0,0x100
    2a1c:	000803b7          	lui	t2,0x80

00002a20 <div_loop_start>:
    2a20:	40d782b3          	sub	t0,a5,a3
    2a24:	00c37463          	bgeu	t1,a2,2a2c <div_loop_start+0xc>
    2a28:	fff28293          	addi	t0,t0,-1
    2a2c:	0002c863          	bltz	t0,2a3c <div_loop_start+0x1c>
    2a30:	40c30333          	sub	t1,t1,a2
    2a34:	00028793          	mv	a5,t0
    2a38:	00756533          	or	a0,a0,t2
    2a3c:	00165613          	srli	a2,a2,0x1
    2a40:	01f69293          	slli	t0,a3,0x1f
    2a44:	00566633          	or	a2,a2,t0
    2a48:	0016d693          	srli	a3,a3,0x1
    2a4c:	40d782b3          	sub	t0,a5,a3
    2a50:	00c37463          	bgeu	t1,a2,2a58 <div_loop_start+0x38>
    2a54:	fff28293          	addi	t0,t0,-1
    2a58:	0002ca63          	bltz	t0,2a6c <div_loop_start+0x4c>
    2a5c:	40c30333          	sub	t1,t1,a2
    2a60:	00028793          	mv	a5,t0
    2a64:	0013d293          	srli	t0,t2,0x1
    2a68:	00556533          	or	a0,a0,t0
    2a6c:	00165613          	srli	a2,a2,0x1
    2a70:	01f69293          	slli	t0,a3,0x1f
    2a74:	00566633          	or	a2,a2,t0
    2a78:	0016d693          	srli	a3,a3,0x1
    2a7c:	40d782b3          	sub	t0,a5,a3
    2a80:	00c37463          	bgeu	t1,a2,2a88 <div_loop_start+0x68>
    2a84:	fff28293          	addi	t0,t0,-1
    2a88:	0002ca63          	bltz	t0,2a9c <div_loop_start+0x7c>
    2a8c:	40c30333          	sub	t1,t1,a2
    2a90:	00028793          	mv	a5,t0
    2a94:	0023d293          	srli	t0,t2,0x2
    2a98:	00556533          	or	a0,a0,t0
    2a9c:	00165613          	srli	a2,a2,0x1
    2aa0:	01f69293          	slli	t0,a3,0x1f
    2aa4:	00566633          	or	a2,a2,t0
    2aa8:	0016d693          	srli	a3,a3,0x1
    2aac:	40d782b3          	sub	t0,a5,a3
    2ab0:	00c37463          	bgeu	t1,a2,2ab8 <div_loop_start+0x98>
    2ab4:	fff28293          	addi	t0,t0,-1
    2ab8:	0002ca63          	bltz	t0,2acc <div_loop_start+0xac>
    2abc:	40c30333          	sub	t1,t1,a2
    2ac0:	00028793          	mv	a5,t0
    2ac4:	0033d293          	srli	t0,t2,0x3
    2ac8:	00556533          	or	a0,a0,t0
    2acc:	0067e2b3          	or	t0,a5,t1
    2ad0:	04028463          	beqz	t0,2b18 <div_loop_exit>
    2ad4:	00479793          	slli	a5,a5,0x4
    2ad8:	01c35293          	srli	t0,t1,0x1c
    2adc:	0057e7b3          	or	a5,a5,t0
    2ae0:	00431313          	slli	t1,t1,0x4
    2ae4:	00369693          	slli	a3,a3,0x3
    2ae8:	01d65293          	srli	t0,a2,0x1d
    2aec:	0056e6b3          	or	a3,a3,t0
    2af0:	00361613          	slli	a2,a2,0x3
    2af4:	0043d393          	srli	t2,t2,0x4
    2af8:	f20394e3          	bnez	t2,2a20 <div_loop_start>
    2afc:	001002b7          	lui	t0,0x100
    2b00:	00b2f2b3          	and	t0,t0,a1
    2b04:	02029463          	bnez	t0,2b2c <checks>
    2b08:	00a5e5b3          	or	a1,a1,a0
    2b0c:	00000513          	li	a0,0
    2b10:	800003b7          	lui	t2,0x80000
    2b14:	f0dff06f          	j	2a20 <div_loop_start>

00002b18 <div_loop_exit>:
    2b18:	001002b7          	lui	t0,0x100
    2b1c:	00b2f2b3          	and	t0,t0,a1
    2b20:	00029663          	bnez	t0,2b2c <checks>
    2b24:	00a5e5b3          	or	a1,a1,a0
    2b28:	00000513          	li	a0,0

00002b2c <checks>:
    2b2c:	f0370393          	addi	t2,a4,-253
    2b30:	00e3f663          	bgeu	t2,a4,2b3c <exp_round>
    2b34:	70000293          	li	t0,1792
    2b38:	0672e063          	bltu	t0,t2,2b98 <und_ov_flow>

00002b3c <exp_round>:
    2b3c:	01471713          	slli	a4,a4,0x14
    2b40:	00e585b3          	add	a1,a1,a4
    2b44:	02d7e263          	bltu	a5,a3,2b68 <exit>
    2b48:	00f6ea63          	bltu	a3,a5,2b5c <round_up>
    2b4c:	00c36e63          	bltu	t1,a2,2b68 <exit>
    2b50:	00666663          	bltu	a2,t1,2b5c <round_up>
    2b54:	01f51293          	slli	t0,a0,0x1f
    2b58:	00028863          	beqz	t0,2b68 <exit>

00002b5c <round_up>:
    2b5c:	00150513          	addi	a0,a0,1 # 100001 <__stack_size+0x1>
    2b60:	00153293          	seqz	t0,a0
    2b64:	005585b3          	add	a1,a1,t0

00002b68 <exit>:
    2b68:	00008067          	ret

00002b6c <pow_2>:
    2b6c:	800003b7          	lui	t2,0x80000
    2b70:	0072f2b3          	and	t0,t0,t2
    2b74:	00c5d593          	srli	a1,a1,0xc
    2b78:	0055e5b3          	or	a1,a1,t0
    2b7c:	3ff70713          	addi	a4,a4,1023
    2b80:	02e05463          	blez	a4,2ba8 <signed_zero>
    2b84:	7ff72293          	slti	t0,a4,2047
    2b88:	04028a63          	beqz	t0,2bdc <ovf>
    2b8c:	01471713          	slli	a4,a4,0x14
    2b90:	00e5e5b3          	or	a1,a1,a4
    2b94:	00008067          	ret

00002b98 <und_ov_flow>:
    2b98:	0472c263          	blt	t0,t2,2bdc <ovf>
    2b9c:	00c0006f          	j	2ba8 <signed_zero>

00002ba0 <zero_denormal>:
    2ba0:	04030a63          	beqz	t1,2bf4 <div_by_zero>

00002ba4 <zero>:
    2ba4:	00d5c5b3          	xor	a1,a1,a3

00002ba8 <signed_zero>:
    2ba8:	01f5d593          	srli	a1,a1,0x1f
    2bac:	01f59593          	slli	a1,a1,0x1f
    2bb0:	00000513          	li	a0,0
    2bb4:	00008067          	ret

00002bb8 <inf_nan>:
    2bb8:	00a032b3          	snez	t0,a0
    2bbc:	00e2e2b3          	or	t0,t0,a4
    2bc0:	0257ec63          	bltu	a5,t0,2bf8 <nan>
    2bc4:	00c032b3          	snez	t0,a2
    2bc8:	0062e2b3          	or	t0,t0,t1
    2bcc:	0257e663          	bltu	a5,t0,2bf8 <nan>
    2bd0:	02670463          	beq	a4,t1,2bf8 <nan>
    2bd4:	fcf308e3          	beq	t1,a5,2ba4 <zero>

00002bd8 <inf>:
    2bd8:	00d5c5b3          	xor	a1,a1,a3

00002bdc <ovf>:
    2bdc:	7ff006b7          	lui	a3,0x7ff00
    2be0:	01f5d593          	srli	a1,a1,0x1f
    2be4:	01f59593          	slli	a1,a1,0x1f
    2be8:	00d5e5b3          	or	a1,a1,a3
    2bec:	00000513          	li	a0,0
    2bf0:	00008067          	ret

00002bf4 <div_by_zero>:
    2bf4:	fe0712e3          	bnez	a4,2bd8 <inf>

00002bf8 <nan>:
    2bf8:	7ff805b7          	lui	a1,0x7ff80
    2bfc:	00000513          	li	a0,0
    2c00:	00008067          	ret

00002c04 <__fixsfsi>:
    2c04:	80000737          	lui	a4,0x80000
    2c08:	41f55793          	srai	a5,a0,0x1f
    2c0c:	00151513          	slli	a0,a0,0x1
    2c10:	01855593          	srli	a1,a0,0x18
    2c14:	f8158593          	addi	a1,a1,-127 # 7ff7ff81 <_stack_end+0x7fe75a21>
    2c18:	0205ca63          	bltz	a1,2c4c <undflow>
    2c1c:	40b005b3          	neg	a1,a1
    2c20:	01f58593          	addi	a1,a1,31
    2c24:	00b05e63          	blez	a1,2c40 <ovflow>
    2c28:	00751513          	slli	a0,a0,0x7
    2c2c:	00e56533          	or	a0,a0,a4
    2c30:	00b55533          	srl	a0,a0,a1
    2c34:	00f54533          	xor	a0,a0,a5
    2c38:	40f50533          	sub	a0,a0,a5
    2c3c:	00008067          	ret

00002c40 <ovflow>:
    2c40:	fff70513          	addi	a0,a4,-1 # 7fffffff <_stack_end+0x7fef5a9f>
    2c44:	00f54533          	xor	a0,a0,a5
    2c48:	00008067          	ret

00002c4c <undflow>:
    2c4c:	00000513          	li	a0,0
    2c50:	00008067          	ret

00002c54 <__floatsidf>:
    2c54:	41f55793          	srai	a5,a0,0x1f
    2c58:	00f545b3          	xor	a1,a0,a5
    2c5c:	40f585b3          	sub	a1,a1,a5
    2c60:	02050863          	beqz	a0,2c90 <exit>
    2c64:	01f79793          	slli	a5,a5,0x1f
    2c68:	41d00613          	li	a2,1053
    2c6c:	0005c863          	bltz	a1,2c7c <__floatsidf+0x28>
    2c70:	fff60613          	addi	a2,a2,-1
    2c74:	00159593          	slli	a1,a1,0x1
    2c78:	feb04ce3          	bgtz	a1,2c70 <__floatsidf+0x1c>
    2c7c:	01559513          	slli	a0,a1,0x15
    2c80:	00b5d593          	srli	a1,a1,0xb
    2c84:	01461613          	slli	a2,a2,0x14
    2c88:	00c585b3          	add	a1,a1,a2
    2c8c:	00f5e5b3          	or	a1,a1,a5

00002c90 <exit>:
    2c90:	00008067          	ret

00002c94 <__muldf3>:
    2c94:	00d5c733          	xor	a4,a1,a3
    2c98:	800007b7          	lui	a5,0x80000
    2c9c:	00f772b3          	and	t0,a4,a5
    2ca0:	7ff00793          	li	a5,2047
    2ca4:	0145d713          	srli	a4,a1,0x14
    2ca8:	00f77733          	and	a4,a4,a5
    2cac:	0146d313          	srli	t1,a3,0x14
    2cb0:	00f37333          	and	t1,t1,a5
    2cb4:	10f70863          	beq	a4,a5,2dc4 <inf_nan>
    2cb8:	10f30663          	beq	t1,a5,2dc4 <inf_nan>
    2cbc:	0e070e63          	beqz	a4,2db8 <signed_zero>
    2cc0:	0e030c63          	beqz	t1,2db8 <signed_zero>

00002cc4 <normal_case>:
    2cc4:	00670733          	add	a4,a4,t1
    2cc8:	fff007b7          	lui	a5,0xfff00
    2ccc:	fff7c793          	not	a5,a5
    2cd0:	00f5f5b3          	and	a1,a1,a5
    2cd4:	00f6f6b3          	and	a3,a3,a5
    2cd8:	001007b7          	lui	a5,0x100
    2cdc:	00f5e5b3          	or	a1,a1,a5
    2ce0:	00f6e6b3          	or	a3,a3,a5
    2ce4:	02c58333          	mul	t1,a1,a2
    2ce8:	02d507b3          	mul	a5,a0,a3
    2cec:	00f30333          	add	t1,t1,a5
    2cf0:	00f337b3          	sltu	a5,t1,a5
    2cf4:	02c5b3b3          	mulhu	t2,a1,a2
    2cf8:	00f383b3          	add	t2,t2,a5
    2cfc:	02d537b3          	mulhu	a5,a0,a3
    2d00:	00f383b3          	add	t2,t2,a5
    2d04:	02c507b3          	mul	a5,a0,a2
    2d08:	02c53633          	mulhu	a2,a0,a2
    2d0c:	02d58533          	mul	a0,a1,a3
    2d10:	02d5b5b3          	mulhu	a1,a1,a3
    2d14:	00660633          	add	a2,a2,t1
    2d18:	00663333          	sltu	t1,a2,t1
    2d1c:	006383b3          	add	t2,t2,t1
    2d20:	00750533          	add	a0,a0,t2
    2d24:	007533b3          	sltu	t2,a0,t2
    2d28:	007585b3          	add	a1,a1,t2
    2d2c:	00f037b3          	snez	a5,a5
    2d30:	00f66633          	or	a2,a2,a5
    2d34:	20000393          	li	t2,512
    2d38:	0275f263          	bgeu	a1,t2,2d5c <normal_case+0x98>
    2d3c:	00159593          	slli	a1,a1,0x1
    2d40:	01f55793          	srli	a5,a0,0x1f
    2d44:	00f5e5b3          	or	a1,a1,a5
    2d48:	00151513          	slli	a0,a0,0x1
    2d4c:	01f65793          	srli	a5,a2,0x1f
    2d50:	00f56533          	or	a0,a0,a5
    2d54:	00161613          	slli	a2,a2,0x1
    2d58:	fff70713          	addi	a4,a4,-1
    2d5c:	00b59593          	slli	a1,a1,0xb
    2d60:	01555793          	srli	a5,a0,0x15
    2d64:	00f5e5b3          	or	a1,a1,a5
    2d68:	00b51513          	slli	a0,a0,0xb
    2d6c:	01565793          	srli	a5,a2,0x15
    2d70:	00f56533          	or	a0,a0,a5
    2d74:	00b61613          	slli	a2,a2,0xb
    2d78:	c0170713          	addi	a4,a4,-1023
    2d7c:	7fe00313          	li	t1,2046
    2d80:	02677863          	bgeu	a4,t1,2db0 <und_ov_flow>
    2d84:	01471713          	slli	a4,a4,0x14
    2d88:	00e585b3          	add	a1,a1,a4

00002d8c <rounding>:
    2d8c:	800007b7          	lui	a5,0x80000
    2d90:	00f66c63          	bltu	a2,a5,2da8 <exit>
    2d94:	00150513          	addi	a0,a0,1
    2d98:	00153313          	seqz	t1,a0
    2d9c:	006585b3          	add	a1,a1,t1
    2da0:	00f61463          	bne	a2,a5,2da8 <exit>
    2da4:	ffe57513          	andi	a0,a0,-2

00002da8 <exit>:
    2da8:	0055e5b3          	or	a1,a1,t0
    2dac:	00008067          	ret

00002db0 <und_ov_flow>:
    2db0:	04e04463          	bgtz	a4,2df8 <inf>
    2db4:	0040006f          	j	2db8 <signed_zero>

00002db8 <signed_zero>:
    2db8:	00028593          	mv	a1,t0

00002dbc <zero_xl>:
    2dbc:	00000513          	li	a0,0
    2dc0:	00008067          	ret

00002dc4 <inf_nan>:
    2dc4:	7ff00393          	li	t2,2047
    2dc8:	01571793          	slli	a5,a4,0x15
    2dcc:	02078c63          	beqz	a5,2e04 <nan>
    2dd0:	01531793          	slli	a5,t1,0x15
    2dd4:	02078863          	beqz	a5,2e04 <nan>
    2dd8:	00771863          	bne	a4,t2,2de8 <inf_nan+0x24>
    2ddc:	00c59793          	slli	a5,a1,0xc
    2de0:	00a7e7b3          	or	a5,a5,a0
    2de4:	02079063          	bnez	a5,2e04 <nan>
    2de8:	00731863          	bne	t1,t2,2df8 <inf>
    2dec:	00c69713          	slli	a4,a3,0xc
    2df0:	00c76733          	or	a4,a4,a2
    2df4:	00071863          	bnez	a4,2e04 <nan>

00002df8 <inf>:
    2df8:	7ff005b7          	lui	a1,0x7ff00
    2dfc:	0055e5b3          	or	a1,a1,t0
    2e00:	fbdff06f          	j	2dbc <zero_xl>

00002e04 <nan>:
    2e04:	7ff805b7          	lui	a1,0x7ff80
    2e08:	fb5ff06f          	j	2dbc <zero_xl>

00002e0c <__truncdfsf2>:
    2e0c:	80000637          	lui	a2,0x80000
    2e10:	00b676b3          	and	a3,a2,a1
    2e14:	00159593          	slli	a1,a1,0x1
    2e18:	ffe00737          	lui	a4,0xffe00
    2e1c:	04e5f663          	bgeu	a1,a4,2e68 <inf_nan>
    2e20:	0155d713          	srli	a4,a1,0x15
    2e24:	c8070713          	addi	a4,a4,-896 # ffdffc80 <_stack_end+0xffcf5720>
    2e28:	04e05e63          	blez	a4,2e84 <undflow>
    2e2c:	f0270793          	addi	a5,a4,-254
    2e30:	04f04063          	bgtz	a5,2e70 <inf>
    2e34:	00351793          	slli	a5,a0,0x3
    2e38:	01d55513          	srli	a0,a0,0x1d
    2e3c:	00b59593          	slli	a1,a1,0xb
    2e40:	0095d593          	srli	a1,a1,0x9
    2e44:	00b56533          	or	a0,a0,a1
    2e48:	0007d863          	bgez	a5,2e58 <exp_sign_exit>
    2e4c:	00150513          	addi	a0,a0,1
    2e50:	00c79463          	bne	a5,a2,2e58 <exp_sign_exit>
    2e54:	ffe57513          	andi	a0,a0,-2

00002e58 <exp_sign_exit>:
    2e58:	01771713          	slli	a4,a4,0x17
    2e5c:	00e50533          	add	a0,a0,a4
    2e60:	00d56533          	or	a0,a0,a3
    2e64:	00008067          	ret

00002e68 <inf_nan>:
    2e68:	00b76a63          	bltu	a4,a1,2e7c <nan>
    2e6c:	00051863          	bnez	a0,2e7c <nan>

00002e70 <inf>:
    2e70:	7f800537          	lui	a0,0x7f800
    2e74:	00d56533          	or	a0,a0,a3
    2e78:	00008067          	ret

00002e7c <nan>:
    2e7c:	7fc00537          	lui	a0,0x7fc00
    2e80:	00008067          	ret

00002e84 <undflow>:
    2e84:	00068513          	mv	a0,a3
    2e88:	00008067          	ret

Disassembly of section .srodata.cst8:

0000a4a0 <.srodata.cst8>:
    a4a0:	0000                	.insn	2, 0x
    a4a2:	0000                	.insn	2, 0x
    a4a4:	0000                	.insn	2, 0x
    a4a6:	00004033          	xor	zero,zero,zero
    a4aa:	0000                	.insn	2, 0x
    a4ac:	0000                	.insn	2, 0x
    a4ae:	4044                	.insn	2, 0x4044
    a4b0:	0000                	.insn	2, 0x
    a4b2:	0000                	.insn	2, 0x
    a4b4:	e000                	.insn	2, 0xe000
    a4b6:	4065                	.insn	2, 0x4065
    a4b8:	0000                	.insn	2, 0x
    a4ba:	0000                	.insn	2, 0x
    a4bc:	0000                	.insn	2, 0x
    a4be:	403e                	.insn	2, 0x403e
    a4c0:	0000                	.insn	2, 0x
    a4c2:	0000                	.insn	2, 0x
    a4c4:	0000                	.insn	2, 0x
    a4c6:	4024                	.insn	2, 0x4024

Disassembly of section .srodata:

0000a4c8 <charOffsetX>:
    a4c8:	0050                	.insn	2, 0x0050
	...

0000a4cc <letterPlacementY>:
    a4cc:	0078                	.insn	2, 0x0078
	...

0000a4d0 <availableLetters>:
    a4d0:	4241                	.insn	2, 0x4241
    a4d2:	33323143          	.insn	4, 0x33323143
	...
