
main.elf:     file format elf32-littleriscv


Disassembly of section .text:

00000000 <_isr_handler>:
       0:	0080006f          	j	8 <_isr_routine>
       4:	1440006f          	j	148 <_start>

00000008 <_isr_routine>:
       8:	f8010113          	addi	sp,sp,-128
       c:	00112023          	sw	ra,0(sp)
      10:	00312423          	sw	gp,8(sp)
      14:	00412623          	sw	tp,12(sp)
      18:	00512823          	sw	t0,16(sp)
      1c:	00612a23          	sw	t1,20(sp)
      20:	00712c23          	sw	t2,24(sp)
      24:	00812e23          	sw	s0,28(sp)
      28:	02912023          	sw	s1,32(sp)
      2c:	02a12223          	sw	a0,36(sp)
      30:	02b12423          	sw	a1,40(sp)
      34:	02c12623          	sw	a2,44(sp)
      38:	02d12823          	sw	a3,48(sp)
      3c:	02e12a23          	sw	a4,52(sp)
      40:	02f12c23          	sw	a5,56(sp)
      44:	03012e23          	sw	a6,60(sp)
      48:	05112023          	sw	a7,64(sp)
      4c:	05212223          	sw	s2,68(sp)
      50:	05312423          	sw	s3,72(sp)
      54:	05412623          	sw	s4,76(sp)
      58:	05512823          	sw	s5,80(sp)
      5c:	05612a23          	sw	s6,84(sp)
      60:	05712c23          	sw	s7,88(sp)
      64:	05812e23          	sw	s8,92(sp)
      68:	07912023          	sw	s9,96(sp)
      6c:	07a12223          	sw	s10,100(sp)
      70:	07b12423          	sw	s11,104(sp)
      74:	07c12623          	sw	t3,108(sp)
      78:	07d12823          	sw	t4,112(sp)
      7c:	07e12a23          	sw	t5,116(sp)
      80:	07f12c23          	sw	t6,120(sp)
      84:	342022f3          	csrr	t0,mcause
      88:	80000337          	lui	t1,0x80000
      8c:	02536463          	bltu	t1,t0,b4 <external_irq>
      90:	00028833          	add	a6,t0,zero
      94:	00b00313          	li	t1,11
      98:	00628463          	beq	t0,t1,a0 <skip_init_args>
      9c:	34102573          	csrr	a0,mepc

000000a0 <skip_init_args>:
      a0:	250000ef          	jal	2f0 <handle_exception>
      a4:	341022f3          	csrr	t0,mepc
      a8:	00428293          	addi	t0,t0,4
      ac:	34129073          	csrw	mepc,t0
      b0:	0180006f          	j	c8 <restore>

000000b4 <external_irq>:
      b4:	800002b7          	lui	t0,0x80000
      b8:	fff28293          	addi	t0,t0,-1 # 7fffffff <_stack_end+0x7fef65f7>
      bc:	34202373          	csrr	t1,mcause
      c0:	0062f533          	and	a0,t0,t1
      c4:	449000ef          	jal	d0c <handle_interrupt>

000000c8 <restore>:
      c8:	00012083          	lw	ra,0(sp)
      cc:	00812183          	lw	gp,8(sp)
      d0:	00c12203          	lw	tp,12(sp)
      d4:	01012283          	lw	t0,16(sp)
      d8:	01412303          	lw	t1,20(sp)
      dc:	01812383          	lw	t2,24(sp)
      e0:	01c12403          	lw	s0,28(sp)
      e4:	02012483          	lw	s1,32(sp)
      e8:	02412503          	lw	a0,36(sp)
      ec:	02812583          	lw	a1,40(sp)
      f0:	02c12603          	lw	a2,44(sp)
      f4:	03012683          	lw	a3,48(sp)
      f8:	03412703          	lw	a4,52(sp)
      fc:	03812783          	lw	a5,56(sp)
     100:	03c12803          	lw	a6,60(sp)
     104:	04012883          	lw	a7,64(sp)
     108:	04412903          	lw	s2,68(sp)
     10c:	04812983          	lw	s3,72(sp)
     110:	04c12a03          	lw	s4,76(sp)
     114:	05012a83          	lw	s5,80(sp)
     118:	05412b03          	lw	s6,84(sp)
     11c:	05812b83          	lw	s7,88(sp)
     120:	05c12c03          	lw	s8,92(sp)
     124:	06012c83          	lw	s9,96(sp)
     128:	06412d03          	lw	s10,100(sp)
     12c:	06812d83          	lw	s11,104(sp)
     130:	06c12e03          	lw	t3,108(sp)
     134:	07012e83          	lw	t4,112(sp)
     138:	07412f03          	lw	t5,116(sp)
     13c:	07812f83          	lw	t6,120(sp)
     140:	08010113          	addi	sp,sp,128
     144:	30200073          	mret

00000148 <_start>:
     148:	30401073          	csrw	mie,zero
     14c:	0010a117          	auipc	sp,0x10a
     150:	8bc10113          	addi	sp,sp,-1860 # 109a08 <_stack_end>
     154:	0000a197          	auipc	gp,0xa
     158:	fac18193          	addi	gp,gp,-84 # a100 <__global_pointer>
     15c:	00003517          	auipc	a0,0x3
     160:	9b050513          	addi	a0,a0,-1616 # 2b0c <welcome_msg>
     164:	00400893          	li	a7,4
     168:	00000073          	ecall
     16c:	40c000ef          	jal	578 <main>

00000170 <loop>:
     170:	0000006f          	j	170 <loop>

00000174 <enable_interrupt>:
     174:	30486073          	csrsi	mie,16
     178:	3001e073          	csrsi	mstatus,3

0000017c <printc>:
     17c:	04000737          	lui	a4,0x4000
     180:	04470713          	addi	a4,a4,68 # 4000044 <_stack_end+0x3ef663c>
     184:	000106b7          	lui	a3,0x10
     188:	00072783          	lw	a5,0(a4)
     18c:	fed7eee3          	bltu	a5,a3,188 <printc+0xc>
     190:	040007b7          	lui	a5,0x4000
     194:	04a7a023          	sw	a0,64(a5) # 4000040 <_stack_end+0x3ef6638>
     198:	00008067          	ret

0000019c <print>:
     19c:	00054603          	lbu	a2,0(a0)
     1a0:	02060863          	beqz	a2,1d0 <print+0x34>
     1a4:	04000737          	lui	a4,0x4000
     1a8:	040005b7          	lui	a1,0x4000
     1ac:	04470713          	addi	a4,a4,68 # 4000044 <_stack_end+0x3ef663c>
     1b0:	04058593          	addi	a1,a1,64 # 4000040 <_stack_end+0x3ef6638>
     1b4:	000106b7          	lui	a3,0x10
     1b8:	00072783          	lw	a5,0(a4)
     1bc:	fed7eee3          	bltu	a5,a3,1b8 <print+0x1c>
     1c0:	00c5a023          	sw	a2,0(a1)
     1c4:	00154603          	lbu	a2,1(a0)
     1c8:	00150513          	addi	a0,a0,1
     1cc:	fe0616e3          	bnez	a2,1b8 <print+0x1c>
     1d0:	00008067          	ret

000001d4 <print_dec>:
     1d4:	3b9ad737          	lui	a4,0x3b9ad
     1d8:	040006b7          	lui	a3,0x4000
     1dc:	04000337          	lui	t1,0x4000
     1e0:	ccccd8b7          	lui	a7,0xccccd
     1e4:	a0070713          	addi	a4,a4,-1536 # 3b9aca00 <_stack_end+0x3b8a2ff8>
     1e8:	04468693          	addi	a3,a3,68 # 4000044 <_stack_end+0x3ef663c>
     1ec:	04030313          	addi	t1,t1,64 # 4000040 <_stack_end+0x3ef6638>
     1f0:	ccd88893          	addi	a7,a7,-819 # cccccccd <_stack_end+0xccbc32c5>
     1f4:	00a00593          	li	a1,10
     1f8:	00000793          	li	a5,0
     1fc:	00010637          	lui	a2,0x10
     200:	04e57663          	bgeu	a0,a4,24c <print_dec+0x78>
     204:	00078813          	mv	a6,a5
     208:	00000793          	li	a5,0
     20c:	04081063          	bnez	a6,24c <print_dec+0x78>
     210:	03173833          	mulhu	a6,a4,a7
     214:	fff58593          	addi	a1,a1,-1
     218:	02e57533          	remu	a0,a0,a4
     21c:	00385713          	srli	a4,a6,0x3
     220:	fe0590e3          	bnez	a1,200 <print_dec+0x2c>
     224:	02079263          	bnez	a5,248 <print_dec+0x74>
     228:	04000737          	lui	a4,0x4000
     22c:	04470713          	addi	a4,a4,68 # 4000044 <_stack_end+0x3ef663c>
     230:	000106b7          	lui	a3,0x10
     234:	00072783          	lw	a5,0(a4)
     238:	fed7eee3          	bltu	a5,a3,234 <print_dec+0x60>
     23c:	040007b7          	lui	a5,0x4000
     240:	03000713          	li	a4,48
     244:	04e7a023          	sw	a4,64(a5) # 4000040 <_stack_end+0x3ef6638>
     248:	00008067          	ret
     24c:	02e55833          	divu	a6,a0,a4
     250:	03080813          	addi	a6,a6,48
     254:	0ff87813          	zext.b	a6,a6
     258:	0006a783          	lw	a5,0(a3) # 10000 <__global_pointer+0x5f00>
     25c:	fec7eee3          	bltu	a5,a2,258 <print_dec+0x84>
     260:	01032023          	sw	a6,0(t1)
     264:	00100793          	li	a5,1
     268:	fa9ff06f          	j	210 <print_dec+0x3c>

0000026c <print_hex32>:
     26c:	04000737          	lui	a4,0x4000
     270:	04470713          	addi	a4,a4,68 # 4000044 <_stack_end+0x3ef663c>
     274:	000106b7          	lui	a3,0x10
     278:	00072783          	lw	a5,0(a4)
     27c:	fed7eee3          	bltu	a5,a3,278 <print_hex32+0xc>
     280:	040007b7          	lui	a5,0x4000
     284:	03000693          	li	a3,48
     288:	04d7a023          	sw	a3,64(a5) # 4000040 <_stack_end+0x3ef6638>
     28c:	04478713          	addi	a4,a5,68
     290:	000106b7          	lui	a3,0x10
     294:	00072783          	lw	a5,0(a4)
     298:	fed7eee3          	bltu	a5,a3,294 <print_hex32+0x28>
     29c:	04000837          	lui	a6,0x4000
     2a0:	04080813          	addi	a6,a6,64 # 4000040 <_stack_end+0x3ef6638>
     2a4:	07800793          	li	a5,120
     2a8:	04000737          	lui	a4,0x4000
     2ac:	00f82023          	sw	a5,0(a6)
     2b0:	04470713          	addi	a4,a4,68 # 4000044 <_stack_end+0x3ef663c>
     2b4:	01c00613          	li	a2,28
     2b8:	00900313          	li	t1,9
     2bc:	000106b7          	lui	a3,0x10
     2c0:	ffc00893          	li	a7,-4
     2c4:	00c557b3          	srl	a5,a0,a2
     2c8:	00f7f793          	andi	a5,a5,15
     2cc:	03778593          	addi	a1,a5,55
     2d0:	00f36463          	bltu	t1,a5,2d8 <print_hex32+0x6c>
     2d4:	03078593          	addi	a1,a5,48
     2d8:	00072783          	lw	a5,0(a4)
     2dc:	fed7eee3          	bltu	a5,a3,2d8 <print_hex32+0x6c>
     2e0:	00b82023          	sw	a1,0(a6)
     2e4:	ffc60613          	addi	a2,a2,-4 # fffc <__global_pointer+0x5efc>
     2e8:	fd161ee3          	bne	a2,a7,2c4 <print_hex32+0x58>
     2ec:	00008067          	ret

000002f0 <handle_exception>:
     2f0:	00200793          	li	a5,2
     2f4:	1af80463          	beq	a6,a5,49c <handle_exception+0x1ac>
     2f8:	00b00793          	li	a5,11
     2fc:	12f80663          	beq	a6,a5,428 <handle_exception+0x138>
     300:	14081c63          	bnez	a6,458 <handle_exception+0x168>
     304:	0000a637          	lui	a2,0xa
     308:	0000a8b7          	lui	a7,0xa
     30c:	04000737          	lui	a4,0x4000
     310:	04000837          	lui	a6,0x4000
     314:	95460613          	addi	a2,a2,-1708 # 9954 <CSWTCH.4+0x14>
     318:	98388893          	addi	a7,a7,-1661 # 9983 <CSWTCH.4+0x43>
     31c:	04470713          	addi	a4,a4,68 # 4000044 <_stack_end+0x3ef663c>
     320:	04080813          	addi	a6,a6,64 # 4000040 <_stack_end+0x3ef6638>
     324:	00a00593          	li	a1,10
     328:	000106b7          	lui	a3,0x10
     32c:	00072783          	lw	a5,0(a4)
     330:	fed7eee3          	bltu	a5,a3,32c <handle_exception+0x3c>
     334:	00b82023          	sw	a1,0(a6)
     338:	00160613          	addi	a2,a2,1
     33c:	00064583          	lbu	a1,0(a2)
     340:	ff1616e3          	bne	a2,a7,32c <handle_exception+0x3c>
     344:	0000a637          	lui	a2,0xa
     348:	0000a8b7          	lui	a7,0xa
     34c:	04000737          	lui	a4,0x4000
     350:	04000837          	lui	a6,0x4000
     354:	9c860613          	addi	a2,a2,-1592 # 99c8 <CSWTCH.4+0x88>
     358:	9db88893          	addi	a7,a7,-1573 # 99db <CSWTCH.4+0x9b>
     35c:	04470713          	addi	a4,a4,68 # 4000044 <_stack_end+0x3ef663c>
     360:	04080813          	addi	a6,a6,64 # 4000040 <_stack_end+0x3ef6638>
     364:	04500593          	li	a1,69
     368:	000106b7          	lui	a3,0x10
     36c:	00072783          	lw	a5,0(a4)
     370:	fed7eee3          	bltu	a5,a3,36c <handle_exception+0x7c>
     374:	00b82023          	sw	a1,0(a6)
     378:	00160613          	addi	a2,a2,1
     37c:	00064583          	lbu	a1,0(a2)
     380:	ff1616e3          	bne	a2,a7,36c <handle_exception+0x7c>
     384:	04000737          	lui	a4,0x4000
     388:	04470713          	addi	a4,a4,68 # 4000044 <_stack_end+0x3ef663c>
     38c:	000106b7          	lui	a3,0x10
     390:	00072783          	lw	a5,0(a4)
     394:	fed7eee3          	bltu	a5,a3,390 <handle_exception+0xa0>
     398:	040007b7          	lui	a5,0x4000
     39c:	03000693          	li	a3,48
     3a0:	04d7a023          	sw	a3,64(a5) # 4000040 <_stack_end+0x3ef6638>
     3a4:	04478713          	addi	a4,a5,68
     3a8:	000106b7          	lui	a3,0x10
     3ac:	00072783          	lw	a5,0(a4)
     3b0:	fed7eee3          	bltu	a5,a3,3ac <handle_exception+0xbc>
     3b4:	04000837          	lui	a6,0x4000
     3b8:	04080813          	addi	a6,a6,64 # 4000040 <_stack_end+0x3ef6638>
     3bc:	07800793          	li	a5,120
     3c0:	04000737          	lui	a4,0x4000
     3c4:	00f82023          	sw	a5,0(a6)
     3c8:	04470713          	addi	a4,a4,68 # 4000044 <_stack_end+0x3ef663c>
     3cc:	01c00613          	li	a2,28
     3d0:	00900313          	li	t1,9
     3d4:	000106b7          	lui	a3,0x10
     3d8:	ffc00893          	li	a7,-4
     3dc:	00c557b3          	srl	a5,a0,a2
     3e0:	00f7f793          	andi	a5,a5,15
     3e4:	03778593          	addi	a1,a5,55
     3e8:	00f36463          	bltu	t1,a5,3f0 <handle_exception+0x100>
     3ec:	03078593          	addi	a1,a5,48
     3f0:	00072783          	lw	a5,0(a4)
     3f4:	fed7eee3          	bltu	a5,a3,3f0 <handle_exception+0x100>
     3f8:	00b82023          	sw	a1,0(a6)
     3fc:	ffc60613          	addi	a2,a2,-4
     400:	fd161ee3          	bne	a2,a7,3dc <handle_exception+0xec>
     404:	04000737          	lui	a4,0x4000
     408:	04470713          	addi	a4,a4,68 # 4000044 <_stack_end+0x3ef663c>
     40c:	000106b7          	lui	a3,0x10
     410:	00072783          	lw	a5,0(a4)
     414:	fed7eee3          	bltu	a5,a3,410 <handle_exception+0x120>
     418:	040007b7          	lui	a5,0x4000
     41c:	00a00713          	li	a4,10
     420:	04e7a023          	sw	a4,64(a5) # 4000040 <_stack_end+0x3ef6638>
     424:	0000006f          	j	424 <handle_exception+0x134>
     428:	00400793          	li	a5,4
     42c:	0af88a63          	beq	a7,a5,4e0 <handle_exception+0x1f0>
     430:	0f089463          	bne	a7,a6,518 <handle_exception+0x228>
     434:	04000737          	lui	a4,0x4000
     438:	04470713          	addi	a4,a4,68 # 4000044 <_stack_end+0x3ef663c>
     43c:	000106b7          	lui	a3,0x10
     440:	00072783          	lw	a5,0(a4)
     444:	fed7eee3          	bltu	a5,a3,440 <handle_exception+0x150>
     448:	040007b7          	lui	a5,0x4000
     44c:	0ff57513          	zext.b	a0,a0
     450:	04a7a023          	sw	a0,64(a5) # 4000040 <_stack_end+0x3ef6638>
     454:	00008067          	ret
     458:	0000a637          	lui	a2,0xa
     45c:	0000a8b7          	lui	a7,0xa
     460:	04000737          	lui	a4,0x4000
     464:	04000837          	lui	a6,0x4000
     468:	9a860613          	addi	a2,a2,-1624 # 99a8 <CSWTCH.4+0x68>
     46c:	9c488893          	addi	a7,a7,-1596 # 99c4 <CSWTCH.4+0x84>
     470:	04470713          	addi	a4,a4,68 # 4000044 <_stack_end+0x3ef663c>
     474:	04080813          	addi	a6,a6,64 # 4000040 <_stack_end+0x3ef6638>
     478:	00a00593          	li	a1,10
     47c:	000106b7          	lui	a3,0x10
     480:	00072783          	lw	a5,0(a4)
     484:	fed7eee3          	bltu	a5,a3,480 <handle_exception+0x190>
     488:	00b82023          	sw	a1,0(a6)
     48c:	00160613          	addi	a2,a2,1
     490:	00064583          	lbu	a1,0(a2)
     494:	ff1616e3          	bne	a2,a7,480 <handle_exception+0x190>
     498:	eadff06f          	j	344 <handle_exception+0x54>
     49c:	0000a637          	lui	a2,0xa
     4a0:	0000a8b7          	lui	a7,0xa
     4a4:	04000737          	lui	a4,0x4000
     4a8:	04000837          	lui	a6,0x4000
     4ac:	98460613          	addi	a2,a2,-1660 # 9984 <CSWTCH.4+0x44>
     4b0:	9a688893          	addi	a7,a7,-1626 # 99a6 <CSWTCH.4+0x66>
     4b4:	04470713          	addi	a4,a4,68 # 4000044 <_stack_end+0x3ef663c>
     4b8:	04080813          	addi	a6,a6,64 # 4000040 <_stack_end+0x3ef6638>
     4bc:	00a00593          	li	a1,10
     4c0:	000106b7          	lui	a3,0x10
     4c4:	00072783          	lw	a5,0(a4)
     4c8:	fed7eee3          	bltu	a5,a3,4c4 <handle_exception+0x1d4>
     4cc:	00b82023          	sw	a1,0(a6)
     4d0:	00160613          	addi	a2,a2,1
     4d4:	00064583          	lbu	a1,0(a2)
     4d8:	ff1616e3          	bne	a2,a7,4c4 <handle_exception+0x1d4>
     4dc:	e69ff06f          	j	344 <handle_exception+0x54>
     4e0:	00054603          	lbu	a2,0(a0)
     4e4:	02060a63          	beqz	a2,518 <handle_exception+0x228>
     4e8:	04000737          	lui	a4,0x4000
     4ec:	040005b7          	lui	a1,0x4000
     4f0:	04470713          	addi	a4,a4,68 # 4000044 <_stack_end+0x3ef663c>
     4f4:	04058593          	addi	a1,a1,64 # 4000040 <_stack_end+0x3ef6638>
     4f8:	000106b7          	lui	a3,0x10
     4fc:	00072783          	lw	a5,0(a4)
     500:	fed7eee3          	bltu	a5,a3,4fc <handle_exception+0x20c>
     504:	00c5a023          	sw	a2,0(a1)
     508:	00154603          	lbu	a2,1(a0)
     50c:	00150513          	addi	a0,a0,1
     510:	fe0616e3          	bnez	a2,4fc <handle_exception+0x20c>
     514:	00008067          	ret
     518:	00008067          	ret

0000051c <nextprime>:
     51c:	00200793          	li	a5,2
     520:	02a7c063          	blt	a5,a0,540 <nextprime+0x24>
     524:	00100693          	li	a3,1
     528:	00a05863          	blez	a0,538 <nextprime+0x1c>
     52c:	fff50793          	addi	a5,a0,-1
     530:	00f037b3          	snez	a5,a5
     534:	00278693          	addi	a3,a5,2
     538:	00068513          	mv	a0,a3
     53c:	00008067          	ret
     540:	00150513          	addi	a0,a0,1
     544:	00156693          	ori	a3,a0,1
     548:	00300793          	li	a5,3
     54c:	02f6e733          	rem	a4,a3,a5
     550:	4016d613          	srai	a2,a3,0x1
     554:	00260613          	addi	a2,a2,2
     558:	00178793          	addi	a5,a5,1
     55c:	00070a63          	beqz	a4,570 <nextprime+0x54>
     560:	fcf60ce3          	beq	a2,a5,538 <nextprime+0x1c>
     564:	02f6e733          	rem	a4,a3,a5
     568:	00178793          	addi	a5,a5,1
     56c:	fe071ae3          	bnez	a4,560 <nextprime+0x44>
     570:	00268693          	addi	a3,a3,2 # 10002 <__global_pointer+0x5f02>
     574:	fd5ff06f          	j	548 <nextprime+0x2c>

00000578 <main>:
     578:	ff010113          	addi	sp,sp,-16
     57c:	00112623          	sw	ra,12(sp)
     580:	465000ef          	jal	11e4 <clearScreen>
     584:	034000ef          	jal	5b8 <gpioInit>
     588:	14c000ef          	jal	6d4 <runMenu>
     58c:	02050263          	beqz	a0,5b0 <main+0x38>
     590:	fff50513          	addi	a0,a0,-1
     594:	00100793          	li	a5,1
     598:	00a7e463          	bltu	a5,a0,5a0 <main+0x28>
     59c:	449000ef          	jal	11e4 <clearScreen>
     5a0:	00c12083          	lw	ra,12(sp)
     5a4:	00000513          	li	a0,0
     5a8:	01010113          	addi	sp,sp,16
     5ac:	00008067          	ret
     5b0:	115000ef          	jal	ec4 <runGame>
     5b4:	fe9ff06f          	j	59c <main+0x24>

000005b8 <gpioInit>:
     5b8:	040007b7          	lui	a5,0x4000
     5bc:	00f00713          	li	a4,15
     5c0:	0ee7a223          	sw	a4,228(a5) # 40000e4 <_stack_end+0x3ef66dc>
     5c4:	00008067          	ret

000005c8 <moveSelect>:
     5c8:	fd010113          	addi	sp,sp,-48
     5cc:	01712623          	sw	s7,12(sp)
     5d0:	0000abb7          	lui	s7,0xa
     5d4:	918ba783          	lw	a5,-1768(s7) # 9918 <player_button>
     5d8:	01312e23          	sw	s3,28(sp)
     5dc:	02112623          	sw	ra,44(sp)
     5e0:	02812423          	sw	s0,40(sp)
     5e4:	02912223          	sw	s1,36(sp)
     5e8:	00200993          	li	s3,2
     5ec:	0d378e63          	beq	a5,s3,6c8 <moveSelect+0x100>
     5f0:	03212023          	sw	s2,32(sp)
     5f4:	04000937          	lui	s2,0x4000
     5f8:	0e092783          	lw	a5,224(s2) # 40000e0 <_stack_end+0x3ef66d8>
     5fc:	01412c23          	sw	s4,24(sp)
     600:	01512a23          	sw	s5,20(sp)
     604:	00f7f793          	andi	a5,a5,15
     608:	01612823          	sw	s6,16(sp)
     60c:	00100a13          	li	s4,1
     610:	55555b37          	lui	s6,0x55555
     614:	90fbac23          	sw	a5,-1768(s7)
     618:	0e090913          	addi	s2,s2,224
     61c:	556b0b13          	addi	s6,s6,1366 # 55555556 <_stack_end+0x5544bb4e>
     620:	00000493          	li	s1,0
     624:	00400a93          	li	s5,4
     628:	05478863          	beq	a5,s4,678 <moveSelect+0xb0>
     62c:	00148713          	addi	a4,s1,1
     630:	41f75693          	srai	a3,a4,0x1f
     634:	00048593          	mv	a1,s1
     638:	00048413          	mv	s0,s1
     63c:	03579263          	bne	a5,s5,660 <moveSelect+0x98>
     640:	03671433          	mulh	s0,a4,s6
     644:	40d40433          	sub	s0,s0,a3
     648:	00141793          	slli	a5,s0,0x1
     64c:	00878433          	add	s0,a5,s0
     650:	40870433          	sub	s0,a4,s0
     654:	00040513          	mv	a0,s0
     658:	3a9000ef          	jal	1200 <drawMenuHighlight>
     65c:	918ba783          	lw	a5,-1768(s7)
     660:	03378663          	beq	a5,s3,68c <moveSelect+0xc4>
     664:	00092783          	lw	a5,0(s2)
     668:	00040493          	mv	s1,s0
     66c:	00f7f793          	andi	a5,a5,15
     670:	90fbac23          	sw	a5,-1768(s7)
     674:	fb479ce3          	bne	a5,s4,62c <moveSelect+0x64>
     678:	00048593          	mv	a1,s1
     67c:	00200413          	li	s0,2
     680:	fc905ae3          	blez	s1,654 <moveSelect+0x8c>
     684:	fff48413          	addi	s0,s1,-1
     688:	fcdff06f          	j	654 <moveSelect+0x8c>
     68c:	02012903          	lw	s2,32(sp)
     690:	01812a03          	lw	s4,24(sp)
     694:	01412a83          	lw	s5,20(sp)
     698:	01012b03          	lw	s6,16(sp)
     69c:	00040513          	mv	a0,s0
     6a0:	00048593          	mv	a1,s1
     6a4:	35d000ef          	jal	1200 <drawMenuHighlight>
     6a8:	02c12083          	lw	ra,44(sp)
     6ac:	00040513          	mv	a0,s0
     6b0:	02812403          	lw	s0,40(sp)
     6b4:	02412483          	lw	s1,36(sp)
     6b8:	01c12983          	lw	s3,28(sp)
     6bc:	00c12b83          	lw	s7,12(sp)
     6c0:	03010113          	addi	sp,sp,48
     6c4:	00008067          	ret
     6c8:	00000413          	li	s0,0
     6cc:	00000493          	li	s1,0
     6d0:	fcdff06f          	j	69c <moveSelect+0xd4>

000006d4 <runMenu>:
     6d4:	fd010113          	addi	sp,sp,-48
     6d8:	01312e23          	sw	s3,28(sp)
     6dc:	01712623          	sw	s7,12(sp)
     6e0:	02112623          	sw	ra,44(sp)
     6e4:	02812423          	sw	s0,40(sp)
     6e8:	02912223          	sw	s1,36(sp)
     6ec:	0000abb7          	lui	s7,0xa
     6f0:	489000ef          	jal	1378 <drawMainMenu>
     6f4:	918ba783          	lw	a5,-1768(s7) # 9918 <player_button>
     6f8:	00200993          	li	s3,2
     6fc:	0d378e63          	beq	a5,s3,7d8 <runMenu+0x104>
     700:	03212023          	sw	s2,32(sp)
     704:	04000937          	lui	s2,0x4000
     708:	0e092783          	lw	a5,224(s2) # 40000e0 <_stack_end+0x3ef66d8>
     70c:	01412c23          	sw	s4,24(sp)
     710:	01512a23          	sw	s5,20(sp)
     714:	00f7f793          	andi	a5,a5,15
     718:	01612823          	sw	s6,16(sp)
     71c:	00100a13          	li	s4,1
     720:	55555b37          	lui	s6,0x55555
     724:	90fbac23          	sw	a5,-1768(s7)
     728:	0e090913          	addi	s2,s2,224
     72c:	556b0b13          	addi	s6,s6,1366 # 55555556 <_stack_end+0x5544bb4e>
     730:	00000493          	li	s1,0
     734:	00400a93          	li	s5,4
     738:	05478863          	beq	a5,s4,788 <runMenu+0xb4>
     73c:	00148713          	addi	a4,s1,1
     740:	41f75693          	srai	a3,a4,0x1f
     744:	00048593          	mv	a1,s1
     748:	00048413          	mv	s0,s1
     74c:	03579263          	bne	a5,s5,770 <runMenu+0x9c>
     750:	03671433          	mulh	s0,a4,s6
     754:	40d40433          	sub	s0,s0,a3
     758:	00141793          	slli	a5,s0,0x1
     75c:	00878433          	add	s0,a5,s0
     760:	40870433          	sub	s0,a4,s0
     764:	00040513          	mv	a0,s0
     768:	299000ef          	jal	1200 <drawMenuHighlight>
     76c:	918ba783          	lw	a5,-1768(s7)
     770:	03378663          	beq	a5,s3,79c <runMenu+0xc8>
     774:	00092783          	lw	a5,0(s2)
     778:	00040493          	mv	s1,s0
     77c:	00f7f793          	andi	a5,a5,15
     780:	90fbac23          	sw	a5,-1768(s7)
     784:	fb479ce3          	bne	a5,s4,73c <runMenu+0x68>
     788:	00048593          	mv	a1,s1
     78c:	00200413          	li	s0,2
     790:	fc905ae3          	blez	s1,764 <runMenu+0x90>
     794:	fff48413          	addi	s0,s1,-1
     798:	fcdff06f          	j	764 <runMenu+0x90>
     79c:	02012903          	lw	s2,32(sp)
     7a0:	01812a03          	lw	s4,24(sp)
     7a4:	01412a83          	lw	s5,20(sp)
     7a8:	01012b03          	lw	s6,16(sp)
     7ac:	00040513          	mv	a0,s0
     7b0:	00048593          	mv	a1,s1
     7b4:	24d000ef          	jal	1200 <drawMenuHighlight>
     7b8:	02c12083          	lw	ra,44(sp)
     7bc:	00040513          	mv	a0,s0
     7c0:	02812403          	lw	s0,40(sp)
     7c4:	02412483          	lw	s1,36(sp)
     7c8:	01c12983          	lw	s3,28(sp)
     7cc:	00c12b83          	lw	s7,12(sp)
     7d0:	03010113          	addi	sp,sp,48
     7d4:	00008067          	ret
     7d8:	00000493          	li	s1,0
     7dc:	00000413          	li	s0,0
     7e0:	fcdff06f          	j	7ac <runMenu+0xd8>

000007e4 <pseudoRandom>:
     7e4:	0000a737          	lui	a4,0xa
     7e8:	90072503          	lw	a0,-1792(a4) # 9900 <seed>
     7ec:	0001e7b7          	lui	a5,0x1e
     7f0:	24078793          	addi	a5,a5,576 # 1e240 <__global_pointer+0x14140>
     7f4:	02f50533          	mul	a0,a0,a5
     7f8:	00151793          	slli	a5,a0,0x1
     7fc:	90a72023          	sw	a0,-1792(a4)
     800:	0117d513          	srli	a0,a5,0x11
     804:	00008067          	ret

00000808 <newPos>:
     808:	ff010113          	addi	sp,sp,-16
     80c:	01010113          	addi	sp,sp,16
     810:	00008067          	ret

00000814 <newCell>:
     814:	00b52023          	sw	a1,0(a0)
     818:	00c52223          	sw	a2,4(a0)
     81c:	00d52423          	sw	a3,8(a0)
     820:	00052623          	sw	zero,12(a0)
     824:	00008067          	ret

00000828 <makeWalls>:
     828:	00052803          	lw	a6,0(a0)
     82c:	00452583          	lw	a1,4(a0)
     830:	03005863          	blez	a6,860 <makeWalls+0x38>
     834:	fff58893          	addi	a7,a1,-1
     838:	00489893          	slli	a7,a7,0x4
     83c:	00850793          	addi	a5,a0,8
     840:	00000713          	li	a4,0
     844:	00100693          	li	a3,1
     848:	00d7a023          	sw	a3,0(a5)
     84c:	01178633          	add	a2,a5,a7
     850:	00170713          	addi	a4,a4,1
     854:	00d62023          	sw	a3,0(a2)
     858:	14078793          	addi	a5,a5,320
     85c:	ff0716e3          	bne	a4,a6,848 <makeWalls+0x20>
     860:	00200793          	li	a5,2
     864:	04b7d063          	bge	a5,a1,8a4 <makeWalls+0x7c>
     868:	fff80813          	addi	a6,a6,-1
     86c:	00281613          	slli	a2,a6,0x2
     870:	ff850793          	addi	a5,a0,-8
     874:	00459693          	slli	a3,a1,0x4
     878:	01060633          	add	a2,a2,a6
     87c:	00f686b3          	add	a3,a3,a5
     880:	01850513          	addi	a0,a0,24
     884:	00661613          	slli	a2,a2,0x6
     888:	00100793          	li	a5,1
     88c:	00f52023          	sw	a5,0(a0)
     890:	00c50733          	add	a4,a0,a2
     894:	00f72023          	sw	a5,0(a4)
     898:	01050513          	addi	a0,a0,16
     89c:	fed518e3          	bne	a0,a3,88c <makeWalls+0x64>
     8a0:	00008067          	ret
     8a4:	00008067          	ret

000008a8 <moveEnd>:
     8a8:	00050793          	mv	a5,a0
     8ac:	00c52503          	lw	a0,12(a0)
     8b0:	00400713          	li	a4,4
     8b4:	0007a023          	sw	zero,0(a5)
     8b8:	00e52023          	sw	a4,0(a0)
     8bc:	0007a623          	sw	zero,12(a5)
     8c0:	00008067          	ret

000008c4 <moveHead>:
     8c4:	00300793          	li	a5,3
     8c8:	00f52023          	sw	a5,0(a0)
     8cc:	00b52623          	sw	a1,12(a0)
     8d0:	00200793          	li	a5,2
     8d4:	00f5a023          	sw	a5,0(a1)
     8d8:	00058513          	mv	a0,a1
     8dc:	00008067          	ret

000008e0 <newApple>:
     8e0:	ff010113          	addi	sp,sp,-16
     8e4:	00812423          	sw	s0,8(sp)
     8e8:	00112623          	sw	ra,12(sp)
     8ec:	01010413          	addi	s0,sp,16
     8f0:	00052303          	lw	t1,0(a0)
     8f4:	00452703          	lw	a4,4(a0)
     8f8:	00200693          	li	a3,2
     8fc:	ffe30793          	addi	a5,t1,-2
     900:	ffe70613          	addi	a2,a4,-2
     904:	02c787b3          	mul	a5,a5,a2
     908:	00279793          	slli	a5,a5,0x2
     90c:	00f78793          	addi	a5,a5,15
     910:	ff07f793          	andi	a5,a5,-16
     914:	40f10133          	sub	sp,sp,a5
     918:	00010813          	mv	a6,sp
     91c:	0266d463          	bge	a3,t1,944 <newApple+0x64>
     920:	00471793          	slli	a5,a4,0x4
     924:	13c50593          	addi	a1,a0,316
     928:	fff30313          	addi	t1,t1,-1
     92c:	00f585b3          	add	a1,a1,a5
     930:	00100893          	li	a7,1
     934:	08e6c063          	blt	a3,a4,9b4 <newApple+0xd4>
     938:	00188893          	addi	a7,a7,1
     93c:	14058593          	addi	a1,a1,320
     940:	fe689ae3          	bne	a7,t1,934 <newApple+0x54>
     944:	00000693          	li	a3,0
     948:	0000a637          	lui	a2,0xa
     94c:	90062703          	lw	a4,-1792(a2) # 9900 <seed>
     950:	0001e7b7          	lui	a5,0x1e
     954:	24078793          	addi	a5,a5,576 # 1e240 <__global_pointer+0x14140>
     958:	02f70733          	mul	a4,a4,a5
     95c:	00500593          	li	a1,5
     960:	00171893          	slli	a7,a4,0x1
     964:	0118d793          	srli	a5,a7,0x11
     968:	02d7f7b3          	remu	a5,a5,a3
     96c:	90e62023          	sw	a4,-1792(a2)
     970:	00279793          	slli	a5,a5,0x2
     974:	00f80833          	add	a6,a6,a5
     978:	00082783          	lw	a5,0(a6)
     97c:	0007a703          	lw	a4,0(a5)
     980:	0047a683          	lw	a3,4(a5)
     984:	00271793          	slli	a5,a4,0x2
     988:	00e787b3          	add	a5,a5,a4
     98c:	00279793          	slli	a5,a5,0x2
     990:	00d787b3          	add	a5,a5,a3
     994:	00479793          	slli	a5,a5,0x4
     998:	00f50533          	add	a0,a0,a5
     99c:	00b52423          	sw	a1,8(a0)
     9a0:	ff040113          	addi	sp,s0,-16
     9a4:	00c12083          	lw	ra,12(sp)
     9a8:	00812403          	lw	s0,8(sp)
     9ac:	01010113          	addi	sp,sp,16
     9b0:	00008067          	ret
     9b4:	02000e13          	li	t3,32
     9b8:	40fe0e33          	sub	t3,t3,a5
     9bc:	00000693          	li	a3,0
     9c0:	00be07b3          	add	a5,t3,a1
     9c4:	ffc7a603          	lw	a2,-4(a5)
     9c8:	00269713          	slli	a4,a3,0x2
     9cc:	00e80733          	add	a4,a6,a4
     9d0:	00061663          	bnez	a2,9dc <newApple+0xfc>
     9d4:	00f72023          	sw	a5,0(a4)
     9d8:	00168693          	addi	a3,a3,1
     9dc:	01078793          	addi	a5,a5,16
     9e0:	fef592e3          	bne	a1,a5,9c4 <newApple+0xe4>
     9e4:	00188893          	addi	a7,a7,1
     9e8:	14058593          	addi	a1,a1,320
     9ec:	fd131ae3          	bne	t1,a7,9c0 <newApple+0xe0>
     9f0:	f59ff06f          	j	948 <newApple+0x68>

000009f4 <getCellInDirection>:
     9f4:	00400713          	li	a4,4
     9f8:	0045a783          	lw	a5,4(a1)
     9fc:	0085a683          	lw	a3,8(a1)
     a00:	06e60863          	beq	a2,a4,a70 <getCellInDirection+0x7c>
     a04:	02c74c63          	blt	a4,a2,a3c <getCellInDirection+0x48>
     a08:	00100713          	li	a4,1
     a0c:	08e60463          	beq	a2,a4,a94 <getCellInDirection+0xa0>
     a10:	00200713          	li	a4,2
     a14:	04e61a63          	bne	a2,a4,a68 <getCellInDirection+0x74>
     a18:	00279713          	slli	a4,a5,0x2
     a1c:	00f707b3          	add	a5,a4,a5
     a20:	00168693          	addi	a3,a3,1
     a24:	00279793          	slli	a5,a5,0x2
     a28:	00d787b3          	add	a5,a5,a3
     a2c:	00479793          	slli	a5,a5,0x4
     a30:	00878793          	addi	a5,a5,8
     a34:	00f50533          	add	a0,a0,a5
     a38:	00008067          	ret
     a3c:	00800713          	li	a4,8
     a40:	02e61463          	bne	a2,a4,a68 <getCellInDirection+0x74>
     a44:	00279713          	slli	a4,a5,0x2
     a48:	00f707b3          	add	a5,a4,a5
     a4c:	fff68693          	addi	a3,a3,-1
     a50:	00279793          	slli	a5,a5,0x2
     a54:	00d787b3          	add	a5,a5,a3
     a58:	00479793          	slli	a5,a5,0x4
     a5c:	00878793          	addi	a5,a5,8
     a60:	00f50533          	add	a0,a0,a5
     a64:	00008067          	ret
     a68:	00000513          	li	a0,0
     a6c:	00008067          	ret
     a70:	00178793          	addi	a5,a5,1
     a74:	00279713          	slli	a4,a5,0x2
     a78:	00f707b3          	add	a5,a4,a5
     a7c:	00279793          	slli	a5,a5,0x2
     a80:	00d787b3          	add	a5,a5,a3
     a84:	00479793          	slli	a5,a5,0x4
     a88:	00878793          	addi	a5,a5,8
     a8c:	00f50533          	add	a0,a0,a5
     a90:	00008067          	ret
     a94:	fff78793          	addi	a5,a5,-1
     a98:	00279713          	slli	a4,a5,0x2
     a9c:	00f707b3          	add	a5,a4,a5
     aa0:	00279793          	slli	a5,a5,0x2
     aa4:	00d787b3          	add	a5,a5,a3
     aa8:	00479793          	slli	a5,a5,0x4
     aac:	00878793          	addi	a5,a5,8
     ab0:	00f50533          	add	a0,a0,a5
     ab4:	00008067          	ret

00000ab8 <game_init>:
     ab8:	00052803          	lw	a6,0(a0)
     abc:	555557b7          	lui	a5,0x55555
     ac0:	55678793          	addi	a5,a5,1366 # 55555556 <_stack_end+0x5544bb4e>
     ac4:	02f81733          	mulh	a4,a6,a5
     ac8:	00181f13          	slli	t5,a6,0x1
     acc:	0000a337          	lui	t1,0xa
     ad0:	00452883          	lw	a7,4(a0)
     ad4:	90032a23          	sw	zero,-1772(t1) # 9914 <player_score>
     ad8:	41f85693          	srai	a3,a6,0x1f
     adc:	01f8de13          	srli	t3,a7,0x1f
     ae0:	011e0e33          	add	t3,t3,a7
     ae4:	401e5e13          	srai	t3,t3,0x1
     ae8:	02ff1333          	mulh	t1,t5,a5
     aec:	40d70733          	sub	a4,a4,a3
     af0:	00271793          	slli	a5,a4,0x2
     af4:	00e787b3          	add	a5,a5,a4
     af8:	00279793          	slli	a5,a5,0x2
     afc:	01c78eb3          	add	t4,a5,t3
     b00:	004e9e93          	slli	t4,t4,0x4
     b04:	fec78793          	addi	a5,a5,-20
     b08:	008e8f93          	addi	t6,t4,8
     b0c:	01c787b3          	add	a5,a5,t3
     b10:	fff70693          	addi	a3,a4,-1
     b14:	00479793          	slli	a5,a5,0x4
     b18:	01f50733          	add	a4,a0,t6
     b1c:	41ff5f13          	srai	t5,t5,0x1f
     b20:	00e5a023          	sw	a4,0(a1)
     b24:	41e30333          	sub	t1,t1,t5
     b28:	00269713          	slli	a4,a3,0x2
     b2c:	00878793          	addi	a5,a5,8
     b30:	01d50eb3          	add	t4,a0,t4
     b34:	00200f93          	li	t6,2
     b38:	01fea423          	sw	t6,8(t4)
     b3c:	00f507b3          	add	a5,a0,a5
     b40:	00d70733          	add	a4,a4,a3
     b44:	00231693          	slli	a3,t1,0x2
     b48:	00f62023          	sw	a5,0(a2)
     b4c:	00271713          	slli	a4,a4,0x2
     b50:	006686b3          	add	a3,a3,t1
     b54:	0005a603          	lw	a2,0(a1)
     b58:	01c70733          	add	a4,a4,t3
     b5c:	00269693          	slli	a3,a3,0x2
     b60:	00471793          	slli	a5,a4,0x4
     b64:	01c686b3          	add	a3,a3,t3
     b68:	00f507b3          	add	a5,a0,a5
     b6c:	00400713          	li	a4,4
     b70:	00469693          	slli	a3,a3,0x4
     b74:	00e7a423          	sw	a4,8(a5)
     b78:	00c7aa23          	sw	a2,20(a5)
     b7c:	00500713          	li	a4,5
     b80:	00d507b3          	add	a5,a0,a3
     b84:	00e7a423          	sw	a4,8(a5)
     b88:	03005863          	blez	a6,bb8 <game_init+0x100>
     b8c:	fff88593          	addi	a1,a7,-1
     b90:	00459593          	slli	a1,a1,0x4
     b94:	00850793          	addi	a5,a0,8
     b98:	00000713          	li	a4,0
     b9c:	00100693          	li	a3,1
     ba0:	00d7a023          	sw	a3,0(a5)
     ba4:	00b78633          	add	a2,a5,a1
     ba8:	00170713          	addi	a4,a4,1
     bac:	00d62023          	sw	a3,0(a2)
     bb0:	14078793          	addi	a5,a5,320
     bb4:	fee816e3          	bne	a6,a4,ba0 <game_init+0xe8>
     bb8:	00200793          	li	a5,2
     bbc:	0517d063          	bge	a5,a7,bfc <game_init+0x144>
     bc0:	fff80813          	addi	a6,a6,-1
     bc4:	00281693          	slli	a3,a6,0x2
     bc8:	ff850613          	addi	a2,a0,-8
     bcc:	00489893          	slli	a7,a7,0x4
     bd0:	010686b3          	add	a3,a3,a6
     bd4:	01160633          	add	a2,a2,a7
     bd8:	01850513          	addi	a0,a0,24
     bdc:	00669693          	slli	a3,a3,0x6
     be0:	00100793          	li	a5,1
     be4:	00f52023          	sw	a5,0(a0)
     be8:	00d50733          	add	a4,a0,a3
     bec:	00f72023          	sw	a5,0(a4)
     bf0:	01050513          	addi	a0,a0,16
     bf4:	fec518e3          	bne	a0,a2,be4 <game_init+0x12c>
     bf8:	00008067          	ret
     bfc:	00008067          	ret

00000c00 <gameTick>:
     c00:	0000a837          	lui	a6,0xa
     c04:	90482703          	lw	a4,-1788(a6) # 9904 <snake_lastdir>
     c08:	fe010113          	addi	sp,sp,-32
     c0c:	00812c23          	sw	s0,24(sp)
     c10:	00912a23          	sw	s1,20(sp)
     c14:	01212823          	sw	s2,16(sp)
     c18:	00112e23          	sw	ra,28(sp)
     c1c:	00177793          	andi	a5,a4,1
     c20:	00058413          	mv	s0,a1
     c24:	00060493          	mv	s1,a2
     c28:	0005a583          	lw	a1,0(a1)
     c2c:	00050913          	mv	s2,a0
     c30:	04079863          	bnez	a5,c80 <gameTick+0x80>
     c34:	01f6d613          	srli	a2,a3,0x1f
     c38:	00c687b3          	add	a5,a3,a2
     c3c:	0017f793          	andi	a5,a5,1
     c40:	fff78793          	addi	a5,a5,-1
     c44:	04c78263          	beq	a5,a2,c88 <gameTick+0x88>
     c48:	00070613          	mv	a2,a4
     c4c:	da9ff0ef          	jal	9f4 <getCellInDirection>
     c50:	00050593          	mv	a1,a0
     c54:	0005a783          	lw	a5,0(a1)
     c58:	04f05a63          	blez	a5,cac <gameTick+0xac>
     c5c:	00400713          	li	a4,4
     c60:	00000513          	li	a0,0
     c64:	06f74063          	blt	a4,a5,cc4 <gameTick+0xc4>
     c68:	01c12083          	lw	ra,28(sp)
     c6c:	01812403          	lw	s0,24(sp)
     c70:	01412483          	lw	s1,20(sp)
     c74:	01012903          	lw	s2,16(sp)
     c78:	02010113          	addi	sp,sp,32
     c7c:	00008067          	ret
     c80:	0016f793          	andi	a5,a3,1
     c84:	fc0792e3          	bnez	a5,c48 <gameTick+0x48>
     c88:	00068613          	mv	a2,a3
     c8c:	00d12623          	sw	a3,12(sp)
     c90:	d65ff0ef          	jal	9f4 <getCellInDirection>
     c94:	00c12683          	lw	a3,12(sp)
     c98:	00050593          	mv	a1,a0
     c9c:	0005a783          	lw	a5,0(a1)
     ca0:	0000a837          	lui	a6,0xa
     ca4:	90d82223          	sw	a3,-1788(a6) # 9904 <snake_lastdir>
     ca8:	faf04ae3          	bgtz	a5,c5c <gameTick+0x5c>
     cac:	0004a503          	lw	a0,0(s1)
     cb0:	00b12623          	sw	a1,12(sp)
     cb4:	bf5ff0ef          	jal	8a8 <moveEnd>
     cb8:	00c12583          	lw	a1,12(sp)
     cbc:	00a4a023          	sw	a0,0(s1)
     cc0:	0240006f          	j	ce4 <gameTick+0xe4>
     cc4:	0000a737          	lui	a4,0xa
     cc8:	91472783          	lw	a5,-1772(a4) # 9914 <player_score>
     ccc:	00090513          	mv	a0,s2
     cd0:	00b12623          	sw	a1,12(sp)
     cd4:	00178793          	addi	a5,a5,1
     cd8:	90f72a23          	sw	a5,-1772(a4)
     cdc:	c05ff0ef          	jal	8e0 <newApple>
     ce0:	00c12583          	lw	a1,12(sp)
     ce4:	00042503          	lw	a0,0(s0)
     ce8:	bddff0ef          	jal	8c4 <moveHead>
     cec:	00a42023          	sw	a0,0(s0)
     cf0:	01c12083          	lw	ra,28(sp)
     cf4:	01812403          	lw	s0,24(sp)
     cf8:	01412483          	lw	s1,20(sp)
     cfc:	01012903          	lw	s2,16(sp)
     d00:	00100513          	li	a0,1
     d04:	02010113          	addi	sp,sp,32
     d08:	00008067          	ret

00000d0c <handle_interrupt>:
     d0c:	040007b7          	lui	a5,0x4000
     d10:	fe010113          	addi	sp,sp,-32
     d14:	0207d603          	lhu	a2,32(a5) # 4000020 <_stack_end+0x3ef6618>
     d18:	0000a6b7          	lui	a3,0xa
     d1c:	00812c23          	sw	s0,24(sp)
     d20:	00912a23          	sw	s1,20(sp)
     d24:	01212823          	sw	s2,16(sp)
     d28:	00112e23          	sw	ra,28(sp)
     d2c:	9046a603          	lw	a2,-1788(a3) # 9904 <snake_lastdir>
     d30:	00001737          	lui	a4,0x1
     d34:	02079023          	sh	zero,32(a5)
     d38:	b2070713          	addi	a4,a4,-1248 # b20 <game_init+0x68>
     d3c:	02878793          	addi	a5,a5,40
     d40:	00e79023          	sh	a4,0(a5)
     d44:	040007b7          	lui	a5,0x4000
     d48:	02000713          	li	a4,32
     d4c:	02e79623          	sh	a4,44(a5) # 400002c <_stack_end+0x3ef6624>
     d50:	0000a4b7          	lui	s1,0xa
     d54:	0000a7b7          	lui	a5,0xa
     d58:	0000a437          	lui	s0,0xa
     d5c:	00167713          	andi	a4,a2,1
     d60:	9104a903          	lw	s2,-1776(s1) # 9910 <game_board>
     d64:	9187a783          	lw	a5,-1768(a5) # 9918 <player_button>
     d68:	90c42583          	lw	a1,-1780(s0) # 990c <snake_head>
     d6c:	04071e63          	bnez	a4,dc8 <handle_interrupt+0xbc>
     d70:	01f7d513          	srli	a0,a5,0x1f
     d74:	00a78733          	add	a4,a5,a0
     d78:	00177713          	andi	a4,a4,1
     d7c:	fff70713          	addi	a4,a4,-1
     d80:	04a70863          	beq	a4,a0,dd0 <handle_interrupt+0xc4>
     d84:	00090513          	mv	a0,s2
     d88:	c6dff0ef          	jal	9f4 <getCellInDirection>
     d8c:	00050593          	mv	a1,a0
     d90:	0005a783          	lw	a5,0(a1)
     d94:	06f05263          	blez	a5,df8 <handle_interrupt+0xec>
     d98:	00400713          	li	a4,4
     d9c:	06f74c63          	blt	a4,a5,e14 <handle_interrupt+0x108>
     da0:	040007b7          	lui	a5,0x4000
     da4:	0247d703          	lhu	a4,36(a5) # 4000024 <_stack_end+0x3ef661c>
     da8:	01c12083          	lw	ra,28(sp)
     dac:	01812403          	lw	s0,24(sp)
     db0:	00876713          	ori	a4,a4,8
     db4:	02e79223          	sh	a4,36(a5)
     db8:	01412483          	lw	s1,20(sp)
     dbc:	01012903          	lw	s2,16(sp)
     dc0:	02010113          	addi	sp,sp,32
     dc4:	00008067          	ret
     dc8:	0017f713          	andi	a4,a5,1
     dcc:	fa071ce3          	bnez	a4,d84 <handle_interrupt+0x78>
     dd0:	00078613          	mv	a2,a5
     dd4:	00090513          	mv	a0,s2
     dd8:	00f12623          	sw	a5,12(sp)
     ddc:	c19ff0ef          	jal	9f4 <getCellInDirection>
     de0:	00c12783          	lw	a5,12(sp)
     de4:	0000a6b7          	lui	a3,0xa
     de8:	00050593          	mv	a1,a0
     dec:	90f6a223          	sw	a5,-1788(a3) # 9904 <snake_lastdir>
     df0:	0005a783          	lw	a5,0(a1)
     df4:	faf042e3          	bgtz	a5,d98 <handle_interrupt+0x8c>
     df8:	0000a937          	lui	s2,0xa
     dfc:	90892503          	lw	a0,-1784(s2) # 9908 <snake_end>
     e00:	00b12623          	sw	a1,12(sp)
     e04:	aa5ff0ef          	jal	8a8 <moveEnd>
     e08:	00c12583          	lw	a1,12(sp)
     e0c:	90a92423          	sw	a0,-1784(s2)
     e10:	0240006f          	j	e34 <handle_interrupt+0x128>
     e14:	0000a737          	lui	a4,0xa
     e18:	91472783          	lw	a5,-1772(a4) # 9914 <player_score>
     e1c:	00090513          	mv	a0,s2
     e20:	00b12623          	sw	a1,12(sp)
     e24:	00178793          	addi	a5,a5,1
     e28:	90f72a23          	sw	a5,-1772(a4)
     e2c:	ab5ff0ef          	jal	8e0 <newApple>
     e30:	00c12583          	lw	a1,12(sp)
     e34:	90c42503          	lw	a0,-1780(s0)
     e38:	a8dff0ef          	jal	8c4 <moveHead>
     e3c:	00050793          	mv	a5,a0
     e40:	9104a503          	lw	a0,-1776(s1)
     e44:	90f42623          	sw	a5,-1780(s0)
     e48:	2a4000ef          	jal	10ec <drawBoard>
     e4c:	040007b7          	lui	a5,0x4000
     e50:	0247d703          	lhu	a4,36(a5) # 4000024 <_stack_end+0x3ef661c>
     e54:	01c12083          	lw	ra,28(sp)
     e58:	01812403          	lw	s0,24(sp)
     e5c:	00476713          	ori	a4,a4,4
     e60:	02e79223          	sh	a4,36(a5)
     e64:	01412483          	lw	s1,20(sp)
     e68:	01012903          	lw	s2,16(sp)
     e6c:	02010113          	addi	sp,sp,32
     e70:	00008067          	ret

00000e74 <timer_init>:
     e74:	ff010113          	addi	sp,sp,-16
     e78:	00812423          	sw	s0,8(sp)
     e7c:	04000437          	lui	s0,0x4000
     e80:	02445783          	lhu	a5,36(s0) # 4000024 <_stack_end+0x3ef661c>
     e84:	00112623          	sw	ra,12(sp)
     e88:	000016b7          	lui	a3,0x1
     e8c:	0017e793          	ori	a5,a5,1
     e90:	02f41223          	sh	a5,36(s0)
     e94:	b2068693          	addi	a3,a3,-1248 # b20 <game_init+0x68>
     e98:	02d41423          	sh	a3,40(s0)
     e9c:	02000713          	li	a4,32
     ea0:	02e41623          	sh	a4,44(s0)
     ea4:	ad0ff0ef          	jal	174 <enable_interrupt>
     ea8:	02445783          	lhu	a5,36(s0)
     eac:	00c12083          	lw	ra,12(sp)
     eb0:	0047e793          	ori	a5,a5,4
     eb4:	02f41223          	sh	a5,36(s0)
     eb8:	00812403          	lw	s0,8(sp)
     ebc:	01010113          	addi	sp,sp,16
     ec0:	00008067          	ret

00000ec4 <runGame>:
     ec4:	fffff2b7          	lui	t0,0xfffff
     ec8:	81010113          	addi	sp,sp,-2032
     ecc:	eb028293          	addi	t0,t0,-336 # ffffeeb0 <_stack_end+0xffef54a8>
     ed0:	7e912223          	sw	s1,2020(sp)
     ed4:	7d312e23          	sw	s3,2012(sp)
     ed8:	7e112623          	sw	ra,2028(sp)
     edc:	7e812423          	sw	s0,2024(sp)
     ee0:	7f212023          	sw	s2,2016(sp)
     ee4:	7d412c23          	sw	s4,2008(sp)
     ee8:	7d512a23          	sw	s5,2004(sp)
     eec:	00510133          	add	sp,sp,t0
     ef0:	92010493          	addi	s1,sp,-1760
     ef4:	01400793          	li	a5,20
     ef8:	6ef4ac23          	sw	a5,1784(s1)
     efc:	6ef4ae23          	sw	a5,1788(s1)
     f00:	00000993          	li	s3,0
     f04:	00299a13          	slli	s4,s3,0x2
     f08:	013a0a33          	add	s4,s4,s3
     f0c:	002a1a13          	slli	s4,s4,0x2
     f10:	00000913          	li	s2,0
     f14:	00090693          	mv	a3,s2
     f18:	00098613          	mv	a2,s3
     f1c:	00000593          	li	a1,0
     f20:	00010513          	mv	a0,sp
     f24:	8f1ff0ef          	jal	814 <newCell>
     f28:	6e44a703          	lw	a4,1764(s1)
     f2c:	6e84a783          	lw	a5,1768(s1)
     f30:	6e04a683          	lw	a3,1760(s1)
     f34:	012a0433          	add	s0,s4,s2
     f38:	00441413          	slli	s0,s0,0x4
     f3c:	00848433          	add	s0,s1,s0
     f40:	70f42423          	sw	a5,1800(s0)
     f44:	70d42023          	sw	a3,1792(s0)
     f48:	70e42223          	sw	a4,1796(s0)
     f4c:	6ec4a703          	lw	a4,1772(s1)
     f50:	6fc4a783          	lw	a5,1788(s1)
     f54:	00190913          	addi	s2,s2,1
     f58:	70e42623          	sw	a4,1804(s0)
     f5c:	faf94ce3          	blt	s2,a5,f14 <runGame+0x50>
     f60:	6f84a703          	lw	a4,1784(s1)
     f64:	00198993          	addi	s3,s3,1
     f68:	00e9d463          	bge	s3,a4,f70 <runGame+0xac>
     f6c:	f8f04ce3          	bgtz	a5,f04 <runGame+0x40>
     f70:	01810493          	addi	s1,sp,24
     f74:	00048513          	mv	a0,s1
     f78:	01410613          	addi	a2,sp,20
     f7c:	01010593          	addi	a1,sp,16
     f80:	b39ff0ef          	jal	ab8 <game_init>
     f84:	01412703          	lw	a4,20(sp)
     f88:	04000437          	lui	s0,0x4000
     f8c:	0000a7b7          	lui	a5,0xa
     f90:	90e7a423          	sw	a4,-1784(a5) # 9908 <snake_end>
     f94:	01012603          	lw	a2,16(sp)
     f98:	02445783          	lhu	a5,36(s0) # 4000024 <_stack_end+0x3ef661c>
     f9c:	0000a5b7          	lui	a1,0xa
     fa0:	0000a6b7          	lui	a3,0xa
     fa4:	90c6a623          	sw	a2,-1780(a3) # 990c <snake_head>
     fa8:	9095a823          	sw	s1,-1776(a1) # 9910 <game_board>
     fac:	0017e793          	ori	a5,a5,1
     fb0:	000016b7          	lui	a3,0x1
     fb4:	02f41223          	sh	a5,36(s0)
     fb8:	b2068693          	addi	a3,a3,-1248 # b20 <game_init+0x68>
     fbc:	02d41423          	sh	a3,40(s0)
     fc0:	02000713          	li	a4,32
     fc4:	02e41623          	sh	a4,44(s0)
     fc8:	9acff0ef          	jal	174 <enable_interrupt>
     fcc:	02445783          	lhu	a5,36(s0)
     fd0:	02040713          	addi	a4,s0,32
     fd4:	02440413          	addi	s0,s0,36
     fd8:	0047e793          	ori	a5,a5,4
     fdc:	00f41023          	sh	a5,0(s0)
     fe0:	00075783          	lhu	a5,0(a4)
     fe4:	0027f793          	andi	a5,a5,2
     fe8:	fe079ce3          	bnez	a5,fe0 <runGame+0x11c>
     fec:	0000a7b7          	lui	a5,0xa
     ff0:	9147a503          	lw	a0,-1772(a5) # 9914 <player_score>
     ff4:	9e0ff0ef          	jal	1d4 <print_dec>
     ff8:	000012b7          	lui	t0,0x1
     ffc:	15028293          	addi	t0,t0,336 # 1150 <drawBoard+0x64>
    1000:	00510133          	add	sp,sp,t0
    1004:	7ec12083          	lw	ra,2028(sp)
    1008:	7e812403          	lw	s0,2024(sp)
    100c:	7e412483          	lw	s1,2020(sp)
    1010:	7e012903          	lw	s2,2016(sp)
    1014:	7dc12983          	lw	s3,2012(sp)
    1018:	7d812a03          	lw	s4,2008(sp)
    101c:	7d412a83          	lw	s5,2004(sp)
    1020:	00000513          	li	a0,0
    1024:	7f010113          	addi	sp,sp,2032
    1028:	00008067          	ret

0000102c <drawPixel>:
    102c:	00259793          	slli	a5,a1,0x2
    1030:	00b785b3          	add	a1,a5,a1
    1034:	00659593          	slli	a1,a1,0x6
    1038:	00a585b3          	add	a1,a1,a0
    103c:	080007b7          	lui	a5,0x8000
    1040:	00f585b3          	add	a1,a1,a5
    1044:	00c58023          	sb	a2,0(a1)
    1048:	00008067          	ret

0000104c <drawCell>:
    104c:	00052783          	lw	a5,0(a0)
    1050:	00400713          	li	a4,4
    1054:	00000813          	li	a6,0
    1058:	fff78793          	addi	a5,a5,-1 # 7ffffff <_stack_end+0x7ef65f7>
    105c:	00f76c63          	bltu	a4,a5,1074 <drawCell+0x28>
    1060:	0000a737          	lui	a4,0xa
    1064:	00279793          	slli	a5,a5,0x2
    1068:	94070713          	addi	a4,a4,-1728 # 9940 <CSWTCH.4>
    106c:	00f707b3          	add	a5,a4,a5
    1070:	0007a803          	lw	a6,0(a5)
    1074:	00452783          	lw	a5,4(a0)
    1078:	00852683          	lw	a3,8(a0)
    107c:	00001e37          	lui	t3,0x1
    1080:	00379893          	slli	a7,a5,0x3
    1084:	00f888b3          	add	a7,a7,a5
    1088:	08002337          	lui	t1,0x8002
    108c:	04688893          	addi	a7,a7,70
    1090:	00369593          	slli	a1,a3,0x3
    1094:	b40e0e13          	addi	t3,t3,-1216 # b40 <game_init+0x88>
    1098:	58030313          	addi	t1,t1,1408 # 8002580 <_stack_end+0x7ef8b78>
    109c:	03c68733          	mul	a4,a3,t3
    10a0:	00d585b3          	add	a1,a1,a3
    10a4:	01e58613          	addi	a2,a1,30
    10a8:	01170733          	add	a4,a4,a7
    10ac:	00670733          	add	a4,a4,t1
    10b0:	01070023          	sb	a6,0(a4)
    10b4:	00852683          	lw	a3,8(a0)
    10b8:	00160613          	addi	a2,a2,1
    10bc:	14070713          	addi	a4,a4,320
    10c0:	00369593          	slli	a1,a3,0x3
    10c4:	00d587b3          	add	a5,a1,a3
    10c8:	02678793          	addi	a5,a5,38
    10cc:	fec7d2e3          	bge	a5,a2,10b0 <drawCell+0x64>
    10d0:	00452703          	lw	a4,4(a0)
    10d4:	00188893          	addi	a7,a7,1
    10d8:	00371793          	slli	a5,a4,0x3
    10dc:	00e787b3          	add	a5,a5,a4
    10e0:	04e78793          	addi	a5,a5,78
    10e4:	fb17dce3          	bge	a5,a7,109c <drawCell+0x50>
    10e8:	00008067          	ret

000010ec <drawBoard>:
    10ec:	00052783          	lw	a5,0(a0)
    10f0:	0ef05863          	blez	a5,11e0 <drawBoard+0xf4>
    10f4:	00452783          	lw	a5,4(a0)
    10f8:	ff010113          	addi	sp,sp,-16
    10fc:	00812623          	sw	s0,12(sp)
    1100:	0000a2b7          	lui	t0,0xa
    1104:	00001eb7          	lui	t4,0x1
    1108:	08002e37          	lui	t3,0x8002
    110c:	94028293          	addi	t0,t0,-1728 # 9940 <CSWTCH.4>
    1110:	b40e8e93          	addi	t4,t4,-1216 # b40 <game_init+0x88>
    1114:	580e0e13          	addi	t3,t3,1408 # 8002580 <_stack_end+0x7ef8b78>
    1118:	00050413          	mv	s0,a0
    111c:	00000393          	li	t2,0
    1120:	00400f93          	li	t6,4
    1124:	0af05863          	blez	a5,11d4 <drawBoard+0xe8>
    1128:	00040813          	mv	a6,s0
    112c:	00000f13          	li	t5,0
    1130:	00882783          	lw	a5,8(a6)
    1134:	00000893          	li	a7,0
    1138:	fff78793          	addi	a5,a5,-1
    113c:	00ffe863          	bltu	t6,a5,114c <drawBoard+0x60>
    1140:	00279793          	slli	a5,a5,0x2
    1144:	00f287b3          	add	a5,t0,a5
    1148:	0007a883          	lw	a7,0(a5)
    114c:	00c82783          	lw	a5,12(a6)
    1150:	01082683          	lw	a3,16(a6)
    1154:	00379313          	slli	t1,a5,0x3
    1158:	00f30333          	add	t1,t1,a5
    115c:	04630313          	addi	t1,t1,70
    1160:	00369593          	slli	a1,a3,0x3
    1164:	03d68733          	mul	a4,a3,t4
    1168:	00d585b3          	add	a1,a1,a3
    116c:	01e58613          	addi	a2,a1,30
    1170:	00670733          	add	a4,a4,t1
    1174:	01c70733          	add	a4,a4,t3
    1178:	01170023          	sb	a7,0(a4)
    117c:	01082683          	lw	a3,16(a6)
    1180:	00160613          	addi	a2,a2,1
    1184:	14070713          	addi	a4,a4,320
    1188:	00369593          	slli	a1,a3,0x3
    118c:	00d587b3          	add	a5,a1,a3
    1190:	02678793          	addi	a5,a5,38
    1194:	fec7d2e3          	bge	a5,a2,1178 <drawBoard+0x8c>
    1198:	00c82703          	lw	a4,12(a6)
    119c:	00130313          	addi	t1,t1,1
    11a0:	00371793          	slli	a5,a4,0x3
    11a4:	00e787b3          	add	a5,a5,a4
    11a8:	04e78793          	addi	a5,a5,78
    11ac:	fa67dce3          	bge	a5,t1,1164 <drawBoard+0x78>
    11b0:	00452783          	lw	a5,4(a0)
    11b4:	001f0f13          	addi	t5,t5,1
    11b8:	01080813          	addi	a6,a6,16
    11bc:	f6ff4ae3          	blt	t5,a5,1130 <drawBoard+0x44>
    11c0:	00052703          	lw	a4,0(a0)
    11c4:	00138393          	addi	t2,t2,1
    11c8:	00e3d663          	bge	t2,a4,11d4 <drawBoard+0xe8>
    11cc:	14040413          	addi	s0,s0,320
    11d0:	f4f04ce3          	bgtz	a5,1128 <drawBoard+0x3c>
    11d4:	00c12403          	lw	s0,12(sp)
    11d8:	01010113          	addi	sp,sp,16
    11dc:	00008067          	ret
    11e0:	00008067          	ret

000011e4 <clearScreen>:
    11e4:	08013737          	lui	a4,0x8013
    11e8:	c0070713          	addi	a4,a4,-1024 # 8012c00 <_stack_end+0x7f091f8>
    11ec:	080007b7          	lui	a5,0x8000
    11f0:	00078023          	sb	zero,0(a5) # 8000000 <_stack_end+0x7ef65f8>
    11f4:	00178793          	addi	a5,a5,1
    11f8:	fee79ce3          	bne	a5,a4,11f0 <clearScreen+0xc>
    11fc:	00008067          	ret

00001200 <drawMenuHighlight>:
    1200:	00259793          	slli	a5,a1,0x2
    1204:	fe010113          	addi	sp,sp,-32
    1208:	00b787b3          	add	a5,a5,a1
    120c:	01512223          	sw	s5,4(sp)
    1210:	00050a93          	mv	s5,a0
    1214:	00179513          	slli	a0,a5,0x1
    1218:	00112e23          	sw	ra,28(sp)
    121c:	00812c23          	sw	s0,24(sp)
    1220:	00912a23          	sw	s1,20(sp)
    1224:	01212823          	sw	s2,16(sp)
    1228:	01312623          	sw	s3,12(sp)
    122c:	01412423          	sw	s4,8(sp)
    1230:	6a4010ef          	jal	28d4 <__floatsidf>
    1234:	0000aa37          	lui	s4,0xa
    1238:	9e0a2603          	lw	a2,-1568(s4) # 99e0 <CSWTCH.4+0xa0>
    123c:	9e4a2683          	lw	a3,-1564(s4)
    1240:	0000a9b7          	lui	s3,0xa
    1244:	0000a937          	lui	s2,0xa
    1248:	07c010ef          	jal	22c4 <__adddf3>
    124c:	9e89a603          	lw	a2,-1560(s3) # 99e8 <CSWTCH.4+0xa8>
    1250:	9ec9a683          	lw	a3,-1556(s3)
    1254:	0000a4b7          	lui	s1,0xa
    1258:	0000a437          	lui	s0,0xa
    125c:	378010ef          	jal	25d4 <__divdf3>
    1260:	9f092603          	lw	a2,-1552(s2) # 99f0 <CSWTCH.4+0xb0>
    1264:	9f492683          	lw	a3,-1548(s2)
    1268:	6ac010ef          	jal	2914 <__muldf3>
    126c:	9f84a603          	lw	a2,-1544(s1) # 99f8 <CSWTCH.4+0xb8>
    1270:	9fc4a683          	lw	a3,-1540(s1)
    1274:	050010ef          	jal	22c4 <__adddf3>
    1278:	a0442683          	lw	a3,-1532(s0) # 9a04 <CSWTCH.4+0xc4>
    127c:	a0042603          	lw	a2,-1536(s0)
    1280:	044010ef          	jal	22c4 <__adddf3>
    1284:	009010ef          	jal	2a8c <__truncdfsf2>
    1288:	5fc010ef          	jal	2884 <__fixsfsi>
    128c:	00251793          	slli	a5,a0,0x2
    1290:	00a78733          	add	a4,a5,a0
    1294:	080006b7          	lui	a3,0x8000
    1298:	080007b7          	lui	a5,0x8000
    129c:	00671713          	slli	a4,a4,0x6
    12a0:	06078793          	addi	a5,a5,96 # 8000060 <_stack_end+0x7ef6658>
    12a4:	0e068693          	addi	a3,a3,224 # 80000e0 <_stack_end+0x7ef66d8>
    12a8:	00f707b3          	add	a5,a4,a5
    12ac:	00d70733          	add	a4,a4,a3
    12b0:	00078023          	sb	zero,0(a5)
    12b4:	14078023          	sb	zero,320(a5)
    12b8:	28078023          	sb	zero,640(a5)
    12bc:	00178793          	addi	a5,a5,1
    12c0:	fef718e3          	bne	a4,a5,12b0 <drawMenuHighlight+0xb0>
    12c4:	002a9513          	slli	a0,s5,0x2
    12c8:	01550533          	add	a0,a0,s5
    12cc:	00151513          	slli	a0,a0,0x1
    12d0:	604010ef          	jal	28d4 <__floatsidf>
    12d4:	9e0a2603          	lw	a2,-1568(s4)
    12d8:	9e4a2683          	lw	a3,-1564(s4)
    12dc:	7e9000ef          	jal	22c4 <__adddf3>
    12e0:	9e89a603          	lw	a2,-1560(s3)
    12e4:	9ec9a683          	lw	a3,-1556(s3)
    12e8:	2ec010ef          	jal	25d4 <__divdf3>
    12ec:	9f092603          	lw	a2,-1552(s2)
    12f0:	9f492683          	lw	a3,-1548(s2)
    12f4:	620010ef          	jal	2914 <__muldf3>
    12f8:	9f84a603          	lw	a2,-1544(s1)
    12fc:	9fc4a683          	lw	a3,-1540(s1)
    1300:	7c5000ef          	jal	22c4 <__adddf3>
    1304:	a0442683          	lw	a3,-1532(s0)
    1308:	a0042603          	lw	a2,-1536(s0)
    130c:	7b9000ef          	jal	22c4 <__adddf3>
    1310:	77c010ef          	jal	2a8c <__truncdfsf2>
    1314:	570010ef          	jal	2884 <__fixsfsi>
    1318:	00251793          	slli	a5,a0,0x2
    131c:	00a786b3          	add	a3,a5,a0
    1320:	08000737          	lui	a4,0x8000
    1324:	080007b7          	lui	a5,0x8000
    1328:	00669693          	slli	a3,a3,0x6
    132c:	0e070713          	addi	a4,a4,224 # 80000e0 <_stack_end+0x7ef66d8>
    1330:	06078793          	addi	a5,a5,96 # 8000060 <_stack_end+0x7ef6658>
    1334:	00f687b3          	add	a5,a3,a5
    1338:	00e686b3          	add	a3,a3,a4
    133c:	01c00713          	li	a4,28
    1340:	00e78023          	sb	a4,0(a5)
    1344:	14e78023          	sb	a4,320(a5)
    1348:	28e78023          	sb	a4,640(a5)
    134c:	00178793          	addi	a5,a5,1
    1350:	fef698e3          	bne	a3,a5,1340 <drawMenuHighlight+0x140>
    1354:	01c12083          	lw	ra,28(sp)
    1358:	01812403          	lw	s0,24(sp)
    135c:	01412483          	lw	s1,20(sp)
    1360:	01012903          	lw	s2,16(sp)
    1364:	00c12983          	lw	s3,12(sp)
    1368:	00812a03          	lw	s4,8(sp)
    136c:	00412a83          	lw	s5,4(sp)
    1370:	02010113          	addi	sp,sp,32
    1374:	00008067          	ret

00001378 <drawMainMenu>:
    1378:	0000a637          	lui	a2,0xa
    137c:	ffff98b7          	lui	a7,0xffff9
    1380:	08002837          	lui	a6,0x8002
    1384:	90060613          	addi	a2,a2,-1792 # 9900 <seed>
    1388:	2a088893          	addi	a7,a7,672 # ffff92a0 <_stack_end+0xffeef898>
    138c:	5d080813          	addi	a6,a6,1488 # 80025d0 <_stack_end+0x7ef8bc8>
    1390:	00000513          	li	a0,0
    1394:	fff00593          	li	a1,-1
    1398:	0a000313          	li	t1,160
    139c:	011607b3          	add	a5,a2,a7
    13a0:	01050733          	add	a4,a0,a6
    13a4:	0140006f          	j	13b8 <drawMainMenu+0x40>
    13a8:	00b70023          	sb	a1,0(a4)
    13ac:	0a078793          	addi	a5,a5,160
    13b0:	14070713          	addi	a4,a4,320
    13b4:	00f60e63          	beq	a2,a5,13d0 <drawMainMenu+0x58>
    13b8:	0007c683          	lbu	a3,0(a5)
    13bc:	fe0696e3          	bnez	a3,13a8 <drawMainMenu+0x30>
    13c0:	00070023          	sb	zero,0(a4)
    13c4:	0a078793          	addi	a5,a5,160
    13c8:	14070713          	addi	a4,a4,320
    13cc:	fef616e3          	bne	a2,a5,13b8 <drawMainMenu+0x40>
    13d0:	00150513          	addi	a0,a0,1
    13d4:	00160613          	addi	a2,a2,1
    13d8:	fc6512e3          	bne	a0,t1,139c <drawMainMenu+0x24>
    13dc:	00008067          	ret

000013e0 <drawNumber>:
    13e0:	dd010113          	addi	sp,sp,-560
    13e4:	00012023          	sw	zero,0(sp)
    13e8:	00012223          	sw	zero,4(sp)
    13ec:	00012423          	sw	zero,8(sp)
    13f0:	00012623          	sw	zero,12(sp)
    13f4:	00012823          	sw	zero,16(sp)
    13f8:	00012a23          	sw	zero,20(sp)
    13fc:	00012c23          	sw	zero,24(sp)
    1400:	00012e23          	sw	zero,28(sp)
    1404:	02012023          	sw	zero,32(sp)
    1408:	02012223          	sw	zero,36(sp)
    140c:	02012423          	sw	zero,40(sp)
    1410:	02012623          	sw	zero,44(sp)
    1414:	02012823          	sw	zero,48(sp)
    1418:	02012a23          	sw	zero,52(sp)
    141c:	02012c23          	sw	zero,56(sp)
    1420:	02012e23          	sw	zero,60(sp)
    1424:	04012023          	sw	zero,64(sp)
    1428:	04012223          	sw	zero,68(sp)
    142c:	04012423          	sw	zero,72(sp)
    1430:	04012623          	sw	zero,76(sp)
    1434:	04012823          	sw	zero,80(sp)
    1438:	04012a23          	sw	zero,84(sp)
    143c:	04012c23          	sw	zero,88(sp)
    1440:	04012e23          	sw	zero,92(sp)
    1444:	06012023          	sw	zero,96(sp)
    1448:	06012223          	sw	zero,100(sp)
    144c:	06012423          	sw	zero,104(sp)
    1450:	06012623          	sw	zero,108(sp)
    1454:	06012823          	sw	zero,112(sp)
    1458:	06012a23          	sw	zero,116(sp)
    145c:	06012c23          	sw	zero,120(sp)
    1460:	06012e23          	sw	zero,124(sp)
    1464:	08012023          	sw	zero,128(sp)
    1468:	08012223          	sw	zero,132(sp)
    146c:	08012423          	sw	zero,136(sp)
    1470:	08012623          	sw	zero,140(sp)
    1474:	08012823          	sw	zero,144(sp)
    1478:	08012a23          	sw	zero,148(sp)
    147c:	08012c23          	sw	zero,152(sp)
    1480:	08012e23          	sw	zero,156(sp)
    1484:	0a012023          	sw	zero,160(sp)
    1488:	0a012223          	sw	zero,164(sp)
    148c:	0a012423          	sw	zero,168(sp)
    1490:	0a012623          	sw	zero,172(sp)
    1494:	0a012823          	sw	zero,176(sp)
    1498:	0a012a23          	sw	zero,180(sp)
    149c:	0a012c23          	sw	zero,184(sp)
    14a0:	0a012e23          	sw	zero,188(sp)
    14a4:	0c012023          	sw	zero,192(sp)
    14a8:	0c012223          	sw	zero,196(sp)
    14ac:	0c012423          	sw	zero,200(sp)
    14b0:	0c012623          	sw	zero,204(sp)
    14b4:	0c012823          	sw	zero,208(sp)
    14b8:	0c012a23          	sw	zero,212(sp)
    14bc:	0c012c23          	sw	zero,216(sp)
    14c0:	0c012e23          	sw	zero,220(sp)
    14c4:	0e012023          	sw	zero,224(sp)
    14c8:	0e012223          	sw	zero,228(sp)
    14cc:	0e012423          	sw	zero,232(sp)
    14d0:	0e012623          	sw	zero,236(sp)
    14d4:	0e012823          	sw	zero,240(sp)
    14d8:	0e012a23          	sw	zero,244(sp)
    14dc:	0e012c23          	sw	zero,248(sp)
    14e0:	0e012e23          	sw	zero,252(sp)
    14e4:	10012023          	sw	zero,256(sp)
    14e8:	10012223          	sw	zero,260(sp)
    14ec:	10012423          	sw	zero,264(sp)
    14f0:	10012623          	sw	zero,268(sp)
    14f4:	10012823          	sw	zero,272(sp)
    14f8:	10012a23          	sw	zero,276(sp)
    14fc:	10012c23          	sw	zero,280(sp)
    1500:	10012e23          	sw	zero,284(sp)
    1504:	12012023          	sw	zero,288(sp)
    1508:	12012223          	sw	zero,292(sp)
    150c:	12012423          	sw	zero,296(sp)
    1510:	12012623          	sw	zero,300(sp)
    1514:	12012823          	sw	zero,304(sp)
    1518:	12012a23          	sw	zero,308(sp)
    151c:	12012c23          	sw	zero,312(sp)
    1520:	12012e23          	sw	zero,316(sp)
    1524:	14012023          	sw	zero,320(sp)
    1528:	14012223          	sw	zero,324(sp)
    152c:	14012423          	sw	zero,328(sp)
    1530:	14012623          	sw	zero,332(sp)
    1534:	14012823          	sw	zero,336(sp)
    1538:	14012a23          	sw	zero,340(sp)
    153c:	14012c23          	sw	zero,344(sp)
    1540:	14012e23          	sw	zero,348(sp)
    1544:	16012023          	sw	zero,352(sp)
    1548:	16012223          	sw	zero,356(sp)
    154c:	16012423          	sw	zero,360(sp)
    1550:	16012623          	sw	zero,364(sp)
    1554:	16012823          	sw	zero,368(sp)
    1558:	16012a23          	sw	zero,372(sp)
    155c:	16012c23          	sw	zero,376(sp)
    1560:	16012e23          	sw	zero,380(sp)
    1564:	18012023          	sw	zero,384(sp)
    1568:	18012223          	sw	zero,388(sp)
    156c:	18012423          	sw	zero,392(sp)
    1570:	18012623          	sw	zero,396(sp)
    1574:	18012823          	sw	zero,400(sp)
    1578:	18012a23          	sw	zero,404(sp)
    157c:	18012c23          	sw	zero,408(sp)
    1580:	18012e23          	sw	zero,412(sp)
    1584:	1a012023          	sw	zero,416(sp)
    1588:	1a012223          	sw	zero,420(sp)
    158c:	1a012423          	sw	zero,424(sp)
    1590:	1a012623          	sw	zero,428(sp)
    1594:	1a012823          	sw	zero,432(sp)
    1598:	1a012a23          	sw	zero,436(sp)
    159c:	1a012c23          	sw	zero,440(sp)
    15a0:	1a012e23          	sw	zero,444(sp)
    15a4:	1c012023          	sw	zero,448(sp)
    15a8:	1c012223          	sw	zero,452(sp)
    15ac:	1c012423          	sw	zero,456(sp)
    15b0:	1c012623          	sw	zero,460(sp)
    15b4:	1c012823          	sw	zero,464(sp)
    15b8:	1c012a23          	sw	zero,468(sp)
    15bc:	1c012c23          	sw	zero,472(sp)
    15c0:	1c012e23          	sw	zero,476(sp)
    15c4:	1e012023          	sw	zero,480(sp)
    15c8:	1e012223          	sw	zero,484(sp)
    15cc:	1e012423          	sw	zero,488(sp)
    15d0:	1e012623          	sw	zero,492(sp)
    15d4:	1e012823          	sw	zero,496(sp)
    15d8:	1e012a23          	sw	zero,500(sp)
    15dc:	1e012c23          	sw	zero,504(sp)
    15e0:	1e012e23          	sw	zero,508(sp)
    15e4:	20012023          	sw	zero,512(sp)
    15e8:	20012223          	sw	zero,516(sp)
    15ec:	20012423          	sw	zero,520(sp)
    15f0:	00800793          	li	a5,8
    15f4:	20012623          	sw	zero,524(sp)
    15f8:	20012823          	sw	zero,528(sp)
    15fc:	20012a23          	sw	zero,532(sp)
    1600:	20012c23          	sw	zero,536(sp)
    1604:	20012e23          	sw	zero,540(sp)
    1608:	22012023          	sw	zero,544(sp)
    160c:	22012223          	sw	zero,548(sp)
    1610:	22012423          	sw	zero,552(sp)
    1614:	22012623          	sw	zero,556(sp)
    1618:	2ea7e4e3          	bltu	a5,a0,2100 <drawNumber+0xd20>
    161c:	0000a737          	lui	a4,0xa
    1620:	00251793          	slli	a5,a0,0x2
    1624:	91c70713          	addi	a4,a4,-1764 # 991c <player_button+0x4>
    1628:	00e787b3          	add	a5,a5,a4
    162c:	0007a783          	lw	a5,0(a5)
    1630:	00078067          	jr	a5
    1634:	00100793          	li	a5,1
    1638:	00f12223          	sw	a5,4(sp)
    163c:	00f12423          	sw	a5,8(sp)
    1640:	00f12623          	sw	a5,12(sp)
    1644:	00f12823          	sw	a5,16(sp)
    1648:	00f12a23          	sw	a5,20(sp)
    164c:	00f12c23          	sw	a5,24(sp)
    1650:	00f12e23          	sw	a5,28(sp)
    1654:	02f12023          	sw	a5,32(sp)
    1658:	02f12223          	sw	a5,36(sp)
    165c:	02f12623          	sw	a5,44(sp)
    1660:	02f12823          	sw	a5,48(sp)
    1664:	02f12a23          	sw	a5,52(sp)
    1668:	02f12c23          	sw	a5,56(sp)
    166c:	02f12e23          	sw	a5,60(sp)
    1670:	04f12023          	sw	a5,64(sp)
    1674:	04f12223          	sw	a5,68(sp)
    1678:	04f12423          	sw	a5,72(sp)
    167c:	04f12623          	sw	a5,76(sp)
    1680:	0ef12e23          	sw	a5,252(sp)
    1684:	10f12023          	sw	a5,256(sp)
    1688:	10f12223          	sw	a5,260(sp)
    168c:	10f12423          	sw	a5,264(sp)
    1690:	10f12623          	sw	a5,268(sp)
    1694:	10f12823          	sw	a5,272(sp)
    1698:	10f12a23          	sw	a5,276(sp)
    169c:	12f12223          	sw	a5,292(sp)
    16a0:	12f12423          	sw	a5,296(sp)
    16a4:	12f12623          	sw	a5,300(sp)
    16a8:	12f12823          	sw	a5,304(sp)
    16ac:	12f12a23          	sw	a5,308(sp)
    16b0:	12f12c23          	sw	a5,312(sp)
    16b4:	12f12e23          	sw	a5,316(sp)
    16b8:	08f12c23          	sw	a5,152(sp)
    16bc:	08f12a23          	sw	a5,148(sp)
    16c0:	06f12823          	sw	a5,112(sp)
    16c4:	06f12623          	sw	a5,108(sp)
    16c8:	0af12c23          	sw	a5,184(sp)
    16cc:	0af12e23          	sw	a5,188(sp)
    16d0:	0ef12023          	sw	a5,224(sp)
    16d4:	0ef12223          	sw	a5,228(sp)
    16d8:	14f12a23          	sw	a5,340(sp)
    16dc:	14f12c23          	sw	a5,344(sp)
    16e0:	16f12e23          	sw	a5,380(sp)
    16e4:	18f12023          	sw	a5,384(sp)
    16e8:	1af12023          	sw	a5,416(sp)
    16ec:	1af12223          	sw	a5,420(sp)
    16f0:	1cf12423          	sw	a5,456(sp)
    16f4:	1cf12623          	sw	a5,460(sp)
    16f8:	1ef12623          	sw	a5,492(sp)
    16fc:	1ef12823          	sw	a5,496(sp)
    1700:	20f12a23          	sw	a5,532(sp)
    1704:	20f12c23          	sw	a5,536(sp)
    1708:	080017b7          	lui	a5,0x8001
    170c:	a4f78793          	addi	a5,a5,-1457 # 8000a4f <_stack_end+0x7ef7047>
    1710:	00f58733          	add	a4,a1,a5
    1714:	fff00693          	li	a3,-1
    1718:	00010793          	mv	a5,sp
    171c:	0840006f          	j	17a0 <drawNumber+0x3c0>
    1720:	fe070ba3          	sb	zero,-9(a4)
    1724:	0047a603          	lw	a2,4(a5)
    1728:	08061663          	bnez	a2,17b4 <drawNumber+0x3d4>
    172c:	fe070c23          	sb	zero,-8(a4)
    1730:	0087a603          	lw	a2,8(a5)
    1734:	08061663          	bnez	a2,17c0 <drawNumber+0x3e0>
    1738:	fe070ca3          	sb	zero,-7(a4)
    173c:	00c7a603          	lw	a2,12(a5)
    1740:	08061663          	bnez	a2,17cc <drawNumber+0x3ec>
    1744:	fe070d23          	sb	zero,-6(a4)
    1748:	0107a603          	lw	a2,16(a5)
    174c:	08061663          	bnez	a2,17d8 <drawNumber+0x3f8>
    1750:	fe070da3          	sb	zero,-5(a4)
    1754:	0147a603          	lw	a2,20(a5)
    1758:	08061663          	bnez	a2,17e4 <drawNumber+0x404>
    175c:	fe070e23          	sb	zero,-4(a4)
    1760:	0187a603          	lw	a2,24(a5)
    1764:	08061663          	bnez	a2,17f0 <drawNumber+0x410>
    1768:	fe070ea3          	sb	zero,-3(a4)
    176c:	01c7a603          	lw	a2,28(a5)
    1770:	08061663          	bnez	a2,17fc <drawNumber+0x41c>
    1774:	fe070f23          	sb	zero,-2(a4)
    1778:	0207a603          	lw	a2,32(a5)
    177c:	08061663          	bnez	a2,1808 <drawNumber+0x428>
    1780:	fe070fa3          	sb	zero,-1(a4)
    1784:	0247a603          	lw	a2,36(a5)
    1788:	08061663          	bnez	a2,1814 <drawNumber+0x434>
    178c:	00070023          	sb	zero,0(a4)
    1790:	02878793          	addi	a5,a5,40
    1794:	23010613          	addi	a2,sp,560
    1798:	14070713          	addi	a4,a4,320
    179c:	08c78663          	beq	a5,a2,1828 <drawNumber+0x448>
    17a0:	0007a603          	lw	a2,0(a5)
    17a4:	f6060ee3          	beqz	a2,1720 <drawNumber+0x340>
    17a8:	fed70ba3          	sb	a3,-9(a4)
    17ac:	0047a603          	lw	a2,4(a5)
    17b0:	f6060ee3          	beqz	a2,172c <drawNumber+0x34c>
    17b4:	fed70c23          	sb	a3,-8(a4)
    17b8:	0087a603          	lw	a2,8(a5)
    17bc:	f6060ee3          	beqz	a2,1738 <drawNumber+0x358>
    17c0:	fed70ca3          	sb	a3,-7(a4)
    17c4:	00c7a603          	lw	a2,12(a5)
    17c8:	f6060ee3          	beqz	a2,1744 <drawNumber+0x364>
    17cc:	fed70d23          	sb	a3,-6(a4)
    17d0:	0107a603          	lw	a2,16(a5)
    17d4:	f6060ee3          	beqz	a2,1750 <drawNumber+0x370>
    17d8:	fed70da3          	sb	a3,-5(a4)
    17dc:	0147a603          	lw	a2,20(a5)
    17e0:	f6060ee3          	beqz	a2,175c <drawNumber+0x37c>
    17e4:	fed70e23          	sb	a3,-4(a4)
    17e8:	0187a603          	lw	a2,24(a5)
    17ec:	f6060ee3          	beqz	a2,1768 <drawNumber+0x388>
    17f0:	fed70ea3          	sb	a3,-3(a4)
    17f4:	01c7a603          	lw	a2,28(a5)
    17f8:	f6060ee3          	beqz	a2,1774 <drawNumber+0x394>
    17fc:	fed70f23          	sb	a3,-2(a4)
    1800:	0207a603          	lw	a2,32(a5)
    1804:	f6060ee3          	beqz	a2,1780 <drawNumber+0x3a0>
    1808:	fed70fa3          	sb	a3,-1(a4)
    180c:	0247a603          	lw	a2,36(a5)
    1810:	f6060ee3          	beqz	a2,178c <drawNumber+0x3ac>
    1814:	00d70023          	sb	a3,0(a4)
    1818:	02878793          	addi	a5,a5,40
    181c:	23010613          	addi	a2,sp,560
    1820:	14070713          	addi	a4,a4,320
    1824:	f6c79ee3          	bne	a5,a2,17a0 <drawNumber+0x3c0>
    1828:	23010113          	addi	sp,sp,560
    182c:	00008067          	ret
    1830:	00100793          	li	a5,1
    1834:	00f12223          	sw	a5,4(sp)
    1838:	00f12423          	sw	a5,8(sp)
    183c:	00f12623          	sw	a5,12(sp)
    1840:	00f12823          	sw	a5,16(sp)
    1844:	00f12a23          	sw	a5,20(sp)
    1848:	00f12c23          	sw	a5,24(sp)
    184c:	00f12e23          	sw	a5,28(sp)
    1850:	02f12023          	sw	a5,32(sp)
    1854:	02f12623          	sw	a5,44(sp)
    1858:	02f12823          	sw	a5,48(sp)
    185c:	02f12a23          	sw	a5,52(sp)
    1860:	02f12c23          	sw	a5,56(sp)
    1864:	02f12e23          	sw	a5,60(sp)
    1868:	04f12023          	sw	a5,64(sp)
    186c:	04f12223          	sw	a5,68(sp)
    1870:	04f12423          	sw	a5,72(sp)
    1874:	0ef12c23          	sw	a5,248(sp)
    1878:	0ef12e23          	sw	a5,252(sp)
    187c:	10f12023          	sw	a5,256(sp)
    1880:	10f12223          	sw	a5,260(sp)
    1884:	10f12423          	sw	a5,264(sp)
    1888:	10f12623          	sw	a5,268(sp)
    188c:	12f12023          	sw	a5,288(sp)
    1890:	12f12223          	sw	a5,292(sp)
    1894:	12f12423          	sw	a5,296(sp)
    1898:	12f12623          	sw	a5,300(sp)
    189c:	12f12823          	sw	a5,304(sp)
    18a0:	12f12a23          	sw	a5,308(sp)
    18a4:	1ef12223          	sw	a5,484(sp)
    18a8:	1ef12423          	sw	a5,488(sp)
    18ac:	1ef12623          	sw	a5,492(sp)
    18b0:	1ef12823          	sw	a5,496(sp)
    18b4:	1ef12a23          	sw	a5,500(sp)
    18b8:	1ef12c23          	sw	a5,504(sp)
    18bc:	1ef12e23          	sw	a5,508(sp)
    18c0:	20f12023          	sw	a5,512(sp)
    18c4:	20f12623          	sw	a5,524(sp)
    18c8:	20f12823          	sw	a5,528(sp)
    18cc:	20f12a23          	sw	a5,532(sp)
    18d0:	20f12c23          	sw	a5,536(sp)
    18d4:	20f12e23          	sw	a5,540(sp)
    18d8:	22f12023          	sw	a5,544(sp)
    18dc:	22f12223          	sw	a5,548(sp)
    18e0:	22f12423          	sw	a5,552(sp)
    18e4:	04f12623          	sw	a5,76(sp)
    18e8:	06f12823          	sw	a5,112(sp)
    18ec:	06f12a23          	sw	a5,116(sp)
    18f0:	08f12c23          	sw	a5,152(sp)
    18f4:	08f12e23          	sw	a5,156(sp)
    18f8:	0cf12023          	sw	a5,192(sp)
    18fc:	0cf12223          	sw	a5,196(sp)
    1900:	0ef12423          	sw	a5,232(sp)
    1904:	0ef12623          	sw	a5,236(sp)
    1908:	10f12823          	sw	a5,272(sp)
    190c:	10f12a23          	sw	a5,276(sp)
    1910:	12f12c23          	sw	a5,312(sp)
    1914:	12f12e23          	sw	a5,316(sp)
    1918:	16f12023          	sw	a5,352(sp)
    191c:	16f12223          	sw	a5,356(sp)
    1920:	18f12423          	sw	a5,392(sp)
    1924:	18f12623          	sw	a5,396(sp)
    1928:	1af12823          	sw	a5,432(sp)
    192c:	1af12a23          	sw	a5,436(sp)
    1930:	1cf12c23          	sw	a5,472(sp)
    1934:	1cf12e23          	sw	a5,476(sp)
    1938:	20f12223          	sw	a5,516(sp)
    193c:	02f12423          	sw	a5,40(sp)
    1940:	04f12823          	sw	a5,80(sp)
    1944:	04f12a23          	sw	a5,84(sp)
    1948:	06f12c23          	sw	a5,120(sp)
    194c:	06f12e23          	sw	a5,124(sp)
    1950:	0af12023          	sw	a5,160(sp)
    1954:	0af12223          	sw	a5,164(sp)
    1958:	0cf12423          	sw	a5,200(sp)
    195c:	0cf12623          	sw	a5,204(sp)
    1960:	0ef12823          	sw	a5,240(sp)
    1964:	0ef12a23          	sw	a5,244(sp)
    1968:	10f12c23          	sw	a5,280(sp)
    196c:	10f12e23          	sw	a5,284(sp)
    1970:	14f12023          	sw	a5,320(sp)
    1974:	14f12223          	sw	a5,324(sp)
    1978:	16f12423          	sw	a5,360(sp)
    197c:	16f12623          	sw	a5,364(sp)
    1980:	18f12823          	sw	a5,400(sp)
    1984:	18f12a23          	sw	a5,404(sp)
    1988:	1af12c23          	sw	a5,440(sp)
    198c:	1af12e23          	sw	a5,444(sp)
    1990:	1ef12023          	sw	a5,480(sp)
    1994:	d75ff06f          	j	1708 <drawNumber+0x328>
    1998:	00100793          	li	a5,1
    199c:	00f12023          	sw	a5,0(sp)
    19a0:	00f12223          	sw	a5,4(sp)
    19a4:	00f12423          	sw	a5,8(sp)
    19a8:	00f12623          	sw	a5,12(sp)
    19ac:	00f12823          	sw	a5,16(sp)
    19b0:	00f12a23          	sw	a5,20(sp)
    19b4:	00f12c23          	sw	a5,24(sp)
    19b8:	00f12e23          	sw	a5,28(sp)
    19bc:	02f12023          	sw	a5,32(sp)
    19c0:	02f12223          	sw	a5,36(sp)
    19c4:	02f12423          	sw	a5,40(sp)
    19c8:	02f12623          	sw	a5,44(sp)
    19cc:	02f12823          	sw	a5,48(sp)
    19d0:	02f12a23          	sw	a5,52(sp)
    19d4:	02f12c23          	sw	a5,56(sp)
    19d8:	02f12e23          	sw	a5,60(sp)
    19dc:	04f12023          	sw	a5,64(sp)
    19e0:	04f12223          	sw	a5,68(sp)
    19e4:	04f12423          	sw	a5,72(sp)
    19e8:	04f12623          	sw	a5,76(sp)
    19ec:	04f12823          	sw	a5,80(sp)
    19f0:	04f12a23          	sw	a5,84(sp)
    19f4:	06f12c23          	sw	a5,120(sp)
    19f8:	06f12e23          	sw	a5,124(sp)
    19fc:	0af12023          	sw	a5,160(sp)
    1a00:	0af12223          	sw	a5,164(sp)
    1a04:	0cf12423          	sw	a5,200(sp)
    1a08:	0cf12623          	sw	a5,204(sp)
    1a0c:	0ef12823          	sw	a5,240(sp)
    1a10:	0ef12a23          	sw	a5,244(sp)
    1a14:	10f12c23          	sw	a5,280(sp)
    1a18:	10f12e23          	sw	a5,284(sp)
    1a1c:	14f12023          	sw	a5,320(sp)
    1a20:	14f12223          	sw	a5,324(sp)
    1a24:	16f12423          	sw	a5,360(sp)
    1a28:	16f12623          	sw	a5,364(sp)
    1a2c:	18f12823          	sw	a5,400(sp)
    1a30:	18f12a23          	sw	a5,404(sp)
    1a34:	1af12c23          	sw	a5,440(sp)
    1a38:	1af12e23          	sw	a5,444(sp)
    1a3c:	1ef12023          	sw	a5,480(sp)
    1a40:	1ef12223          	sw	a5,484(sp)
    1a44:	20f12423          	sw	a5,520(sp)
    1a48:	20f12623          	sw	a5,524(sp)
    1a4c:	06f12823          	sw	a5,112(sp)
    1a50:	06f12a23          	sw	a5,116(sp)
    1a54:	08f12c23          	sw	a5,152(sp)
    1a58:	08f12e23          	sw	a5,156(sp)
    1a5c:	0cf12023          	sw	a5,192(sp)
    1a60:	0cf12223          	sw	a5,196(sp)
    1a64:	0ef12423          	sw	a5,232(sp)
    1a68:	0ef12623          	sw	a5,236(sp)
    1a6c:	10f12823          	sw	a5,272(sp)
    1a70:	10f12a23          	sw	a5,276(sp)
    1a74:	12f12c23          	sw	a5,312(sp)
    1a78:	12f12e23          	sw	a5,316(sp)
    1a7c:	16f12023          	sw	a5,352(sp)
    1a80:	16f12223          	sw	a5,356(sp)
    1a84:	18f12423          	sw	a5,392(sp)
    1a88:	18f12623          	sw	a5,396(sp)
    1a8c:	1af12823          	sw	a5,432(sp)
    1a90:	1af12a23          	sw	a5,436(sp)
    1a94:	1cf12c23          	sw	a5,472(sp)
    1a98:	1cf12e23          	sw	a5,476(sp)
    1a9c:	20f12023          	sw	a5,512(sp)
    1aa0:	20f12223          	sw	a5,516(sp)
    1aa4:	22f12423          	sw	a5,552(sp)
    1aa8:	22f12623          	sw	a5,556(sp)
    1aac:	1ef12423          	sw	a5,488(sp)
    1ab0:	1ef12623          	sw	a5,492(sp)
    1ab4:	1ef12823          	sw	a5,496(sp)
    1ab8:	1ef12a23          	sw	a5,500(sp)
    1abc:	1ef12c23          	sw	a5,504(sp)
    1ac0:	1ef12e23          	sw	a5,508(sp)
    1ac4:	20f12823          	sw	a5,528(sp)
    1ac8:	20f12a23          	sw	a5,532(sp)
    1acc:	20f12c23          	sw	a5,536(sp)
    1ad0:	20f12e23          	sw	a5,540(sp)
    1ad4:	22f12023          	sw	a5,544(sp)
    1ad8:	22f12223          	sw	a5,548(sp)
    1adc:	c2dff06f          	j	1708 <drawNumber+0x328>
    1ae0:	00100793          	li	a5,1
    1ae4:	00f12823          	sw	a5,16(sp)
    1ae8:	00f12a23          	sw	a5,20(sp)
    1aec:	02f12c23          	sw	a5,56(sp)
    1af0:	02f12e23          	sw	a5,60(sp)
    1af4:	06f12023          	sw	a5,96(sp)
    1af8:	06f12223          	sw	a5,100(sp)
    1afc:	08f12423          	sw	a5,136(sp)
    1b00:	08f12623          	sw	a5,140(sp)
    1b04:	0af12823          	sw	a5,176(sp)
    1b08:	0af12a23          	sw	a5,180(sp)
    1b0c:	0cf12c23          	sw	a5,216(sp)
    1b10:	0cf12e23          	sw	a5,220(sp)
    1b14:	10f12023          	sw	a5,256(sp)
    1b18:	10f12223          	sw	a5,260(sp)
    1b1c:	12f12423          	sw	a5,296(sp)
    1b20:	12f12623          	sw	a5,300(sp)
    1b24:	14f12823          	sw	a5,336(sp)
    1b28:	14f12a23          	sw	a5,340(sp)
    1b2c:	16f12c23          	sw	a5,376(sp)
    1b30:	16f12e23          	sw	a5,380(sp)
    1b34:	1af12023          	sw	a5,416(sp)
    1b38:	1af12223          	sw	a5,420(sp)
    1b3c:	1cf12423          	sw	a5,456(sp)
    1b40:	1cf12623          	sw	a5,460(sp)
    1b44:	1ef12823          	sw	a5,496(sp)
    1b48:	1ef12a23          	sw	a5,500(sp)
    1b4c:	20f12c23          	sw	a5,536(sp)
    1b50:	20f12e23          	sw	a5,540(sp)
    1b54:	bb5ff06f          	j	1708 <drawNumber+0x328>
    1b58:	00100793          	li	a5,1
    1b5c:	00f12223          	sw	a5,4(sp)
    1b60:	00f12423          	sw	a5,8(sp)
    1b64:	00f12623          	sw	a5,12(sp)
    1b68:	00f12823          	sw	a5,16(sp)
    1b6c:	00f12a23          	sw	a5,20(sp)
    1b70:	00f12c23          	sw	a5,24(sp)
    1b74:	00f12e23          	sw	a5,28(sp)
    1b78:	02f12023          	sw	a5,32(sp)
    1b7c:	02f12623          	sw	a5,44(sp)
    1b80:	02f12823          	sw	a5,48(sp)
    1b84:	02f12a23          	sw	a5,52(sp)
    1b88:	02f12c23          	sw	a5,56(sp)
    1b8c:	02f12e23          	sw	a5,60(sp)
    1b90:	04f12023          	sw	a5,64(sp)
    1b94:	04f12223          	sw	a5,68(sp)
    1b98:	04f12423          	sw	a5,72(sp)
    1b9c:	0af12e23          	sw	a5,188(sp)
    1ba0:	0cf12023          	sw	a5,192(sp)
    1ba4:	0cf12223          	sw	a5,196(sp)
    1ba8:	0ef12023          	sw	a5,224(sp)
    1bac:	0ef12223          	sw	a5,228(sp)
    1bb0:	0ef12423          	sw	a5,232(sp)
    1bb4:	0ef12623          	sw	a5,236(sp)
    1bb8:	10f12223          	sw	a5,260(sp)
    1bbc:	10f12423          	sw	a5,264(sp)
    1bc0:	10f12623          	sw	a5,268(sp)
    1bc4:	10f12823          	sw	a5,272(sp)
    1bc8:	12f12423          	sw	a5,296(sp)
    1bcc:	12f12623          	sw	a5,300(sp)
    1bd0:	12f12823          	sw	a5,304(sp)
    1bd4:	12f12a23          	sw	a5,308(sp)
    1bd8:	14f12623          	sw	a5,332(sp)
    1bdc:	14f12823          	sw	a5,336(sp)
    1be0:	14f12a23          	sw	a5,340(sp)
    1be4:	14f12c23          	sw	a5,344(sp)
    1be8:	16f12823          	sw	a5,368(sp)
    1bec:	16f12a23          	sw	a5,372(sp)
    1bf0:	16f12c23          	sw	a5,376(sp)
    1bf4:	16f12e23          	sw	a5,380(sp)
    1bf8:	18f12a23          	sw	a5,404(sp)
    1bfc:	18f12c23          	sw	a5,408(sp)
    1c00:	18f12e23          	sw	a5,412(sp)
    1c04:	1af12023          	sw	a5,416(sp)
    1c08:	1af12c23          	sw	a5,440(sp)
    1c0c:	1af12e23          	sw	a5,444(sp)
    1c10:	1cf12023          	sw	a5,448(sp)
    1c14:	1cf12223          	sw	a5,452(sp)
    1c18:	1ef12023          	sw	a5,480(sp)
    1c1c:	1ef12223          	sw	a5,484(sp)
    1c20:	1ef12423          	sw	a5,488(sp)
    1c24:	1ef12623          	sw	a5,492(sp)
    1c28:	1ef12823          	sw	a5,496(sp)
    1c2c:	1ef12a23          	sw	a5,500(sp)
    1c30:	1ef12c23          	sw	a5,504(sp)
    1c34:	1ef12e23          	sw	a5,508(sp)
    1c38:	20f12023          	sw	a5,512(sp)
    1c3c:	20f12223          	sw	a5,516(sp)
    1c40:	20f12423          	sw	a5,520(sp)
    1c44:	20f12623          	sw	a5,524(sp)
    1c48:	20f12823          	sw	a5,528(sp)
    1c4c:	20f12a23          	sw	a5,532(sp)
    1c50:	20f12c23          	sw	a5,536(sp)
    1c54:	20f12e23          	sw	a5,540(sp)
    1c58:	22f12023          	sw	a5,544(sp)
    1c5c:	22f12223          	sw	a5,548(sp)
    1c60:	22f12423          	sw	a5,552(sp)
    1c64:	22f12623          	sw	a5,556(sp)
    1c68:	02f12423          	sw	a5,40(sp)
    1c6c:	04f12823          	sw	a5,80(sp)
    1c70:	04f12a23          	sw	a5,84(sp)
    1c74:	08f12c23          	sw	a5,152(sp)
    1c78:	08f12e23          	sw	a5,156(sp)
    1c7c:	06f12823          	sw	a5,112(sp)
    1c80:	06f12a23          	sw	a5,116(sp)
    1c84:	a85ff06f          	j	1708 <drawNumber+0x328>
    1c88:	00100793          	li	a5,1
    1c8c:	00f12223          	sw	a5,4(sp)
    1c90:	00f12423          	sw	a5,8(sp)
    1c94:	00f12623          	sw	a5,12(sp)
    1c98:	00f12823          	sw	a5,16(sp)
    1c9c:	00f12a23          	sw	a5,20(sp)
    1ca0:	00f12c23          	sw	a5,24(sp)
    1ca4:	00f12e23          	sw	a5,28(sp)
    1ca8:	02f12023          	sw	a5,32(sp)
    1cac:	02f12623          	sw	a5,44(sp)
    1cb0:	02f12823          	sw	a5,48(sp)
    1cb4:	02f12a23          	sw	a5,52(sp)
    1cb8:	02f12c23          	sw	a5,56(sp)
    1cbc:	02f12e23          	sw	a5,60(sp)
    1cc0:	04f12023          	sw	a5,64(sp)
    1cc4:	04f12223          	sw	a5,68(sp)
    1cc8:	04f12423          	sw	a5,72(sp)
    1ccc:	10f12023          	sw	a5,256(sp)
    1cd0:	10f12223          	sw	a5,260(sp)
    1cd4:	10f12423          	sw	a5,264(sp)
    1cd8:	10f12623          	sw	a5,268(sp)
    1cdc:	12f12423          	sw	a5,296(sp)
    1ce0:	12f12623          	sw	a5,300(sp)
    1ce4:	12f12823          	sw	a5,304(sp)
    1ce8:	12f12a23          	sw	a5,308(sp)
    1cec:	04f12623          	sw	a5,76(sp)
    1cf0:	06f12823          	sw	a5,112(sp)
    1cf4:	06f12a23          	sw	a5,116(sp)
    1cf8:	08f12c23          	sw	a5,152(sp)
    1cfc:	08f12e23          	sw	a5,156(sp)
    1d00:	0cf12023          	sw	a5,192(sp)
    1d04:	0cf12223          	sw	a5,196(sp)
    1d08:	0ef12423          	sw	a5,232(sp)
    1d0c:	0ef12623          	sw	a5,236(sp)
    1d10:	10f12823          	sw	a5,272(sp)
    1d14:	10f12a23          	sw	a5,276(sp)
    1d18:	12f12c23          	sw	a5,312(sp)
    1d1c:	12f12e23          	sw	a5,316(sp)
    1d20:	16f12023          	sw	a5,352(sp)
    1d24:	16f12223          	sw	a5,356(sp)
    1d28:	18f12423          	sw	a5,392(sp)
    1d2c:	18f12623          	sw	a5,396(sp)
    1d30:	1af12823          	sw	a5,432(sp)
    1d34:	1af12a23          	sw	a5,436(sp)
    1d38:	1cf12c23          	sw	a5,472(sp)
    1d3c:	1cf12e23          	sw	a5,476(sp)
    1d40:	20f12023          	sw	a5,512(sp)
    1d44:	20f12223          	sw	a5,516(sp)
    1d48:	1ef12223          	sw	a5,484(sp)
    1d4c:	1ef12423          	sw	a5,488(sp)
    1d50:	1ef12623          	sw	a5,492(sp)
    1d54:	1ef12823          	sw	a5,496(sp)
    1d58:	1ef12a23          	sw	a5,500(sp)
    1d5c:	1ef12c23          	sw	a5,504(sp)
    1d60:	1ef12e23          	sw	a5,508(sp)
    1d64:	20f12623          	sw	a5,524(sp)
    1d68:	20f12823          	sw	a5,528(sp)
    1d6c:	20f12a23          	sw	a5,532(sp)
    1d70:	20f12c23          	sw	a5,536(sp)
    1d74:	20f12e23          	sw	a5,540(sp)
    1d78:	22f12023          	sw	a5,544(sp)
    1d7c:	22f12223          	sw	a5,548(sp)
    1d80:	22f12423          	sw	a5,552(sp)
    1d84:	02f12423          	sw	a5,40(sp)
    1d88:	04f12823          	sw	a5,80(sp)
    1d8c:	04f12a23          	sw	a5,84(sp)
    1d90:	06f12623          	sw	a5,108(sp)
    1d94:	1cf12a23          	sw	a5,468(sp)
    1d98:	1af12c23          	sw	a5,440(sp)
    1d9c:	1af12e23          	sw	a5,444(sp)
    1da0:	1ef12023          	sw	a5,480(sp)
    1da4:	965ff06f          	j	1708 <drawNumber+0x328>
    1da8:	00100793          	li	a5,1
    1dac:	00f12023          	sw	a5,0(sp)
    1db0:	00f12223          	sw	a5,4(sp)
    1db4:	02f12423          	sw	a5,40(sp)
    1db8:	02f12623          	sw	a5,44(sp)
    1dbc:	04f12823          	sw	a5,80(sp)
    1dc0:	04f12a23          	sw	a5,84(sp)
    1dc4:	06f12c23          	sw	a5,120(sp)
    1dc8:	06f12e23          	sw	a5,124(sp)
    1dcc:	0af12023          	sw	a5,160(sp)
    1dd0:	0af12223          	sw	a5,164(sp)
    1dd4:	0cf12423          	sw	a5,200(sp)
    1dd8:	0cf12623          	sw	a5,204(sp)
    1ddc:	0ef12823          	sw	a5,240(sp)
    1de0:	0ef12a23          	sw	a5,244(sp)
    1de4:	10f12c23          	sw	a5,280(sp)
    1de8:	10f12e23          	sw	a5,284(sp)
    1dec:	0ef12c23          	sw	a5,248(sp)
    1df0:	0ef12e23          	sw	a5,252(sp)
    1df4:	10f12023          	sw	a5,256(sp)
    1df8:	10f12223          	sw	a5,260(sp)
    1dfc:	10f12423          	sw	a5,264(sp)
    1e00:	10f12623          	sw	a5,268(sp)
    1e04:	12f12023          	sw	a5,288(sp)
    1e08:	12f12223          	sw	a5,292(sp)
    1e0c:	12f12423          	sw	a5,296(sp)
    1e10:	12f12623          	sw	a5,300(sp)
    1e14:	12f12823          	sw	a5,304(sp)
    1e18:	12f12a23          	sw	a5,308(sp)
    1e1c:	02f12023          	sw	a5,32(sp)
    1e20:	02f12223          	sw	a5,36(sp)
    1e24:	04f12423          	sw	a5,72(sp)
    1e28:	04f12623          	sw	a5,76(sp)
    1e2c:	06f12823          	sw	a5,112(sp)
    1e30:	06f12a23          	sw	a5,116(sp)
    1e34:	08f12c23          	sw	a5,152(sp)
    1e38:	08f12e23          	sw	a5,156(sp)
    1e3c:	0cf12023          	sw	a5,192(sp)
    1e40:	0cf12223          	sw	a5,196(sp)
    1e44:	0ef12423          	sw	a5,232(sp)
    1e48:	0ef12623          	sw	a5,236(sp)
    1e4c:	10f12823          	sw	a5,272(sp)
    1e50:	10f12a23          	sw	a5,276(sp)
    1e54:	12f12c23          	sw	a5,312(sp)
    1e58:	12f12e23          	sw	a5,316(sp)
    1e5c:	16f12023          	sw	a5,352(sp)
    1e60:	16f12223          	sw	a5,356(sp)
    1e64:	18f12423          	sw	a5,392(sp)
    1e68:	18f12623          	sw	a5,396(sp)
    1e6c:	1af12823          	sw	a5,432(sp)
    1e70:	1af12a23          	sw	a5,436(sp)
    1e74:	1cf12c23          	sw	a5,472(sp)
    1e78:	1cf12e23          	sw	a5,476(sp)
    1e7c:	20f12023          	sw	a5,512(sp)
    1e80:	20f12223          	sw	a5,516(sp)
    1e84:	22f12423          	sw	a5,552(sp)
    1e88:	22f12623          	sw	a5,556(sp)
    1e8c:	87dff06f          	j	1708 <drawNumber+0x328>
    1e90:	00100793          	li	a5,1
    1e94:	00f12023          	sw	a5,0(sp)
    1e98:	00f12223          	sw	a5,4(sp)
    1e9c:	00f12423          	sw	a5,8(sp)
    1ea0:	00f12623          	sw	a5,12(sp)
    1ea4:	00f12823          	sw	a5,16(sp)
    1ea8:	00f12a23          	sw	a5,20(sp)
    1eac:	00f12c23          	sw	a5,24(sp)
    1eb0:	00f12e23          	sw	a5,28(sp)
    1eb4:	02f12023          	sw	a5,32(sp)
    1eb8:	02f12223          	sw	a5,36(sp)
    1ebc:	02f12423          	sw	a5,40(sp)
    1ec0:	02f12623          	sw	a5,44(sp)
    1ec4:	02f12823          	sw	a5,48(sp)
    1ec8:	02f12a23          	sw	a5,52(sp)
    1ecc:	02f12c23          	sw	a5,56(sp)
    1ed0:	02f12e23          	sw	a5,60(sp)
    1ed4:	04f12023          	sw	a5,64(sp)
    1ed8:	04f12223          	sw	a5,68(sp)
    1edc:	04f12423          	sw	a5,72(sp)
    1ee0:	04f12623          	sw	a5,76(sp)
    1ee4:	04f12823          	sw	a5,80(sp)
    1ee8:	04f12a23          	sw	a5,84(sp)
    1eec:	06f12c23          	sw	a5,120(sp)
    1ef0:	06f12e23          	sw	a5,124(sp)
    1ef4:	0af12023          	sw	a5,160(sp)
    1ef8:	0af12223          	sw	a5,164(sp)
    1efc:	0cf12423          	sw	a5,200(sp)
    1f00:	0cf12623          	sw	a5,204(sp)
    1f04:	0ef12823          	sw	a5,240(sp)
    1f08:	0ef12a23          	sw	a5,244(sp)
    1f0c:	0ef12c23          	sw	a5,248(sp)
    1f10:	0ef12e23          	sw	a5,252(sp)
    1f14:	10f12023          	sw	a5,256(sp)
    1f18:	10f12223          	sw	a5,260(sp)
    1f1c:	10f12423          	sw	a5,264(sp)
    1f20:	10f12623          	sw	a5,268(sp)
    1f24:	10f12823          	sw	a5,272(sp)
    1f28:	12f12023          	sw	a5,288(sp)
    1f2c:	12f12223          	sw	a5,292(sp)
    1f30:	12f12423          	sw	a5,296(sp)
    1f34:	12f12623          	sw	a5,300(sp)
    1f38:	12f12823          	sw	a5,304(sp)
    1f3c:	12f12a23          	sw	a5,308(sp)
    1f40:	12f12c23          	sw	a5,312(sp)
    1f44:	16f12023          	sw	a5,352(sp)
    1f48:	16f12223          	sw	a5,356(sp)
    1f4c:	18f12423          	sw	a5,392(sp)
    1f50:	18f12623          	sw	a5,396(sp)
    1f54:	1af12823          	sw	a5,432(sp)
    1f58:	1af12a23          	sw	a5,436(sp)
    1f5c:	1cf12c23          	sw	a5,472(sp)
    1f60:	1cf12e23          	sw	a5,476(sp)
    1f64:	20f12023          	sw	a5,512(sp)
    1f68:	20f12223          	sw	a5,516(sp)
    1f6c:	1ef12223          	sw	a5,484(sp)
    1f70:	1ef12423          	sw	a5,488(sp)
    1f74:	1ef12623          	sw	a5,492(sp)
    1f78:	1ef12823          	sw	a5,496(sp)
    1f7c:	1ef12a23          	sw	a5,500(sp)
    1f80:	1ef12c23          	sw	a5,504(sp)
    1f84:	1ef12e23          	sw	a5,508(sp)
    1f88:	20f12623          	sw	a5,524(sp)
    1f8c:	20f12823          	sw	a5,528(sp)
    1f90:	20f12a23          	sw	a5,532(sp)
    1f94:	20f12c23          	sw	a5,536(sp)
    1f98:	20f12e23          	sw	a5,540(sp)
    1f9c:	22f12023          	sw	a5,544(sp)
    1fa0:	22f12223          	sw	a5,548(sp)
    1fa4:	22f12423          	sw	a5,552(sp)
    1fa8:	10f12e23          	sw	a5,284(sp)
    1fac:	12f12e23          	sw	a5,316(sp)
    1fb0:	1cf12a23          	sw	a5,468(sp)
    1fb4:	1af12e23          	sw	a5,444(sp)
    1fb8:	1af12c23          	sw	a5,440(sp)
    1fbc:	1ef12023          	sw	a5,480(sp)
    1fc0:	f48ff06f          	j	1708 <drawNumber+0x328>
    1fc4:	00100793          	li	a5,1
    1fc8:	00f12223          	sw	a5,4(sp)
    1fcc:	00f12423          	sw	a5,8(sp)
    1fd0:	00f12623          	sw	a5,12(sp)
    1fd4:	00f12823          	sw	a5,16(sp)
    1fd8:	00f12a23          	sw	a5,20(sp)
    1fdc:	00f12c23          	sw	a5,24(sp)
    1fe0:	00f12e23          	sw	a5,28(sp)
    1fe4:	02f12023          	sw	a5,32(sp)
    1fe8:	02f12623          	sw	a5,44(sp)
    1fec:	02f12823          	sw	a5,48(sp)
    1ff0:	02f12a23          	sw	a5,52(sp)
    1ff4:	02f12c23          	sw	a5,56(sp)
    1ff8:	02f12e23          	sw	a5,60(sp)
    1ffc:	04f12023          	sw	a5,64(sp)
    2000:	04f12223          	sw	a5,68(sp)
    2004:	04f12423          	sw	a5,72(sp)
    2008:	02f12423          	sw	a5,40(sp)
    200c:	04f12823          	sw	a5,80(sp)
    2010:	04f12a23          	sw	a5,84(sp)
    2014:	06f12c23          	sw	a5,120(sp)
    2018:	06f12e23          	sw	a5,124(sp)
    201c:	0af12023          	sw	a5,160(sp)
    2020:	0af12223          	sw	a5,164(sp)
    2024:	0cf12423          	sw	a5,200(sp)
    2028:	0cf12623          	sw	a5,204(sp)
    202c:	0ef12823          	sw	a5,240(sp)
    2030:	0ef12a23          	sw	a5,244(sp)
    2034:	10f12c23          	sw	a5,280(sp)
    2038:	10f12e23          	sw	a5,284(sp)
    203c:	14f12023          	sw	a5,320(sp)
    2040:	14f12223          	sw	a5,324(sp)
    2044:	16f12423          	sw	a5,360(sp)
    2048:	16f12623          	sw	a5,364(sp)
    204c:	18f12823          	sw	a5,400(sp)
    2050:	18f12a23          	sw	a5,404(sp)
    2054:	1af12c23          	sw	a5,440(sp)
    2058:	1af12e23          	sw	a5,444(sp)
    205c:	1ef12023          	sw	a5,480(sp)
    2060:	1ef12223          	sw	a5,484(sp)
    2064:	0ef12c23          	sw	a5,248(sp)
    2068:	0ef12e23          	sw	a5,252(sp)
    206c:	10f12023          	sw	a5,256(sp)
    2070:	10f12223          	sw	a5,260(sp)
    2074:	10f12423          	sw	a5,264(sp)
    2078:	10f12623          	sw	a5,268(sp)
    207c:	12f12023          	sw	a5,288(sp)
    2080:	12f12223          	sw	a5,292(sp)
    2084:	12f12423          	sw	a5,296(sp)
    2088:	12f12623          	sw	a5,300(sp)
    208c:	12f12823          	sw	a5,304(sp)
    2090:	12f12a23          	sw	a5,308(sp)
    2094:	12f12c23          	sw	a5,312(sp)
    2098:	12f12e23          	sw	a5,316(sp)
    209c:	16f12023          	sw	a5,352(sp)
    20a0:	16f12223          	sw	a5,356(sp)
    20a4:	18f12423          	sw	a5,392(sp)
    20a8:	18f12623          	sw	a5,396(sp)
    20ac:	1af12823          	sw	a5,432(sp)
    20b0:	1af12a23          	sw	a5,436(sp)
    20b4:	1cf12c23          	sw	a5,472(sp)
    20b8:	1cf12e23          	sw	a5,476(sp)
    20bc:	20f12023          	sw	a5,512(sp)
    20c0:	20f12223          	sw	a5,516(sp)
    20c4:	1ef12423          	sw	a5,488(sp)
    20c8:	1ef12623          	sw	a5,492(sp)
    20cc:	1ef12823          	sw	a5,496(sp)
    20d0:	1ef12a23          	sw	a5,500(sp)
    20d4:	1ef12c23          	sw	a5,504(sp)
    20d8:	1ef12e23          	sw	a5,508(sp)
    20dc:	20f12623          	sw	a5,524(sp)
    20e0:	20f12823          	sw	a5,528(sp)
    20e4:	20f12a23          	sw	a5,532(sp)
    20e8:	20f12c23          	sw	a5,536(sp)
    20ec:	20f12e23          	sw	a5,540(sp)
    20f0:	22f12023          	sw	a5,544(sp)
    20f4:	22f12223          	sw	a5,548(sp)
    20f8:	22f12423          	sw	a5,552(sp)
    20fc:	e0cff06f          	j	1708 <drawNumber+0x328>
    2100:	00100793          	li	a5,1
    2104:	00f12223          	sw	a5,4(sp)
    2108:	00f12423          	sw	a5,8(sp)
    210c:	00f12623          	sw	a5,12(sp)
    2110:	00f12823          	sw	a5,16(sp)
    2114:	00f12a23          	sw	a5,20(sp)
    2118:	00f12c23          	sw	a5,24(sp)
    211c:	00f12e23          	sw	a5,28(sp)
    2120:	02f12023          	sw	a5,32(sp)
    2124:	02f12623          	sw	a5,44(sp)
    2128:	02f12823          	sw	a5,48(sp)
    212c:	02f12a23          	sw	a5,52(sp)
    2130:	02f12c23          	sw	a5,56(sp)
    2134:	02f12e23          	sw	a5,60(sp)
    2138:	04f12023          	sw	a5,64(sp)
    213c:	04f12223          	sw	a5,68(sp)
    2140:	04f12423          	sw	a5,72(sp)
    2144:	04f12623          	sw	a5,76(sp)
    2148:	06f12823          	sw	a5,112(sp)
    214c:	06f12a23          	sw	a5,116(sp)
    2150:	08f12c23          	sw	a5,152(sp)
    2154:	08f12e23          	sw	a5,156(sp)
    2158:	0cf12023          	sw	a5,192(sp)
    215c:	0cf12223          	sw	a5,196(sp)
    2160:	0ef12423          	sw	a5,232(sp)
    2164:	0ef12623          	sw	a5,236(sp)
    2168:	10f12823          	sw	a5,272(sp)
    216c:	10f12a23          	sw	a5,276(sp)
    2170:	12f12c23          	sw	a5,312(sp)
    2174:	12f12e23          	sw	a5,316(sp)
    2178:	16f12023          	sw	a5,352(sp)
    217c:	16f12223          	sw	a5,356(sp)
    2180:	18f12423          	sw	a5,392(sp)
    2184:	18f12623          	sw	a5,396(sp)
    2188:	1af12823          	sw	a5,432(sp)
    218c:	1af12a23          	sw	a5,436(sp)
    2190:	1cf12c23          	sw	a5,472(sp)
    2194:	1cf12e23          	sw	a5,476(sp)
    2198:	20f12023          	sw	a5,512(sp)
    219c:	20f12223          	sw	a5,516(sp)
    21a0:	02f12423          	sw	a5,40(sp)
    21a4:	04f12823          	sw	a5,80(sp)
    21a8:	04f12a23          	sw	a5,84(sp)
    21ac:	06f12c23          	sw	a5,120(sp)
    21b0:	06f12e23          	sw	a5,124(sp)
    21b4:	0af12023          	sw	a5,160(sp)
    21b8:	0af12223          	sw	a5,164(sp)
    21bc:	0cf12423          	sw	a5,200(sp)
    21c0:	0cf12623          	sw	a5,204(sp)
    21c4:	0ef12823          	sw	a5,240(sp)
    21c8:	0ef12a23          	sw	a5,244(sp)
    21cc:	0ef12c23          	sw	a5,248(sp)
    21d0:	0ef12e23          	sw	a5,252(sp)
    21d4:	10f12023          	sw	a5,256(sp)
    21d8:	10f12223          	sw	a5,260(sp)
    21dc:	10f12423          	sw	a5,264(sp)
    21e0:	10f12623          	sw	a5,268(sp)
    21e4:	10f12e23          	sw	a5,284(sp)
    21e8:	12f12023          	sw	a5,288(sp)
    21ec:	12f12223          	sw	a5,292(sp)
    21f0:	12f12423          	sw	a5,296(sp)
    21f4:	12f12623          	sw	a5,300(sp)
    21f8:	12f12823          	sw	a5,304(sp)
    21fc:	12f12a23          	sw	a5,308(sp)
    2200:	1ef12223          	sw	a5,484(sp)
    2204:	ec1ff06f          	j	20c4 <drawNumber+0xce4>

00002208 <drawScore>:
    2208:	fe010113          	addi	sp,sp,-32
    220c:	00912a23          	sw	s1,20(sp)
    2210:	01212823          	sw	s2,16(sp)
    2214:	ccccd4b7          	lui	s1,0xccccd
    2218:	66666937          	lui	s2,0x66666
    221c:	00812c23          	sw	s0,24(sp)
    2220:	01312623          	sw	s3,12(sp)
    2224:	01412423          	sw	s4,8(sp)
    2228:	01512223          	sw	s5,4(sp)
    222c:	00112e23          	sw	ra,28(sp)
    2230:	00050a13          	mv	s4,a0
    2234:	66790913          	addi	s2,s2,1639 # 66666667 <_stack_end+0x6655cc5f>
    2238:	ccd48493          	addi	s1,s1,-819 # cccccccd <_stack_end+0xccbc32c5>
    223c:	00000a93          	li	s5,0
    2240:	3e800413          	li	s0,1000
    2244:	03000993          	li	s3,48
    2248:	028a4533          	div	a0,s4,s0
    224c:	000a8593          	mv	a1,s5
    2250:	00ca8a93          	addi	s5,s5,12
    2254:	032517b3          	mulh	a5,a0,s2
    2258:	41f55713          	srai	a4,a0,0x1f
    225c:	02943433          	mulhu	s0,s0,s1
    2260:	4027d793          	srai	a5,a5,0x2
    2264:	40e787b3          	sub	a5,a5,a4
    2268:	00279713          	slli	a4,a5,0x2
    226c:	00f707b3          	add	a5,a4,a5
    2270:	00179793          	slli	a5,a5,0x1
    2274:	40f50533          	sub	a0,a0,a5
    2278:	968ff0ef          	jal	13e0 <drawNumber>
    227c:	00345413          	srli	s0,s0,0x3
    2280:	fd3a94e3          	bne	s5,s3,2248 <drawScore+0x40>
    2284:	01c12083          	lw	ra,28(sp)
    2288:	01812403          	lw	s0,24(sp)
    228c:	01412483          	lw	s1,20(sp)
    2290:	01012903          	lw	s2,16(sp)
    2294:	00c12983          	lw	s3,12(sp)
    2298:	00812a03          	lw	s4,8(sp)
    229c:	00412a83          	lw	s5,4(sp)
    22a0:	02010113          	addi	sp,sp,32
    22a4:	00008067          	ret

000022a8 <newMenu>:
    22a8:	ff010113          	addi	sp,sp,-16
    22ac:	00000513          	li	a0,0
    22b0:	00000593          	li	a1,0
    22b4:	01010113          	addi	sp,sp,16
    22b8:	00008067          	ret

000022bc <__subdf3>:
    22bc:	800007b7          	lui	a5,0x80000
    22c0:	00f6c6b3          	xor	a3,a3,a5

000022c4 <__adddf3>:
    22c4:	ffe007b7          	lui	a5,0xffe00
    22c8:	00159393          	slli	t2,a1,0x1
    22cc:	00169293          	slli	t0,a3,0x1
    22d0:	2cf3fc63          	bgeu	t2,a5,25a8 <infnan>
    22d4:	2cf2f263          	bgeu	t0,a5,2598 <infnan_B_only>
    22d8:	0153d393          	srli	t2,t2,0x15
    22dc:	0152d293          	srli	t0,t0,0x15
    22e0:	28038c63          	beqz	t2,2578 <zero_operand>
    22e4:	2a028063          	beqz	t0,2584 <zero_operand_Y>
    22e8:	40538333          	sub	t1,t2,t0
    22ec:	0253f263          	bgeu	t2,t0,2310 <__adddf3+0x4c>
    22f0:	40600333          	neg	t1,t1
    22f4:	00028393          	mv	t2,t0
    22f8:	00c54633          	xor	a2,a0,a2
    22fc:	00d5c6b3          	xor	a3,a1,a3
    2300:	00a64533          	xor	a0,a2,a0
    2304:	00b6c5b3          	xor	a1,a3,a1
    2308:	00c54633          	xor	a2,a0,a2
    230c:	00d5c6b3          	xor	a3,a1,a3
    2310:	03733293          	sltiu	t0,t1,55
    2314:	14028663          	beqz	t0,2460 <exit>
    2318:	fff7c793          	not	a5,a5
    231c:	01429293          	slli	t0,t0,0x14
    2320:	0055e5b3          	or	a1,a1,t0
    2324:	0056e6b3          	or	a3,a3,t0
    2328:	00b29293          	slli	t0,t0,0xb
    232c:	0055b733          	sltu	a4,a1,t0
    2330:	00f5f5b3          	and	a1,a1,a5
    2334:	00071a63          	bnez	a4,2348 <__adddf3+0x84>
    2338:	00153713          	seqz	a4,a0
    233c:	fff5c593          	not	a1,a1
    2340:	40a00533          	neg	a0,a0
    2344:	00e585b3          	add	a1,a1,a4
    2348:	0056b733          	sltu	a4,a3,t0
    234c:	00f6f6b3          	and	a3,a3,a5
    2350:	00071a63          	bnez	a4,2364 <sum>
    2354:	00163713          	seqz	a4,a2
    2358:	fff6c693          	not	a3,a3
    235c:	40c00633          	neg	a2,a2
    2360:	00e686b3          	add	a3,a3,a4

00002364 <sum>:
    2364:	fff38393          	addi	t2,t2,-1
    2368:	00000713          	li	a4,0
    236c:	02000793          	li	a5,32
    2370:	00f36a63          	bltu	t1,a5,2384 <sum+0x20>
    2374:	00060713          	mv	a4,a2
    2378:	00068613          	mv	a2,a3
    237c:	41f6d693          	srai	a3,a3,0x1f
    2380:	fe030313          	addi	t1,t1,-32
    2384:	02030863          	beqz	t1,23b4 <sum+0x50>
    2388:	406782b3          	sub	t0,a5,t1
    238c:	005717b3          	sll	a5,a4,t0
    2390:	00675733          	srl	a4,a4,t1
    2394:	00f037b3          	snez	a5,a5
    2398:	00f76733          	or	a4,a4,a5
    239c:	005617b3          	sll	a5,a2,t0
    23a0:	00f76733          	or	a4,a4,a5
    23a4:	00665633          	srl	a2,a2,t1
    23a8:	005697b3          	sll	a5,a3,t0
    23ac:	00f66633          	or	a2,a2,a5
    23b0:	4066d6b3          	sra	a3,a3,t1
    23b4:	00c50533          	add	a0,a0,a2
    23b8:	00c53633          	sltu	a2,a0,a2
    23bc:	00c686b3          	add	a3,a3,a2
    23c0:	00d585b3          	add	a1,a1,a3
    23c4:	01f5d293          	srli	t0,a1,0x1f
    23c8:	01f29293          	slli	t0,t0,0x1f
    23cc:	0205d263          	bgez	a1,23f0 <pos_or_zero>
    23d0:	40e00733          	neg	a4,a4
    23d4:	00173793          	seqz	a5,a4
    23d8:	fff54513          	not	a0,a0
    23dc:	00f50533          	add	a0,a0,a5
    23e0:	00153613          	seqz	a2,a0
    23e4:	00f67633          	and	a2,a2,a5
    23e8:	fff5c593          	not	a1,a1
    23ec:	00c585b3          	add	a1,a1,a2

000023f0 <pos_or_zero>:
    23f0:	001007b7          	lui	a5,0x100
    23f4:	06f5e863          	bltu	a1,a5,2464 <num_canc>
    23f8:	00179793          	slli	a5,a5,0x1
    23fc:	02f5ea63          	bltu	a1,a5,2430 <rounding>
    2400:	00177793          	andi	a5,a4,1
    2404:	00175713          	srli	a4,a4,0x1
    2408:	00f76733          	or	a4,a4,a5
    240c:	01f51793          	slli	a5,a0,0x1f
    2410:	00f76733          	or	a4,a4,a5
    2414:	00155513          	srli	a0,a0,0x1
    2418:	01f59793          	slli	a5,a1,0x1f
    241c:	00f56533          	or	a0,a0,a5
    2420:	0015d593          	srli	a1,a1,0x1
    2424:	00138393          	addi	t2,t2,1
    2428:	7fe00793          	li	a5,2046
    242c:	14f3de63          	bge	t2,a5,2588 <inf>

00002430 <rounding>:
    2430:	800007b7          	lui	a5,0x80000
    2434:	00f76c63          	bltu	a4,a5,244c <exp_sign_exit>
    2438:	00150513          	addi	a0,a0,1
    243c:	00153613          	seqz	a2,a0
    2440:	00c585b3          	add	a1,a1,a2
    2444:	00f71463          	bne	a4,a5,244c <exp_sign_exit>
    2448:	ffe57513          	andi	a0,a0,-2

0000244c <exp_sign_exit>:
    244c:	00a5e633          	or	a2,a1,a0
    2450:	10060c63          	beqz	a2,2568 <signed_zero>
    2454:	01439393          	slli	t2,t2,0x14
    2458:	007585b3          	add	a1,a1,t2

0000245c <sign_and_exit>:
    245c:	0055e5b3          	or	a1,a1,t0

00002460 <exit>:
    2460:	00008067          	ret

00002464 <num_canc>:
    2464:	00159593          	slli	a1,a1,0x1
    2468:	01f55793          	srli	a5,a0,0x1f
    246c:	00f5e5b3          	or	a1,a1,a5
    2470:	00151513          	slli	a0,a0,0x1
    2474:	01f75793          	srli	a5,a4,0x1f
    2478:	00f56533          	or	a0,a0,a5
    247c:	00171713          	slli	a4,a4,0x1
    2480:	00038793          	mv	a5,t2
    2484:	fff38393          	addi	t2,t2,-1
    2488:	00078663          	beqz	a5,2494 <denormal_or_str_canc>
    248c:	001007b7          	lui	a5,0x100
    2490:	faf5f0e3          	bgeu	a1,a5,2430 <rounding>

00002494 <denormal_or_str_canc>:
    2494:	00059863          	bnez	a1,24a4 <denormal_or_str_canc+0x10>
    2498:	00050593          	mv	a1,a0
    249c:	00000513          	li	a0,0
    24a0:	02000713          	li	a4,32
    24a4:	00058693          	mv	a3,a1
    24a8:	000107b7          	lui	a5,0x10
    24ac:	00f6f663          	bgeu	a3,a5,24b8 <denormal_or_str_canc+0x24>
    24b0:	01069693          	slli	a3,a3,0x10
    24b4:	01070713          	addi	a4,a4,16
    24b8:	00479793          	slli	a5,a5,0x4
    24bc:	00f6f663          	bgeu	a3,a5,24c8 <denormal_or_str_canc+0x34>
    24c0:	00c69693          	slli	a3,a3,0xc
    24c4:	00c70713          	addi	a4,a4,12
    24c8:	00479793          	slli	a5,a5,0x4
    24cc:	00f6f663          	bgeu	a3,a5,24d8 <denormal_or_str_canc+0x44>
    24d0:	00869693          	slli	a3,a3,0x8
    24d4:	00870713          	addi	a4,a4,8
    24d8:	00479793          	slli	a5,a5,0x4
    24dc:	00f6f663          	bgeu	a3,a5,24e8 <denormal_or_str_canc+0x54>
    24e0:	00469693          	slli	a3,a3,0x4
    24e4:	00470713          	addi	a4,a4,4
    24e8:	00279793          	slli	a5,a5,0x2
    24ec:	00f6f663          	bgeu	a3,a5,24f8 <denormal_or_str_canc+0x64>
    24f0:	00269693          	slli	a3,a3,0x2
    24f4:	00270713          	addi	a4,a4,2
    24f8:	00179793          	slli	a5,a5,0x1
    24fc:	00f6f663          	bgeu	a3,a5,2508 <denormal_or_str_canc+0x74>
    2500:	00169693          	slli	a3,a3,0x1
    2504:	00170713          	addi	a4,a4,1
    2508:	ff570713          	addi	a4,a4,-11
    250c:	04070863          	beqz	a4,255c <denormal_canc>
    2510:	fe070613          	addi	a2,a4,-32
    2514:	02065263          	bgez	a2,2538 <denormal_or_str_canc+0xa4>
    2518:	00c60613          	addi	a2,a2,12
    251c:	00c05c63          	blez	a2,2534 <denormal_or_str_canc+0xa0>
    2520:	00c00693          	li	a3,12
    2524:	40c68633          	sub	a2,a3,a2
    2528:	00e59533          	sll	a0,a1,a4
    252c:	00c5d5b3          	srl	a1,a1,a2
    2530:	0200006f          	j	2550 <denormal_or_str_canc+0xbc>
    2534:	01460613          	addi	a2,a2,20
    2538:	00c595b3          	sll	a1,a1,a2
    253c:	02000693          	li	a3,32
    2540:	40c686b3          	sub	a3,a3,a2
    2544:	00d556b3          	srl	a3,a0,a3
    2548:	00d5e5b3          	or	a1,a1,a3
    254c:	00c51533          	sll	a0,a0,a2
    2550:	40e383b3          	sub	t2,t2,a4
    2554:	0003c463          	bltz	t2,255c <denormal_canc>
    2558:	ef5ff06f          	j	244c <exp_sign_exit>

0000255c <denormal_canc>:
    255c:	00000593          	li	a1,0
    2560:	02c0006f          	j	258c <sign_zero_xl>

00002564 <both_denormals>:
    2564:	00d5f5b3          	and	a1,a1,a3

00002568 <signed_zero>:
    2568:	01f5d593          	srli	a1,a1,0x1f
    256c:	01f59593          	slli	a1,a1,0x1f

00002570 <zero_xl>:
    2570:	00000513          	li	a0,0
    2574:	eedff06f          	j	2460 <exit>

00002578 <zero_operand>:
    2578:	fe0286e3          	beqz	t0,2564 <both_denormals>
    257c:	00068593          	mv	a1,a3
    2580:	00060513          	mv	a0,a2

00002584 <zero_operand_Y>:
    2584:	eddff06f          	j	2460 <exit>

00002588 <inf>:
    2588:	7ff005b7          	lui	a1,0x7ff00

0000258c <sign_zero_xl>:
    258c:	0055e5b3          	or	a1,a1,t0
    2590:	00000513          	li	a0,0
    2594:	ecdff06f          	j	2460 <exit>

00002598 <infnan_B_only>:
    2598:	00068593          	mv	a1,a3
    259c:	00060513          	mv	a0,a2
    25a0:	00028393          	mv	t2,t0
    25a4:	0100006f          	j	25b4 <infnan_end>

000025a8 <infnan>:
    25a8:	00f2f663          	bgeu	t0,a5,25b4 <infnan_end>
    25ac:	00058693          	mv	a3,a1
    25b0:	00050613          	mv	a2,a0

000025b4 <infnan_end>:
    25b4:	00b39393          	slli	t2,t2,0xb
    25b8:	00a3e3b3          	or	t2,t2,a0
    25bc:	00039863          	bnez	t2,25cc <produce_nan>
    25c0:	00c51663          	bne	a0,a2,25cc <produce_nan>
    25c4:	00d59463          	bne	a1,a3,25cc <produce_nan>
    25c8:	e99ff06f          	j	2460 <exit>

000025cc <produce_nan>:
    25cc:	7ff805b7          	lui	a1,0x7ff80
    25d0:	fa1ff06f          	j	2570 <zero_xl>

000025d4 <__divdf3>:
    25d4:	ffe007b7          	lui	a5,0xffe00
    25d8:	00159713          	slli	a4,a1,0x1
    25dc:	00169313          	slli	t1,a3,0x1
    25e0:	24f77c63          	bgeu	a4,a5,2838 <inf_nan>
    25e4:	24f37a63          	bgeu	t1,a5,2838 <inf_nan>
    25e8:	01575713          	srli	a4,a4,0x15
    25ec:	01535313          	srli	t1,t1,0x15
    25f0:	22070863          	beqz	a4,2820 <zero_denormal>
    25f4:	22030663          	beqz	t1,2820 <zero_denormal>

000025f8 <normal_case>:
    25f8:	40670733          	sub	a4,a4,t1
    25fc:	00d5c2b3          	xor	t0,a1,a3
    2600:	00c69693          	slli	a3,a3,0xc
    2604:	00d667b3          	or	a5,a2,a3
    2608:	00c59593          	slli	a1,a1,0xc
    260c:	1e078063          	beqz	a5,27ec <pow_2>
    2610:	100007b7          	lui	a5,0x10000
    2614:	0046d693          	srli	a3,a3,0x4
    2618:	00f6e6b3          	or	a3,a3,a5
    261c:	01865393          	srli	t2,a2,0x18
    2620:	0076e6b3          	or	a3,a3,t2
    2624:	00861613          	slli	a2,a2,0x8
    2628:	0045d393          	srli	t2,a1,0x4
    262c:	0077e7b3          	or	a5,a5,t2
    2630:	01855393          	srli	t2,a0,0x18
    2634:	0077e7b3          	or	a5,a5,t2
    2638:	00851313          	slli	t1,a0,0x8
    263c:	800003b7          	lui	t2,0x80000
    2640:	0072f5b3          	and	a1,t0,t2
    2644:	40d783b3          	sub	t2,a5,a3
    2648:	0013b393          	seqz	t2,t2
    264c:	00c332b3          	sltu	t0,t1,a2
    2650:	0053f3b3          	and	t2,t2,t0
    2654:	00d7b2b3          	sltu	t0,a5,a3
    2658:	0053e3b3          	or	t2,t2,t0
    265c:	3fe70713          	addi	a4,a4,1022
    2660:	40770733          	sub	a4,a4,t2
    2664:	00038a63          	beqz	t2,2678 <normal_case+0x80>
    2668:	00165613          	srli	a2,a2,0x1
    266c:	01f69293          	slli	t0,a3,0x1f
    2670:	00566633          	or	a2,a2,t0
    2674:	0016d693          	srli	a3,a3,0x1
    2678:	00c332b3          	sltu	t0,t1,a2
    267c:	40c30333          	sub	t1,t1,a2
    2680:	40d787b3          	sub	a5,a5,a3
    2684:	405787b3          	sub	a5,a5,t0
    2688:	00165613          	srli	a2,a2,0x1
    268c:	01f69293          	slli	t0,a3,0x1f
    2690:	00566633          	or	a2,a2,t0
    2694:	0016d693          	srli	a3,a3,0x1
    2698:	00100537          	lui	a0,0x100
    269c:	000803b7          	lui	t2,0x80

000026a0 <div_loop_start>:
    26a0:	40d782b3          	sub	t0,a5,a3
    26a4:	00c37463          	bgeu	t1,a2,26ac <div_loop_start+0xc>
    26a8:	fff28293          	addi	t0,t0,-1
    26ac:	0002c863          	bltz	t0,26bc <div_loop_start+0x1c>
    26b0:	40c30333          	sub	t1,t1,a2
    26b4:	00028793          	mv	a5,t0
    26b8:	00756533          	or	a0,a0,t2
    26bc:	00165613          	srli	a2,a2,0x1
    26c0:	01f69293          	slli	t0,a3,0x1f
    26c4:	00566633          	or	a2,a2,t0
    26c8:	0016d693          	srli	a3,a3,0x1
    26cc:	40d782b3          	sub	t0,a5,a3
    26d0:	00c37463          	bgeu	t1,a2,26d8 <div_loop_start+0x38>
    26d4:	fff28293          	addi	t0,t0,-1
    26d8:	0002ca63          	bltz	t0,26ec <div_loop_start+0x4c>
    26dc:	40c30333          	sub	t1,t1,a2
    26e0:	00028793          	mv	a5,t0
    26e4:	0013d293          	srli	t0,t2,0x1
    26e8:	00556533          	or	a0,a0,t0
    26ec:	00165613          	srli	a2,a2,0x1
    26f0:	01f69293          	slli	t0,a3,0x1f
    26f4:	00566633          	or	a2,a2,t0
    26f8:	0016d693          	srli	a3,a3,0x1
    26fc:	40d782b3          	sub	t0,a5,a3
    2700:	00c37463          	bgeu	t1,a2,2708 <div_loop_start+0x68>
    2704:	fff28293          	addi	t0,t0,-1
    2708:	0002ca63          	bltz	t0,271c <div_loop_start+0x7c>
    270c:	40c30333          	sub	t1,t1,a2
    2710:	00028793          	mv	a5,t0
    2714:	0023d293          	srli	t0,t2,0x2
    2718:	00556533          	or	a0,a0,t0
    271c:	00165613          	srli	a2,a2,0x1
    2720:	01f69293          	slli	t0,a3,0x1f
    2724:	00566633          	or	a2,a2,t0
    2728:	0016d693          	srli	a3,a3,0x1
    272c:	40d782b3          	sub	t0,a5,a3
    2730:	00c37463          	bgeu	t1,a2,2738 <div_loop_start+0x98>
    2734:	fff28293          	addi	t0,t0,-1
    2738:	0002ca63          	bltz	t0,274c <div_loop_start+0xac>
    273c:	40c30333          	sub	t1,t1,a2
    2740:	00028793          	mv	a5,t0
    2744:	0033d293          	srli	t0,t2,0x3
    2748:	00556533          	or	a0,a0,t0
    274c:	0067e2b3          	or	t0,a5,t1
    2750:	04028463          	beqz	t0,2798 <div_loop_exit>
    2754:	00479793          	slli	a5,a5,0x4
    2758:	01c35293          	srli	t0,t1,0x1c
    275c:	0057e7b3          	or	a5,a5,t0
    2760:	00431313          	slli	t1,t1,0x4
    2764:	00369693          	slli	a3,a3,0x3
    2768:	01d65293          	srli	t0,a2,0x1d
    276c:	0056e6b3          	or	a3,a3,t0
    2770:	00361613          	slli	a2,a2,0x3
    2774:	0043d393          	srli	t2,t2,0x4
    2778:	f20394e3          	bnez	t2,26a0 <div_loop_start>
    277c:	001002b7          	lui	t0,0x100
    2780:	00b2f2b3          	and	t0,t0,a1
    2784:	02029463          	bnez	t0,27ac <checks>
    2788:	00a5e5b3          	or	a1,a1,a0
    278c:	00000513          	li	a0,0
    2790:	800003b7          	lui	t2,0x80000
    2794:	f0dff06f          	j	26a0 <div_loop_start>

00002798 <div_loop_exit>:
    2798:	001002b7          	lui	t0,0x100
    279c:	00b2f2b3          	and	t0,t0,a1
    27a0:	00029663          	bnez	t0,27ac <checks>
    27a4:	00a5e5b3          	or	a1,a1,a0
    27a8:	00000513          	li	a0,0

000027ac <checks>:
    27ac:	f0370393          	addi	t2,a4,-253
    27b0:	00e3f663          	bgeu	t2,a4,27bc <exp_round>
    27b4:	70000293          	li	t0,1792
    27b8:	0672e063          	bltu	t0,t2,2818 <und_ov_flow>

000027bc <exp_round>:
    27bc:	01471713          	slli	a4,a4,0x14
    27c0:	00e585b3          	add	a1,a1,a4
    27c4:	02d7e263          	bltu	a5,a3,27e8 <exit>
    27c8:	00f6ea63          	bltu	a3,a5,27dc <round_up>
    27cc:	00c36e63          	bltu	t1,a2,27e8 <exit>
    27d0:	00666663          	bltu	a2,t1,27dc <round_up>
    27d4:	01f51293          	slli	t0,a0,0x1f
    27d8:	00028863          	beqz	t0,27e8 <exit>

000027dc <round_up>:
    27dc:	00150513          	addi	a0,a0,1 # 100001 <__stack_size+0x1>
    27e0:	00153293          	seqz	t0,a0
    27e4:	005585b3          	add	a1,a1,t0

000027e8 <exit>:
    27e8:	00008067          	ret

000027ec <pow_2>:
    27ec:	800003b7          	lui	t2,0x80000
    27f0:	0072f2b3          	and	t0,t0,t2
    27f4:	00c5d593          	srli	a1,a1,0xc
    27f8:	0055e5b3          	or	a1,a1,t0
    27fc:	3ff70713          	addi	a4,a4,1023
    2800:	02e05463          	blez	a4,2828 <signed_zero>
    2804:	7ff72293          	slti	t0,a4,2047
    2808:	04028a63          	beqz	t0,285c <ovf>
    280c:	01471713          	slli	a4,a4,0x14
    2810:	00e5e5b3          	or	a1,a1,a4
    2814:	00008067          	ret

00002818 <und_ov_flow>:
    2818:	0472c263          	blt	t0,t2,285c <ovf>
    281c:	00c0006f          	j	2828 <signed_zero>

00002820 <zero_denormal>:
    2820:	04030a63          	beqz	t1,2874 <div_by_zero>

00002824 <zero>:
    2824:	00d5c5b3          	xor	a1,a1,a3

00002828 <signed_zero>:
    2828:	01f5d593          	srli	a1,a1,0x1f
    282c:	01f59593          	slli	a1,a1,0x1f
    2830:	00000513          	li	a0,0
    2834:	00008067          	ret

00002838 <inf_nan>:
    2838:	00a032b3          	snez	t0,a0
    283c:	00e2e2b3          	or	t0,t0,a4
    2840:	0257ec63          	bltu	a5,t0,2878 <nan>
    2844:	00c032b3          	snez	t0,a2
    2848:	0062e2b3          	or	t0,t0,t1
    284c:	0257e663          	bltu	a5,t0,2878 <nan>
    2850:	02670463          	beq	a4,t1,2878 <nan>
    2854:	fcf308e3          	beq	t1,a5,2824 <zero>

00002858 <inf>:
    2858:	00d5c5b3          	xor	a1,a1,a3

0000285c <ovf>:
    285c:	7ff006b7          	lui	a3,0x7ff00
    2860:	01f5d593          	srli	a1,a1,0x1f
    2864:	01f59593          	slli	a1,a1,0x1f
    2868:	00d5e5b3          	or	a1,a1,a3
    286c:	00000513          	li	a0,0
    2870:	00008067          	ret

00002874 <div_by_zero>:
    2874:	fe0712e3          	bnez	a4,2858 <inf>

00002878 <nan>:
    2878:	7ff805b7          	lui	a1,0x7ff80
    287c:	00000513          	li	a0,0
    2880:	00008067          	ret

00002884 <__fixsfsi>:
    2884:	80000737          	lui	a4,0x80000
    2888:	41f55793          	srai	a5,a0,0x1f
    288c:	00151513          	slli	a0,a0,0x1
    2890:	01855593          	srli	a1,a0,0x18
    2894:	f8158593          	addi	a1,a1,-127 # 7ff7ff81 <_stack_end+0x7fe76579>
    2898:	0205ca63          	bltz	a1,28cc <undflow>
    289c:	40b005b3          	neg	a1,a1
    28a0:	01f58593          	addi	a1,a1,31
    28a4:	00b05e63          	blez	a1,28c0 <ovflow>
    28a8:	00751513          	slli	a0,a0,0x7
    28ac:	00e56533          	or	a0,a0,a4
    28b0:	00b55533          	srl	a0,a0,a1
    28b4:	00f54533          	xor	a0,a0,a5
    28b8:	40f50533          	sub	a0,a0,a5
    28bc:	00008067          	ret

000028c0 <ovflow>:
    28c0:	fff70513          	addi	a0,a4,-1 # 7fffffff <_stack_end+0x7fef65f7>
    28c4:	00f54533          	xor	a0,a0,a5
    28c8:	00008067          	ret

000028cc <undflow>:
    28cc:	00000513          	li	a0,0
    28d0:	00008067          	ret

000028d4 <__floatsidf>:
    28d4:	41f55793          	srai	a5,a0,0x1f
    28d8:	00f545b3          	xor	a1,a0,a5
    28dc:	40f585b3          	sub	a1,a1,a5
    28e0:	02050863          	beqz	a0,2910 <exit>
    28e4:	01f79793          	slli	a5,a5,0x1f
    28e8:	41d00613          	li	a2,1053
    28ec:	0005c863          	bltz	a1,28fc <__floatsidf+0x28>
    28f0:	fff60613          	addi	a2,a2,-1
    28f4:	00159593          	slli	a1,a1,0x1
    28f8:	feb04ce3          	bgtz	a1,28f0 <__floatsidf+0x1c>
    28fc:	01559513          	slli	a0,a1,0x15
    2900:	00b5d593          	srli	a1,a1,0xb
    2904:	01461613          	slli	a2,a2,0x14
    2908:	00c585b3          	add	a1,a1,a2
    290c:	00f5e5b3          	or	a1,a1,a5

00002910 <exit>:
    2910:	00008067          	ret

00002914 <__muldf3>:
    2914:	00d5c733          	xor	a4,a1,a3
    2918:	800007b7          	lui	a5,0x80000
    291c:	00f772b3          	and	t0,a4,a5
    2920:	7ff00793          	li	a5,2047
    2924:	0145d713          	srli	a4,a1,0x14
    2928:	00f77733          	and	a4,a4,a5
    292c:	0146d313          	srli	t1,a3,0x14
    2930:	00f37333          	and	t1,t1,a5
    2934:	10f70863          	beq	a4,a5,2a44 <inf_nan>
    2938:	10f30663          	beq	t1,a5,2a44 <inf_nan>
    293c:	0e070e63          	beqz	a4,2a38 <signed_zero>
    2940:	0e030c63          	beqz	t1,2a38 <signed_zero>

00002944 <normal_case>:
    2944:	00670733          	add	a4,a4,t1
    2948:	fff007b7          	lui	a5,0xfff00
    294c:	fff7c793          	not	a5,a5
    2950:	00f5f5b3          	and	a1,a1,a5
    2954:	00f6f6b3          	and	a3,a3,a5
    2958:	001007b7          	lui	a5,0x100
    295c:	00f5e5b3          	or	a1,a1,a5
    2960:	00f6e6b3          	or	a3,a3,a5
    2964:	02c58333          	mul	t1,a1,a2
    2968:	02d507b3          	mul	a5,a0,a3
    296c:	00f30333          	add	t1,t1,a5
    2970:	00f337b3          	sltu	a5,t1,a5
    2974:	02c5b3b3          	mulhu	t2,a1,a2
    2978:	00f383b3          	add	t2,t2,a5
    297c:	02d537b3          	mulhu	a5,a0,a3
    2980:	00f383b3          	add	t2,t2,a5
    2984:	02c507b3          	mul	a5,a0,a2
    2988:	02c53633          	mulhu	a2,a0,a2
    298c:	02d58533          	mul	a0,a1,a3
    2990:	02d5b5b3          	mulhu	a1,a1,a3
    2994:	00660633          	add	a2,a2,t1
    2998:	00663333          	sltu	t1,a2,t1
    299c:	006383b3          	add	t2,t2,t1
    29a0:	00750533          	add	a0,a0,t2
    29a4:	007533b3          	sltu	t2,a0,t2
    29a8:	007585b3          	add	a1,a1,t2
    29ac:	00f037b3          	snez	a5,a5
    29b0:	00f66633          	or	a2,a2,a5
    29b4:	20000393          	li	t2,512
    29b8:	0275f263          	bgeu	a1,t2,29dc <normal_case+0x98>
    29bc:	00159593          	slli	a1,a1,0x1
    29c0:	01f55793          	srli	a5,a0,0x1f
    29c4:	00f5e5b3          	or	a1,a1,a5
    29c8:	00151513          	slli	a0,a0,0x1
    29cc:	01f65793          	srli	a5,a2,0x1f
    29d0:	00f56533          	or	a0,a0,a5
    29d4:	00161613          	slli	a2,a2,0x1
    29d8:	fff70713          	addi	a4,a4,-1
    29dc:	00b59593          	slli	a1,a1,0xb
    29e0:	01555793          	srli	a5,a0,0x15
    29e4:	00f5e5b3          	or	a1,a1,a5
    29e8:	00b51513          	slli	a0,a0,0xb
    29ec:	01565793          	srli	a5,a2,0x15
    29f0:	00f56533          	or	a0,a0,a5
    29f4:	00b61613          	slli	a2,a2,0xb
    29f8:	c0170713          	addi	a4,a4,-1023
    29fc:	7fe00313          	li	t1,2046
    2a00:	02677863          	bgeu	a4,t1,2a30 <und_ov_flow>
    2a04:	01471713          	slli	a4,a4,0x14
    2a08:	00e585b3          	add	a1,a1,a4

00002a0c <rounding>:
    2a0c:	800007b7          	lui	a5,0x80000
    2a10:	00f66c63          	bltu	a2,a5,2a28 <exit>
    2a14:	00150513          	addi	a0,a0,1
    2a18:	00153313          	seqz	t1,a0
    2a1c:	006585b3          	add	a1,a1,t1
    2a20:	00f61463          	bne	a2,a5,2a28 <exit>
    2a24:	ffe57513          	andi	a0,a0,-2

00002a28 <exit>:
    2a28:	0055e5b3          	or	a1,a1,t0
    2a2c:	00008067          	ret

00002a30 <und_ov_flow>:
    2a30:	04e04463          	bgtz	a4,2a78 <inf>
    2a34:	0040006f          	j	2a38 <signed_zero>

00002a38 <signed_zero>:
    2a38:	00028593          	mv	a1,t0

00002a3c <zero_xl>:
    2a3c:	00000513          	li	a0,0
    2a40:	00008067          	ret

00002a44 <inf_nan>:
    2a44:	7ff00393          	li	t2,2047
    2a48:	01571793          	slli	a5,a4,0x15
    2a4c:	02078c63          	beqz	a5,2a84 <nan>
    2a50:	01531793          	slli	a5,t1,0x15
    2a54:	02078863          	beqz	a5,2a84 <nan>
    2a58:	00771863          	bne	a4,t2,2a68 <inf_nan+0x24>
    2a5c:	00c59793          	slli	a5,a1,0xc
    2a60:	00a7e7b3          	or	a5,a5,a0
    2a64:	02079063          	bnez	a5,2a84 <nan>
    2a68:	00731863          	bne	t1,t2,2a78 <inf>
    2a6c:	00c69713          	slli	a4,a3,0xc
    2a70:	00c76733          	or	a4,a4,a2
    2a74:	00071863          	bnez	a4,2a84 <nan>

00002a78 <inf>:
    2a78:	7ff005b7          	lui	a1,0x7ff00
    2a7c:	0055e5b3          	or	a1,a1,t0
    2a80:	fbdff06f          	j	2a3c <zero_xl>

00002a84 <nan>:
    2a84:	7ff805b7          	lui	a1,0x7ff80
    2a88:	fb5ff06f          	j	2a3c <zero_xl>

00002a8c <__truncdfsf2>:
    2a8c:	80000637          	lui	a2,0x80000
    2a90:	00b676b3          	and	a3,a2,a1
    2a94:	00159593          	slli	a1,a1,0x1
    2a98:	ffe00737          	lui	a4,0xffe00
    2a9c:	04e5f663          	bgeu	a1,a4,2ae8 <inf_nan>
    2aa0:	0155d713          	srli	a4,a1,0x15
    2aa4:	c8070713          	addi	a4,a4,-896 # ffdffc80 <_stack_end+0xffcf6278>
    2aa8:	04e05e63          	blez	a4,2b04 <undflow>
    2aac:	f0270793          	addi	a5,a4,-254
    2ab0:	04f04063          	bgtz	a5,2af0 <inf>
    2ab4:	00351793          	slli	a5,a0,0x3
    2ab8:	01d55513          	srli	a0,a0,0x1d
    2abc:	00b59593          	slli	a1,a1,0xb
    2ac0:	0095d593          	srli	a1,a1,0x9
    2ac4:	00b56533          	or	a0,a0,a1
    2ac8:	0007d863          	bgez	a5,2ad8 <exp_sign_exit>
    2acc:	00150513          	addi	a0,a0,1
    2ad0:	00c79463          	bne	a5,a2,2ad8 <exp_sign_exit>
    2ad4:	ffe57513          	andi	a0,a0,-2

00002ad8 <exp_sign_exit>:
    2ad8:	01771713          	slli	a4,a4,0x17
    2adc:	00e50533          	add	a0,a0,a4
    2ae0:	00d56533          	or	a0,a0,a3
    2ae4:	00008067          	ret

00002ae8 <inf_nan>:
    2ae8:	00b76a63          	bltu	a4,a1,2afc <nan>
    2aec:	00051863          	bnez	a0,2afc <nan>

00002af0 <inf>:
    2af0:	7f800537          	lui	a0,0x7f800
    2af4:	00d56533          	or	a0,a0,a3
    2af8:	00008067          	ret

00002afc <nan>:
    2afc:	7fc00537          	lui	a0,0x7fc00
    2b00:	00008067          	ret

00002b04 <undflow>:
    2b04:	00068513          	mv	a0,a3
    2b08:	00008067          	ret

Disassembly of section .data:

00002b0c <welcome_msg>:
    2b0c:	3d3d                	.insn	2, 0x3d3d
    2b0e:	3d3d                	.insn	2, 0x3d3d
    2b10:	3d3d                	.insn	2, 0x3d3d
    2b12:	3d3d                	.insn	2, 0x3d3d
    2b14:	3d3d                	.insn	2, 0x3d3d
    2b16:	3d3d                	.insn	2, 0x3d3d
    2b18:	3d3d                	.insn	2, 0x3d3d
    2b1a:	3d3d                	.insn	2, 0x3d3d
    2b1c:	3d3d                	.insn	2, 0x3d3d
    2b1e:	3d3d                	.insn	2, 0x3d3d
    2b20:	3d3d                	.insn	2, 0x3d3d
    2b22:	3d3d                	.insn	2, 0x3d3d
    2b24:	3d3d                	.insn	2, 0x3d3d
    2b26:	3d3d                	.insn	2, 0x3d3d
    2b28:	3d3d                	.insn	2, 0x3d3d
    2b2a:	3d3d                	.insn	2, 0x3d3d
    2b2c:	3d3d                	.insn	2, 0x3d3d
    2b2e:	3d3d                	.insn	2, 0x3d3d
    2b30:	3d3d                	.insn	2, 0x3d3d
    2b32:	3d3d                	.insn	2, 0x3d3d
    2b34:	3d3d                	.insn	2, 0x3d3d
    2b36:	3d3d                	.insn	2, 0x3d3d
    2b38:	3d3d                	.insn	2, 0x3d3d
    2b3a:	3d3d                	.insn	2, 0x3d3d
    2b3c:	3d0a                	.insn	2, 0x3d0a
    2b3e:	3d3d                	.insn	2, 0x3d3d
    2b40:	3d3d                	.insn	2, 0x3d3d
    2b42:	5220                	.insn	2, 0x5220
    2b44:	5349                	.insn	2, 0x5349
    2b46:	20562d43          	.insn	4, 0x20562d43
    2b4a:	6f42                	.insn	2, 0x6f42
    2b4c:	552d746f          	jal	s0,da09e <__global_pointer+0xcff9e>
    2b50:	2070                	.insn	2, 0x2070
    2b52:	7250                	.insn	2, 0x7250
    2b54:	7365636f          	jal	t1,5928a <__global_pointer+0x4f18a>
    2b58:	6f4e2073          	csrs	0x6f4,t3
    2b5c:	6f432077          	.insn	4, 0x6f432077
    2b60:	706d                	.insn	2, 0x706d
    2b62:	656c                	.insn	2, 0x656c
    2b64:	6574                	.insn	2, 0x6574
    2b66:	3d20                	.insn	2, 0x3d20
    2b68:	3d3d                	.insn	2, 0x3d3d
    2b6a:	3d3d                	.insn	2, 0x3d3d
    2b6c:	0a3d                	.insn	2, 0x0a3d
    2b6e:	3d3d                	.insn	2, 0x3d3d
    2b70:	3d3d                	.insn	2, 0x3d3d
    2b72:	3d3d                	.insn	2, 0x3d3d
    2b74:	3d3d                	.insn	2, 0x3d3d
    2b76:	3d3d                	.insn	2, 0x3d3d
    2b78:	3d3d                	.insn	2, 0x3d3d
    2b7a:	3d3d                	.insn	2, 0x3d3d
    2b7c:	3d3d                	.insn	2, 0x3d3d
    2b7e:	3d3d                	.insn	2, 0x3d3d
    2b80:	3d3d                	.insn	2, 0x3d3d
    2b82:	3d3d                	.insn	2, 0x3d3d
    2b84:	3d3d                	.insn	2, 0x3d3d
    2b86:	3d3d                	.insn	2, 0x3d3d
    2b88:	3d3d                	.insn	2, 0x3d3d
    2b8a:	3d3d                	.insn	2, 0x3d3d
    2b8c:	3d3d                	.insn	2, 0x3d3d
    2b8e:	3d3d                	.insn	2, 0x3d3d
    2b90:	3d3d                	.insn	2, 0x3d3d
    2b92:	3d3d                	.insn	2, 0x3d3d
    2b94:	3d3d                	.insn	2, 0x3d3d
    2b96:	3d3d                	.insn	2, 0x3d3d
    2b98:	3d3d                	.insn	2, 0x3d3d
    2b9a:	3d3d                	.insn	2, 0x3d3d
    2b9c:	3d3d                	.insn	2, 0x3d3d
    2b9e:	000a                	.insn	2, 0x000a

00002ba0 <image_data>:
    2ba0:	0000                	.insn	2, 0x0000
    2ba2:	0000                	.insn	2, 0x0000
    2ba4:	0600                	.insn	2, 0x0600
    2ba6:	03030303          	lb	t1,48(t1)
    2baa:	00000303          	lb	t1,0(zero) # 0 <_isr_handler>
    2bae:	0000                	.insn	2, 0x0000
    2bb0:	0300                	.insn	2, 0x0300
    2bb2:	03030303          	lb	t1,48(t1)
    2bb6:	00000003          	lb	zero,0(zero) # 0 <_isr_handler>
    2bba:	0400                	.insn	2, 0x0400
    2bbc:	03030303          	lb	t1,48(t1)
    2bc0:	0006                	.insn	2, 0x0006
    2bc2:	0000                	.insn	2, 0x0000
    2bc4:	0000                	.insn	2, 0x0000
    2bc6:	0400                	.insn	2, 0x0400
    2bc8:	03030303          	lb	t1,48(t1)
    2bcc:	00000403          	lb	s0,0(zero) # 0 <_isr_handler>
    2bd0:	0000                	.insn	2, 0x0000
    2bd2:	0000                	.insn	2, 0x0000
    2bd4:	0306                	.insn	2, 0x0306
    2bd6:	06030303          	lb	t1,96(t1)
    2bda:	0000                	.insn	2, 0x0000
    2bdc:	0000                	.insn	2, 0x0000
    2bde:	03030303          	lb	t1,48(t1)
    2be2:	03030303          	lb	t1,48(t1)
    2be6:	03030303          	lb	t1,48(t1)
    2bea:	03030303          	lb	t1,48(t1)
    2bee:	03030303          	lb	t1,48(t1)
	...
    2bfe:	0000                	.insn	2, 0x0000
    2c00:	0306                	.insn	2, 0x0306
    2c02:	03030303          	lb	t1,48(t1)
    2c06:	00000603          	lb	a2,0(zero) # 0 <_isr_handler>
    2c0a:	0000                	.insn	2, 0x0000
    2c0c:	0000                	.insn	2, 0x0000
    2c0e:	0000                	.insn	2, 0x0000
    2c10:	0600                	.insn	2, 0x0600
    2c12:	03030303          	lb	t1,48(t1)
    2c16:	00000003          	lb	zero,0(zero) # 0 <_isr_handler>
    2c1a:	0000                	.insn	2, 0x0000
    2c1c:	0000                	.insn	2, 0x0000
    2c1e:	03030303          	lb	t1,48(t1)
    2c22:	00000303          	lb	t1,0(zero) # 0 <_isr_handler>
    2c26:	0000                	.insn	2, 0x0000
    2c28:	0000                	.insn	2, 0x0000
    2c2a:	03030303          	lb	t1,48(t1)
    2c2e:	00000303          	lb	t1,0(zero) # 0 <_isr_handler>
    2c32:	0304                	.insn	2, 0x0304
    2c34:	03030303          	lb	t1,48(t1)
    2c38:	03030303          	lb	t1,48(t1)
    2c3c:	04030303          	lb	t1,64(t1)
    2c40:	0000                	.insn	2, 0x0000
    2c42:	0000                	.insn	2, 0x0000
    2c44:	0306                	.insn	2, 0x0306
    2c46:	0c09                	.insn	2, 0x0c09
    2c48:	0c21                	.insn	2, 0x0c21
    2c4a:	0309                	.insn	2, 0x0309
    2c4c:	00000403          	lb	s0,0(zero) # 0 <_isr_handler>
    2c50:	0300                	.insn	2, 0x0300
    2c52:	03030303          	lb	t1,48(t1)
    2c56:	00000003          	lb	zero,0(zero) # 0 <_isr_handler>
    2c5a:	0400                	.insn	2, 0x0400
    2c5c:	03030303          	lb	t1,48(t1)
    2c60:	0006                	.insn	2, 0x0006
    2c62:	0000                	.insn	2, 0x0000
    2c64:	0000                	.insn	2, 0x0000
    2c66:	0600                	.insn	2, 0x0600
    2c68:	03030303          	lb	t1,48(t1)
    2c6c:	00000403          	lb	s0,0(zero) # 0 <_isr_handler>
    2c70:	0000                	.insn	2, 0x0000
    2c72:	0000                	.insn	2, 0x0000
    2c74:	0306                	.insn	2, 0x0306
    2c76:	06030303          	lb	t1,96(t1)
    2c7a:	0000                	.insn	2, 0x0000
    2c7c:	0000                	.insn	2, 0x0000
    2c7e:	03030303          	lb	t1,48(t1)
    2c82:	03060303          	lb	t1,48(a2) # 80000030 <_stack_end+0x7fef6628>
    2c86:	03030303          	lb	t1,48(t1)
    2c8a:	03030303          	lb	t1,48(t1)
    2c8e:	03030303          	lb	t1,48(t1)
	...
    2c9e:	0400                	.insn	2, 0x0400
    2ca0:	0b0c0e03          	lb	t3,176(s8)
    2ca4:	030e0c0b          	.insn	4, 0x030e0c0b
    2ca8:	0006                	.insn	2, 0x0006
    2caa:	0000                	.insn	2, 0x0000
    2cac:	0000                	.insn	2, 0x0000
    2cae:	0000                	.insn	2, 0x0000
    2cb0:	0300                	.insn	2, 0x0300
    2cb2:	03030303          	lb	t1,48(t1)
    2cb6:	00000003          	lb	zero,0(zero) # 0 <_isr_handler>
    2cba:	0000                	.insn	2, 0x0000
    2cbc:	0000                	.insn	2, 0x0000
    2cbe:	03030303          	lb	t1,48(t1)
    2cc2:	00000303          	lb	t1,0(zero) # 0 <_isr_handler>
    2cc6:	0000                	.insn	2, 0x0000
    2cc8:	0000                	.insn	2, 0x0000
    2cca:	03030303          	lb	t1,48(t1)
    2cce:	00000303          	lb	t1,0(zero) # 0 <_isr_handler>
    2cd2:	0304                	.insn	2, 0x0304
    2cd4:	03030303          	lb	t1,48(t1)
    2cd8:	03030303          	lb	t1,48(t1)
    2cdc:	04030303          	lb	t1,64(t1)
    2ce0:	0000                	.insn	2, 0x0000
    2ce2:	0400                	.insn	2, 0x0400
    2ce4:	02020703          	lb	a4,32(tp) # 20 <_isr_routine+0x18>
    2ce8:	0202                	.insn	2, 0x0202
    2cea:	0b02                	.insn	2, 0x0b02
    2cec:	030e                	.insn	2, 0x030e
    2cee:	0000                	.insn	2, 0x0000
    2cf0:	0700                	.insn	2, 0x0700
    2cf2:	0a0a                	.insn	2, 0x0a0a
    2cf4:	0a0a                	.insn	2, 0x0a0a
    2cf6:	00000407          	.insn	4, 0x0407
    2cfa:	0400                	.insn	2, 0x0400
    2cfc:	0a0c                	.insn	2, 0x0a0c
    2cfe:	0a0a                	.insn	2, 0x0a0a
    2d00:	0006                	.insn	2, 0x0006
    2d02:	0000                	.insn	2, 0x0000
    2d04:	0000                	.insn	2, 0x0000
    2d06:	0600                	.insn	2, 0x0600
    2d08:	0a0a0a0b          	.insn	4, 0x0a0a0a0b
    2d0c:	0000060b          	.insn	4, 0x060b
    2d10:	0000                	.insn	2, 0x0000
    2d12:	0000                	.insn	2, 0x0000
    2d14:	0a0a0a03          	lb	s4,160(s4)
    2d18:	030a                	.insn	2, 0x030a
    2d1a:	0000                	.insn	2, 0x0000
    2d1c:	0400                	.insn	2, 0x0400
    2d1e:	0a0a0a07          	.insn	4, 0x0a0a0a07
    2d22:	090a                	.insn	2, 0x090a
    2d24:	0900                	.insn	2, 0x0900
    2d26:	0a0a                	.insn	2, 0x0a0a
    2d28:	0a0a                	.insn	2, 0x0a0a
    2d2a:	0a0a                	.insn	2, 0x0a0a
    2d2c:	0a0a                	.insn	2, 0x0a0a
    2d2e:	0a0a                	.insn	2, 0x0a0a
    2d30:	0e0a                	.insn	2, 0x0e0a
	...
    2d3e:	0300                	.insn	2, 0x0300
    2d40:	0209                	.insn	2, 0x0209
    2d42:	0202                	.insn	2, 0x0202
    2d44:	0202                	.insn	2, 0x0202
    2d46:	0902                	.insn	2, 0x0902
    2d48:	00000403          	lb	s0,0(zero) # 0 <_isr_handler>
    2d4c:	0000                	.insn	2, 0x0000
    2d4e:	0000                	.insn	2, 0x0000
    2d50:	0e00                	.insn	2, 0x0e00
    2d52:	0a0a                	.insn	2, 0x0a0a
    2d54:	0a0a                	.insn	2, 0x0a0a
    2d56:	00000407          	.insn	4, 0x0407
    2d5a:	0000                	.insn	2, 0x0000
    2d5c:	0000                	.insn	2, 0x0000
    2d5e:	0a09                	.insn	2, 0x0a09
    2d60:	0a0a                	.insn	2, 0x0a0a
    2d62:	070a                	.insn	2, 0x070a
    2d64:	0000                	.insn	2, 0x0000
    2d66:	0000                	.insn	2, 0x0000
    2d68:	0400                	.insn	2, 0x0400
    2d6a:	0a0a0a07          	.insn	4, 0x0a0a0a07
    2d6e:	090a                	.insn	2, 0x090a
    2d70:	0000                	.insn	2, 0x0000
    2d72:	0c04                	.insn	2, 0x0c04
    2d74:	0a0a                	.insn	2, 0x0a0a
    2d76:	0a0a                	.insn	2, 0x0a0a
    2d78:	0a0a                	.insn	2, 0x0a0a
    2d7a:	0a0a                	.insn	2, 0x0a0a
    2d7c:	0a0a                	.insn	2, 0x0a0a
    2d7e:	040c                	.insn	2, 0x040c
    2d80:	0000                	.insn	2, 0x0000
    2d82:	0300                	.insn	2, 0x0300
    2d84:	02020207          	.insn	4, 0x02020207
    2d88:	0208                	.insn	2, 0x0208
    2d8a:	0202                	.insn	2, 0x0202
    2d8c:	0e0a                	.insn	2, 0x0e0a
    2d8e:	07000003          	lb	zero,112(zero) # 70 <_isr_routine+0x68>
    2d92:	0202                	.insn	2, 0x0202
    2d94:	0202                	.insn	2, 0x0202
    2d96:	0000060b          	.insn	4, 0x060b
    2d9a:	0400                	.insn	2, 0x0400
    2d9c:	0202020b          	.insn	4, 0x0202020b
    2da0:	0006                	.insn	2, 0x0006
    2da2:	0000                	.insn	2, 0x0000
    2da4:	0000                	.insn	2, 0x0000
    2da6:	0300                	.insn	2, 0x0300
    2da8:	0202                	.insn	2, 0x0202
    2daa:	0202                	.insn	2, 0x0202
    2dac:	0602                	.insn	2, 0x0602
    2dae:	0000                	.insn	2, 0x0000
    2db0:	0000                	.insn	2, 0x0000
    2db2:	0000                	.insn	2, 0x0000
    2db4:	02020203          	lb	tp,32(tp) # 20 <_isr_routine+0x18>
    2db8:	0302                	.insn	2, 0x0302
    2dba:	0000                	.insn	2, 0x0000
    2dbc:	0400                	.insn	2, 0x0400
    2dbe:	0221                	.insn	2, 0x0221
    2dc0:	0202                	.insn	2, 0x0202
    2dc2:	0e02                	.insn	2, 0x0e02
    2dc4:	0900                	.insn	2, 0x0900
    2dc6:	0202                	.insn	2, 0x0202
    2dc8:	0202                	.insn	2, 0x0202
    2dca:	0202                	.insn	2, 0x0202
    2dcc:	0202                	.insn	2, 0x0202
    2dce:	0202                	.insn	2, 0x0202
    2dd0:	0e02                	.insn	2, 0x0e02
	...
    2dde:	0906                	.insn	2, 0x0906
    2de0:	0202                	.insn	2, 0x0202
    2de2:	0802                	.insn	2, 0x0802
    2de4:	0208                	.insn	2, 0x0208
    2de6:	0202                	.insn	2, 0x0202
    2de8:	00000307          	.insn	4, 0x0307
    2dec:	0000                	.insn	2, 0x0000
    2dee:	0000                	.insn	2, 0x0000
    2df0:	0700                	.insn	2, 0x0700
    2df2:	0202                	.insn	2, 0x0202
    2df4:	0202                	.insn	2, 0x0202
    2df6:	0000040b          	.insn	4, 0x040b
    2dfa:	0000                	.insn	2, 0x0000
    2dfc:	0000                	.insn	2, 0x0000
    2dfe:	02020207          	.insn	4, 0x02020207
    2e02:	0c02                	.insn	2, 0x0c02
    2e04:	0004                	.insn	2, 0x0004
    2e06:	0000                	.insn	2, 0x0000
    2e08:	0400                	.insn	2, 0x0400
    2e0a:	0202020b          	.insn	4, 0x0202020b
    2e0e:	0902                	.insn	2, 0x0902
    2e10:	0000                	.insn	2, 0x0000
    2e12:	0b04                	.insn	2, 0x0b04
    2e14:	0202                	.insn	2, 0x0202
    2e16:	0202                	.insn	2, 0x0202
    2e18:	0202                	.insn	2, 0x0202
    2e1a:	0202                	.insn	2, 0x0202
    2e1c:	0202                	.insn	2, 0x0202
    2e1e:	0000040b          	.insn	4, 0x040b
    2e22:	0e04                	.insn	2, 0x0e04
    2e24:	020a                	.insn	2, 0x020a
    2e26:	0101                	.insn	2, 0x0101
    2e28:	0101                	.insn	2, 0x0101
    2e2a:	0201                	.insn	2, 0x0201
    2e2c:	0a02                	.insn	2, 0x0a02
    2e2e:	07000003          	lb	zero,112(zero) # 70 <_isr_routine+0x68>
    2e32:	0802                	.insn	2, 0x0802
    2e34:	0808                	.insn	2, 0x0808
    2e36:	060a                	.insn	2, 0x060a
    2e38:	0000                	.insn	2, 0x0000
    2e3a:	0400                	.insn	2, 0x0400
    2e3c:	0208080b          	.insn	4, 0x0208080b
    2e40:	0006                	.insn	2, 0x0006
    2e42:	0000                	.insn	2, 0x0000
    2e44:	0000                	.insn	2, 0x0000
    2e46:	0e00                	.insn	2, 0x0e00
    2e48:	0802                	.insn	2, 0x0802
    2e4a:	0808                	.insn	2, 0x0808
    2e4c:	0302                	.insn	2, 0x0302
    2e4e:	0000                	.insn	2, 0x0000
    2e50:	0000                	.insn	2, 0x0000
    2e52:	0000                	.insn	2, 0x0000
    2e54:	08080203          	lb	tp,128(a6)
    2e58:	0302                	.insn	2, 0x0302
    2e5a:	0000                	.insn	2, 0x0000
    2e5c:	0600                	.insn	2, 0x0600
    2e5e:	080a                	.insn	2, 0x080a
    2e60:	0808                	.insn	2, 0x0808
    2e62:	060a                	.insn	2, 0x060a
    2e64:	0900                	.insn	2, 0x0900
    2e66:	0802                	.insn	2, 0x0802
    2e68:	0808                	.insn	2, 0x0808
    2e6a:	0808                	.insn	2, 0x0808
    2e6c:	0808                	.insn	2, 0x0808
    2e6e:	0808                	.insn	2, 0x0808
    2e70:	0e02                	.insn	2, 0x0e02
	...
    2e7e:	01020a03          	lb	s4,16(tp) # 10 <_isr_routine+0x8>
    2e82:	0101                	.insn	2, 0x0101
    2e84:	0101                	.insn	2, 0x0101
    2e86:	0201                	.insn	2, 0x0201
    2e88:	0e02                	.insn	2, 0x0e02
    2e8a:	0006                	.insn	2, 0x0006
    2e8c:	0000                	.insn	2, 0x0000
    2e8e:	0000                	.insn	2, 0x0000
    2e90:	0700                	.insn	2, 0x0700
    2e92:	0802                	.insn	2, 0x0802
    2e94:	0808                	.insn	2, 0x0808
    2e96:	060a                	.insn	2, 0x060a
    2e98:	0000                	.insn	2, 0x0000
    2e9a:	0000                	.insn	2, 0x0000
    2e9c:	0000                	.insn	2, 0x0000
    2e9e:	08080207          	.insn	4, 0x08080207
    2ea2:	0b08                	.insn	2, 0x0b08
    2ea4:	0004                	.insn	2, 0x0004
    2ea6:	0000                	.insn	2, 0x0000
    2ea8:	0600                	.insn	2, 0x0600
    2eaa:	080a                	.insn	2, 0x080a
    2eac:	0808                	.insn	2, 0x0808
    2eae:	0902                	.insn	2, 0x0902
    2eb0:	0000                	.insn	2, 0x0000
    2eb2:	0b04                	.insn	2, 0x0b04
    2eb4:	0808                	.insn	2, 0x0808
    2eb6:	0808                	.insn	2, 0x0808
    2eb8:	0808                	.insn	2, 0x0808
    2eba:	0808                	.insn	2, 0x0808
    2ebc:	0808                	.insn	2, 0x0808
    2ebe:	0000040b          	.insn	4, 0x040b
    2ec2:	0c06                	.insn	2, 0x0c06
    2ec4:	0102                	.insn	2, 0x0102
    2ec6:	0101                	.insn	2, 0x0101
    2ec8:	0101                	.insn	2, 0x0101
    2eca:	0101                	.insn	2, 0x0101
    2ecc:	020d                	.insn	2, 0x020d
    2ece:	000e                	.insn	2, 0x000e
    2ed0:	0700                	.insn	2, 0x0700
    2ed2:	0101                	.insn	2, 0x0101
    2ed4:	0101                	.insn	2, 0x0101
    2ed6:	0e02                	.insn	2, 0x0e02
    2ed8:	0000                	.insn	2, 0x0000
    2eda:	0400                	.insn	2, 0x0400
    2edc:	0201010b          	.insn	4, 0x0201010b
    2ee0:	0006                	.insn	2, 0x0006
    2ee2:	0000                	.insn	2, 0x0000
    2ee4:	0000                	.insn	2, 0x0000
    2ee6:	0900                	.insn	2, 0x0900
    2ee8:	0108                	.insn	2, 0x0108
    2eea:	0101                	.insn	2, 0x0101
    2eec:	0e08                	.insn	2, 0x0e08
    2eee:	0000                	.insn	2, 0x0000
    2ef0:	0000                	.insn	2, 0x0000
    2ef2:	0000                	.insn	2, 0x0000
    2ef4:	01010203          	lb	tp,16(sp)
    2ef8:	0302                	.insn	2, 0x0302
    2efa:	0000                	.insn	2, 0x0000
    2efc:	0e00                	.insn	2, 0x0e00
    2efe:	0102                	.insn	2, 0x0102
    2f00:	0d01                	.insn	2, 0x0d01
    2f02:	040c                	.insn	2, 0x040c
    2f04:	0900                	.insn	2, 0x0900
    2f06:	0108                	.insn	2, 0x0108
    2f08:	0101                	.insn	2, 0x0101
    2f0a:	0101                	.insn	2, 0x0101
    2f0c:	0101                	.insn	2, 0x0101
    2f0e:	0101                	.insn	2, 0x0101
    2f10:	0e08                	.insn	2, 0x0e08
	...
    2f1a:	0000                	.insn	2, 0x0000
    2f1c:	0400                	.insn	2, 0x0400
    2f1e:	01010207          	.insn	4, 0x01010207
    2f22:	0101                	.insn	2, 0x0101
    2f24:	0101                	.insn	2, 0x0101
    2f26:	0101                	.insn	2, 0x0101
    2f28:	0a02                	.insn	2, 0x0a02
    2f2a:	0006                	.insn	2, 0x0006
    2f2c:	0000                	.insn	2, 0x0000
    2f2e:	0000                	.insn	2, 0x0000
    2f30:	0c04                	.insn	2, 0x0c04
    2f32:	0101                	.insn	2, 0x0101
    2f34:	0101                	.insn	2, 0x0101
    2f36:	060a                	.insn	2, 0x060a
    2f38:	0000                	.insn	2, 0x0000
    2f3a:	0000                	.insn	2, 0x0000
    2f3c:	0000                	.insn	2, 0x0000
    2f3e:	01010d07          	.insn	4, 0x01010d07
    2f42:	0a01                	.insn	2, 0x0a01
    2f44:	0006                	.insn	2, 0x0006
    2f46:	0000                	.insn	2, 0x0000
    2f48:	0600                	.insn	2, 0x0600
    2f4a:	0102                	.insn	2, 0x0102
    2f4c:	0101                	.insn	2, 0x0101
    2f4e:	0908                	.insn	2, 0x0908
    2f50:	0000                	.insn	2, 0x0000
    2f52:	0b04                	.insn	2, 0x0b04
    2f54:	0101                	.insn	2, 0x0101
    2f56:	0101                	.insn	2, 0x0101
    2f58:	0101                	.insn	2, 0x0101
    2f5a:	0101                	.insn	2, 0x0101
    2f5c:	0101                	.insn	2, 0x0101
    2f5e:	0000040b          	.insn	4, 0x040b
    2f62:	010d0a03          	lb	s4,16(s10)
    2f66:	0101                	.insn	2, 0x0101
    2f68:	0101                	.insn	2, 0x0101
    2f6a:	0101                	.insn	2, 0x0101
    2f6c:	0201                	.insn	2, 0x0201
    2f6e:	000e                	.insn	2, 0x000e
    2f70:	0700                	.insn	2, 0x0700
    2f72:	0101                	.insn	2, 0x0101
    2f74:	0101                	.insn	2, 0x0101
    2f76:	0908                	.insn	2, 0x0908
    2f78:	0000                	.insn	2, 0x0000
    2f7a:	0400                	.insn	2, 0x0400
    2f7c:	0201010b          	.insn	4, 0x0201010b
    2f80:	0006                	.insn	2, 0x0006
    2f82:	0000                	.insn	2, 0x0000
    2f84:	0000                	.insn	2, 0x0000
    2f86:	0700                	.insn	2, 0x0700
    2f88:	010d                	.insn	2, 0x010d
    2f8a:	0101                	.insn	2, 0x0101
    2f8c:	0908                	.insn	2, 0x0908
    2f8e:	0000                	.insn	2, 0x0000
    2f90:	0000                	.insn	2, 0x0000
    2f92:	0000                	.insn	2, 0x0000
    2f94:	01010203          	lb	tp,16(sp)
    2f98:	0302                	.insn	2, 0x0302
    2f9a:	0000                	.insn	2, 0x0000
    2f9c:	0700                	.insn	2, 0x0700
    2f9e:	0108                	.insn	2, 0x0108
    2fa0:	0201                	.insn	2, 0x0201
    2fa2:	0009                	.insn	2, 0x0009
    2fa4:	0900                	.insn	2, 0x0900
    2fa6:	0108                	.insn	2, 0x0108
    2fa8:	0101                	.insn	2, 0x0101
    2faa:	0101                	.insn	2, 0x0101
    2fac:	0101                	.insn	2, 0x0101
    2fae:	0101                	.insn	2, 0x0101
    2fb0:	0e08                	.insn	2, 0x0e08
	...
    2fba:	0000                	.insn	2, 0x0000
    2fbc:	0300                	.insn	2, 0x0300
    2fbe:	0101080b          	.insn	4, 0x0101080b
    2fc2:	0101                	.insn	2, 0x0101
    2fc4:	0101                	.insn	2, 0x0101
    2fc6:	0101                	.insn	2, 0x0101
    2fc8:	0201                	.insn	2, 0x0201
    2fca:	0006                	.insn	2, 0x0006
    2fcc:	0000                	.insn	2, 0x0000
    2fce:	0000                	.insn	2, 0x0000
    2fd0:	0b04                	.insn	2, 0x0b04
    2fd2:	0101                	.insn	2, 0x0101
    2fd4:	0101                	.insn	2, 0x0101
    2fd6:	0302                	.insn	2, 0x0302
    2fd8:	0000                	.insn	2, 0x0000
    2fda:	0000                	.insn	2, 0x0000
    2fdc:	0000                	.insn	2, 0x0000
    2fde:	01010d07          	.insn	4, 0x01010d07
    2fe2:	0201                	.insn	2, 0x0201
    2fe4:	00000003          	lb	zero,0(zero) # 0 <_isr_handler>
    2fe8:	0300                	.insn	2, 0x0300
    2fea:	0102                	.insn	2, 0x0102
    2fec:	0101                	.insn	2, 0x0101
    2fee:	0908                	.insn	2, 0x0908
    2ff0:	0000                	.insn	2, 0x0000
    2ff2:	0b04                	.insn	2, 0x0b04
    2ff4:	0101                	.insn	2, 0x0101
    2ff6:	0101                	.insn	2, 0x0101
    2ff8:	0101                	.insn	2, 0x0101
    2ffa:	0101                	.insn	2, 0x0101
    2ffc:	0101                	.insn	2, 0x0101
    2ffe:	0000040b          	.insn	4, 0x040b
    3002:	0209                	.insn	2, 0x0209
    3004:	0101                	.insn	2, 0x0101
    3006:	0101                	.insn	2, 0x0101
    3008:	0101                	.insn	2, 0x0101
    300a:	0101                	.insn	2, 0x0101
    300c:	0801                	.insn	2, 0x0801
    300e:	000e                	.insn	2, 0x000e
    3010:	0700                	.insn	2, 0x0700
    3012:	0101                	.insn	2, 0x0101
    3014:	0101                	.insn	2, 0x0101
    3016:	0c0d                	.insn	2, 0x0c0d
    3018:	0004                	.insn	2, 0x0004
    301a:	0400                	.insn	2, 0x0400
    301c:	0201010b          	.insn	4, 0x0201010b
    3020:	0006                	.insn	2, 0x0006
    3022:	0000                	.insn	2, 0x0000
    3024:	0000                	.insn	2, 0x0000
    3026:	0c00                	.insn	2, 0x0c00
    3028:	0101                	.insn	2, 0x0101
    302a:	0101                	.insn	2, 0x0101
    302c:	070d                	.insn	2, 0x070d
    302e:	0000                	.insn	2, 0x0000
    3030:	0000                	.insn	2, 0x0000
    3032:	0000                	.insn	2, 0x0000
    3034:	01010203          	lb	tp,16(sp)
    3038:	0302                	.insn	2, 0x0302
    303a:	0000                	.insn	2, 0x0000
    303c:	0c04                	.insn	2, 0x0c04
    303e:	0101                	.insn	2, 0x0101
    3040:	0201                	.insn	2, 0x0201
    3042:	000e                	.insn	2, 0x000e
    3044:	0900                	.insn	2, 0x0900
    3046:	0108                	.insn	2, 0x0108
    3048:	0101                	.insn	2, 0x0101
    304a:	0101                	.insn	2, 0x0101
    304c:	0101                	.insn	2, 0x0101
    304e:	0101                	.insn	2, 0x0101
    3050:	0e08                	.insn	2, 0x0e08
	...
    305a:	0000                	.insn	2, 0x0000
    305c:	0e00                	.insn	2, 0x0e00
    305e:	0102                	.insn	2, 0x0102
    3060:	0101                	.insn	2, 0x0101
    3062:	0101                	.insn	2, 0x0101
    3064:	0101                	.insn	2, 0x0101
    3066:	0101                	.insn	2, 0x0101
    3068:	0201                	.insn	2, 0x0201
    306a:	0006                	.insn	2, 0x0006
    306c:	0000                	.insn	2, 0x0000
    306e:	0000                	.insn	2, 0x0000
    3070:	0b06                	.insn	2, 0x0b06
    3072:	0101                	.insn	2, 0x0101
    3074:	0101                	.insn	2, 0x0101
    3076:	0e02                	.insn	2, 0x0e02
    3078:	0000                	.insn	2, 0x0000
    307a:	0000                	.insn	2, 0x0000
    307c:	0000                	.insn	2, 0x0000
    307e:	01010d07          	.insn	4, 0x01010d07
    3082:	0201                	.insn	2, 0x0201
    3084:	000e                	.insn	2, 0x000e
    3086:	0000                	.insn	2, 0x0000
    3088:	0900                	.insn	2, 0x0900
    308a:	0108                	.insn	2, 0x0108
    308c:	0101                	.insn	2, 0x0101
    308e:	0908                	.insn	2, 0x0908
    3090:	0000                	.insn	2, 0x0000
    3092:	0b04                	.insn	2, 0x0b04
    3094:	0101                	.insn	2, 0x0101
    3096:	0101                	.insn	2, 0x0101
    3098:	0101                	.insn	2, 0x0101
    309a:	0101                	.insn	2, 0x0101
    309c:	0101                	.insn	2, 0x0101
    309e:	0400040b          	.insn	4, 0x0400040b
    30a2:	0d0c                	.insn	2, 0x0d0c
    30a4:	0101                	.insn	2, 0x0101
    30a6:	0101                	.insn	2, 0x0101
    30a8:	0108                	.insn	2, 0x0108
    30aa:	0101                	.insn	2, 0x0101
    30ac:	0801                	.insn	2, 0x0801
    30ae:	000e                	.insn	2, 0x000e
    30b0:	0700                	.insn	2, 0x0700
    30b2:	0101                	.insn	2, 0x0101
    30b4:	0101                	.insn	2, 0x0101
    30b6:	0b01                	.insn	2, 0x0b01
    30b8:	0006                	.insn	2, 0x0006
    30ba:	0400                	.insn	2, 0x0400
    30bc:	0201010b          	.insn	4, 0x0201010b
    30c0:	0006                	.insn	2, 0x0006
    30c2:	0000                	.insn	2, 0x0000
    30c4:	0000                	.insn	2, 0x0000
    30c6:	0c04                	.insn	2, 0x0c04
    30c8:	0101                	.insn	2, 0x0101
    30ca:	0101                	.insn	2, 0x0101
    30cc:	0c01                	.insn	2, 0x0c01
    30ce:	0004                	.insn	2, 0x0004
    30d0:	0000                	.insn	2, 0x0000
    30d2:	0000                	.insn	2, 0x0000
    30d4:	01010203          	lb	tp,16(sp)
    30d8:	0302                	.insn	2, 0x0302
    30da:	0000                	.insn	2, 0x0000
    30dc:	0a06                	.insn	2, 0x0a06
    30de:	0101                	.insn	2, 0x0101
    30e0:	0a01                	.insn	2, 0x0a01
    30e2:	0006                	.insn	2, 0x0006
    30e4:	0900                	.insn	2, 0x0900
    30e6:	0108                	.insn	2, 0x0108
    30e8:	0101                	.insn	2, 0x0101
    30ea:	0101                	.insn	2, 0x0101
    30ec:	0101                	.insn	2, 0x0101
    30ee:	0101                	.insn	2, 0x0101
    30f0:	0e08                	.insn	2, 0x0e08
	...
    30fa:	0000                	.insn	2, 0x0000
    30fc:	0c04                	.insn	2, 0x0c04
    30fe:	0108                	.insn	2, 0x0108
    3100:	0101                	.insn	2, 0x0101
    3102:	0101                	.insn	2, 0x0101
    3104:	010d                	.insn	2, 0x010d
    3106:	0101                	.insn	2, 0x0101
    3108:	0201                	.insn	2, 0x0201
    310a:	0006                	.insn	2, 0x0006
    310c:	0000                	.insn	2, 0x0000
    310e:	0000                	.insn	2, 0x0000
    3110:	0a06                	.insn	2, 0x0a06
    3112:	0101                	.insn	2, 0x0101
    3114:	0101                	.insn	2, 0x0101
    3116:	0908                	.insn	2, 0x0908
    3118:	0000                	.insn	2, 0x0000
    311a:	0000                	.insn	2, 0x0000
    311c:	0000                	.insn	2, 0x0000
    311e:	01010d07          	.insn	4, 0x01010d07
    3122:	0801                	.insn	2, 0x0801
    3124:	0009                	.insn	2, 0x0009
    3126:	0000                	.insn	2, 0x0000
    3128:	0700                	.insn	2, 0x0700
    312a:	010d                	.insn	2, 0x010d
    312c:	0101                	.insn	2, 0x0101
    312e:	0908                	.insn	2, 0x0908
    3130:	0000                	.insn	2, 0x0000
    3132:	0b04                	.insn	2, 0x0b04
    3134:	0101                	.insn	2, 0x0101
    3136:	0101                	.insn	2, 0x0101
    3138:	0101                	.insn	2, 0x0101
    313a:	0101                	.insn	2, 0x0101
    313c:	0101                	.insn	2, 0x0101
    313e:	0600040b          	.insn	4, 0x0600040b
    3142:	010a                	.insn	2, 0x010a
    3144:	0101                	.insn	2, 0x0101
    3146:	0208                	.insn	2, 0x0208
    3148:	0202                	.insn	2, 0x0202
    314a:	0102                	.insn	2, 0x0102
    314c:	0801                	.insn	2, 0x0801
    314e:	000e                	.insn	2, 0x000e
    3150:	0700                	.insn	2, 0x0700
    3152:	0101                	.insn	2, 0x0101
    3154:	0101                	.insn	2, 0x0101
    3156:	0a01                	.insn	2, 0x0a01
    3158:	0006                	.insn	2, 0x0006
    315a:	0400                	.insn	2, 0x0400
    315c:	0201010b          	.insn	4, 0x0201010b
    3160:	0006                	.insn	2, 0x0006
    3162:	0000                	.insn	2, 0x0000
    3164:	0000                	.insn	2, 0x0000
    3166:	0b04                	.insn	2, 0x0b04
    3168:	0101                	.insn	2, 0x0101
    316a:	0101                	.insn	2, 0x0101
    316c:	2101                	.insn	2, 0x2101
    316e:	0004                	.insn	2, 0x0004
    3170:	0000                	.insn	2, 0x0000
    3172:	0000                	.insn	2, 0x0000
    3174:	01010203          	lb	tp,16(sp)
    3178:	0302                	.insn	2, 0x0302
    317a:	0000                	.insn	2, 0x0000
    317c:	020e                	.insn	2, 0x020e
    317e:	0101                	.insn	2, 0x0101
    3180:	0c0d                	.insn	2, 0x0c0d
    3182:	0004                	.insn	2, 0x0004
    3184:	0900                	.insn	2, 0x0900
    3186:	0108                	.insn	2, 0x0108
    3188:	0101                	.insn	2, 0x0101
    318a:	0101                	.insn	2, 0x0101
    318c:	0101                	.insn	2, 0x0101
    318e:	0101                	.insn	2, 0x0101
    3190:	0e08                	.insn	2, 0x0e08
	...
    319a:	0000                	.insn	2, 0x0000
    319c:	0a06                	.insn	2, 0x0a06
    319e:	0101                	.insn	2, 0x0101
    31a0:	0101                	.insn	2, 0x0101
    31a2:	0208                	.insn	2, 0x0208
    31a4:	0202                	.insn	2, 0x0202
    31a6:	010d                	.insn	2, 0x010d
    31a8:	0201                	.insn	2, 0x0201
    31aa:	0006                	.insn	2, 0x0006
    31ac:	0000                	.insn	2, 0x0000
    31ae:	0000                	.insn	2, 0x0000
    31b0:	01010203          	lb	tp,16(sp)
    31b4:	0101                	.insn	2, 0x0101
    31b6:	070d                	.insn	2, 0x070d
    31b8:	0000                	.insn	2, 0x0000
    31ba:	0000                	.insn	2, 0x0000
    31bc:	0000                	.insn	2, 0x0000
    31be:	01010d07          	.insn	4, 0x01010d07
    31c2:	0d01                	.insn	2, 0x0d01
    31c4:	00000007          	.insn	4, 0x0007
    31c8:	0c00                	.insn	2, 0x0c00
    31ca:	0101                	.insn	2, 0x0101
    31cc:	0101                	.insn	2, 0x0101
    31ce:	0908                	.insn	2, 0x0908
    31d0:	0000                	.insn	2, 0x0000
    31d2:	0b04                	.insn	2, 0x0b04
    31d4:	0101                	.insn	2, 0x0101
    31d6:	0101                	.insn	2, 0x0101
    31d8:	0101                	.insn	2, 0x0101
    31da:	0101                	.insn	2, 0x0101
    31dc:	0101                	.insn	2, 0x0101
    31de:	0300040b          	.insn	4, 0x0300040b
    31e2:	0102                	.insn	2, 0x0102
    31e4:	0101                	.insn	2, 0x0101
    31e6:	0202                	.insn	2, 0x0202
    31e8:	0a0a                	.insn	2, 0x0a0a
    31ea:	0202                	.insn	2, 0x0202
    31ec:	0801                	.insn	2, 0x0801
    31ee:	000e                	.insn	2, 0x000e
    31f0:	0700                	.insn	2, 0x0700
    31f2:	0101                	.insn	2, 0x0101
    31f4:	0101                	.insn	2, 0x0101
    31f6:	0201                	.insn	2, 0x0201
    31f8:	000e                	.insn	2, 0x000e
    31fa:	0400                	.insn	2, 0x0400
    31fc:	0201010b          	.insn	4, 0x0201010b
    3200:	0006                	.insn	2, 0x0006
    3202:	0000                	.insn	2, 0x0000
    3204:	0000                	.insn	2, 0x0000
    3206:	0a06                	.insn	2, 0x0a06
    3208:	0101                	.insn	2, 0x0101
    320a:	0101                	.insn	2, 0x0101
    320c:	0b01                	.insn	2, 0x0b01
    320e:	0004                	.insn	2, 0x0004
    3210:	0000                	.insn	2, 0x0000
    3212:	0000                	.insn	2, 0x0000
    3214:	01010203          	lb	tp,16(sp)
    3218:	0302                	.insn	2, 0x0302
    321a:	0000                	.insn	2, 0x0000
    321c:	01010807          	.insn	4, 0x01010807
    3220:	0902                	.insn	2, 0x0902
    3222:	0000                	.insn	2, 0x0000
    3224:	0900                	.insn	2, 0x0900
    3226:	0108                	.insn	2, 0x0108
    3228:	0201                	.insn	2, 0x0201
    322a:	0202                	.insn	2, 0x0202
    322c:	0202                	.insn	2, 0x0202
    322e:	0202                	.insn	2, 0x0202
    3230:	0e02                	.insn	2, 0x0e02
	...
    323a:	0000                	.insn	2, 0x0000
    323c:	020e                	.insn	2, 0x020e
    323e:	0101                	.insn	2, 0x0101
    3240:	0d01                	.insn	2, 0x0d01
    3242:	0202                	.insn	2, 0x0202
    3244:	020a                	.insn	2, 0x020a
    3246:	0102                	.insn	2, 0x0102
    3248:	0201                	.insn	2, 0x0201
    324a:	0006                	.insn	2, 0x0006
    324c:	0000                	.insn	2, 0x0000
    324e:	0000                	.insn	2, 0x0000
    3250:	020e                	.insn	2, 0x020e
    3252:	0101                	.insn	2, 0x0101
    3254:	0101                	.insn	2, 0x0101
    3256:	0c01                	.insn	2, 0x0c01
    3258:	0000                	.insn	2, 0x0000
    325a:	0000                	.insn	2, 0x0000
    325c:	0000                	.insn	2, 0x0000
    325e:	01010d07          	.insn	4, 0x01010d07
    3262:	0101                	.insn	2, 0x0101
    3264:	040c                	.insn	2, 0x040c
    3266:	0000                	.insn	2, 0x0000
    3268:	0c04                	.insn	2, 0x0c04
    326a:	0101                	.insn	2, 0x0101
    326c:	0101                	.insn	2, 0x0101
    326e:	0908                	.insn	2, 0x0908
    3270:	0000                	.insn	2, 0x0000
    3272:	0b04                	.insn	2, 0x0b04
    3274:	0101                	.insn	2, 0x0101
    3276:	020d                	.insn	2, 0x020d
    3278:	0202                	.insn	2, 0x0202
    327a:	0202                	.insn	2, 0x0202
    327c:	0202                	.insn	2, 0x0202
    327e:	0900040b          	.insn	4, 0x0900040b
    3282:	0108                	.insn	2, 0x0108
    3284:	0801                	.insn	2, 0x0801
    3286:	0e0a                	.insn	2, 0x0e0a
    3288:	020c0e03          	lb	t3,32(s8)
    328c:	080d                	.insn	2, 0x080d
    328e:	000e                	.insn	2, 0x000e
    3290:	0700                	.insn	2, 0x0700
    3292:	0101                	.insn	2, 0x0101
    3294:	0101                	.insn	2, 0x0101
    3296:	0801                	.insn	2, 0x0801
    3298:	0009                	.insn	2, 0x0009
    329a:	0400                	.insn	2, 0x0400
    329c:	0201010b          	.insn	4, 0x0201010b
    32a0:	0006                	.insn	2, 0x0006
    32a2:	0000                	.insn	2, 0x0000
    32a4:	0000                	.insn	2, 0x0000
    32a6:	0206                	.insn	2, 0x0206
    32a8:	0101                	.insn	2, 0x0101
    32aa:	0101                	.insn	2, 0x0101
    32ac:	0a01                	.insn	2, 0x0a01
    32ae:	0006                	.insn	2, 0x0006
    32b0:	0000                	.insn	2, 0x0000
    32b2:	0000                	.insn	2, 0x0000
    32b4:	01010203          	lb	tp,16(sp)
    32b8:	0302                	.insn	2, 0x0302
    32ba:	0400                	.insn	2, 0x0400
    32bc:	0d0c                	.insn	2, 0x0d0c
    32be:	0101                	.insn	2, 0x0101
    32c0:	0302                	.insn	2, 0x0302
    32c2:	0000                	.insn	2, 0x0000
    32c4:	0900                	.insn	2, 0x0900
    32c6:	0108                	.insn	2, 0x0108
    32c8:	0201                	.insn	2, 0x0201
    32ca:	0202                	.insn	2, 0x0202
    32cc:	0202                	.insn	2, 0x0202
    32ce:	0202                	.insn	2, 0x0202
    32d0:	0e02                	.insn	2, 0x0e02
	...
    32da:	0000                	.insn	2, 0x0000
    32dc:	0209                	.insn	2, 0x0209
    32de:	0101                	.insn	2, 0x0101
    32e0:	0201                	.insn	2, 0x0201
    32e2:	09030e0b          	.insn	4, 0x09030e0b
    32e6:	020a                	.insn	2, 0x020a
    32e8:	0201                	.insn	2, 0x0201
    32ea:	0006                	.insn	2, 0x0006
    32ec:	0000                	.insn	2, 0x0000
    32ee:	0000                	.insn	2, 0x0000
    32f0:	0809                	.insn	2, 0x0809
    32f2:	0101                	.insn	2, 0x0101
    32f4:	0101                	.insn	2, 0x0101
    32f6:	0c01                	.insn	2, 0x0c01
    32f8:	0004                	.insn	2, 0x0004
    32fa:	0000                	.insn	2, 0x0000
    32fc:	0000                	.insn	2, 0x0000
    32fe:	01010d07          	.insn	4, 0x01010d07
    3302:	0101                	.insn	2, 0x0101
    3304:	0000040b          	.insn	4, 0x040b
    3308:	0b06                	.insn	2, 0x0b06
    330a:	0101                	.insn	2, 0x0101
    330c:	0101                	.insn	2, 0x0101
    330e:	0908                	.insn	2, 0x0908
    3310:	0000                	.insn	2, 0x0000
    3312:	0b04                	.insn	2, 0x0b04
    3314:	0101                	.insn	2, 0x0101
    3316:	020d                	.insn	2, 0x020d
    3318:	0202                	.insn	2, 0x0202
    331a:	0202                	.insn	2, 0x0202
    331c:	0202                	.insn	2, 0x0202
    331e:	0700040b          	.insn	4, 0x0700040b
    3322:	010d                	.insn	2, 0x010d
    3324:	0201                	.insn	2, 0x0201
    3326:	0309                	.insn	2, 0x0309
    3328:	0c030303          	lb	t1,192(t1)
    332c:	0202                	.insn	2, 0x0202
    332e:	000e                	.insn	2, 0x000e
    3330:	0700                	.insn	2, 0x0700
    3332:	0101                	.insn	2, 0x0101
    3334:	0101                	.insn	2, 0x0101
    3336:	0d01                	.insn	2, 0x0d01
    3338:	040c                	.insn	2, 0x040c
    333a:	0400                	.insn	2, 0x0400
    333c:	0201010b          	.insn	4, 0x0201010b
    3340:	0006                	.insn	2, 0x0006
    3342:	0000                	.insn	2, 0x0000
    3344:	0000                	.insn	2, 0x0000
    3346:	01010203          	lb	tp,16(sp)
    334a:	0101                	.insn	2, 0x0101
    334c:	0201                	.insn	2, 0x0201
    334e:	0006                	.insn	2, 0x0006
    3350:	0000                	.insn	2, 0x0000
    3352:	0000                	.insn	2, 0x0000
    3354:	01010203          	lb	tp,16(sp)
    3358:	0302                	.insn	2, 0x0302
    335a:	0600                	.insn	2, 0x0600
    335c:	010a                	.insn	2, 0x010a
    335e:	0101                	.insn	2, 0x0101
    3360:	0000060b          	.insn	4, 0x060b
    3364:	0900                	.insn	2, 0x0900
    3366:	0108                	.insn	2, 0x0108
    3368:	0a01                	.insn	2, 0x0a01
    336a:	0e0e                	.insn	2, 0x0e0e
    336c:	0e0e                	.insn	2, 0x0e0e
    336e:	0e0e                	.insn	2, 0x0e0e
    3370:	030e                	.insn	2, 0x030e
	...
    337a:	0400                	.insn	2, 0x0400
    337c:	0d0c                	.insn	2, 0x0d0c
    337e:	0101                	.insn	2, 0x0101
    3380:	0a01                	.insn	2, 0x0a01
    3382:	030e                	.insn	2, 0x030e
    3384:	020e0303          	lb	t1,32(t3)
    3388:	020d                	.insn	2, 0x020d
    338a:	0006                	.insn	2, 0x0006
    338c:	0000                	.insn	2, 0x0000
    338e:	0000                	.insn	2, 0x0000
    3390:	01010807          	.insn	4, 0x01010807
    3394:	0101                	.insn	2, 0x0101
    3396:	0b01                	.insn	2, 0x0b01
    3398:	0004                	.insn	2, 0x0004
    339a:	0000                	.insn	2, 0x0000
    339c:	0000                	.insn	2, 0x0000
    339e:	01010d07          	.insn	4, 0x01010d07
    33a2:	0101                	.insn	2, 0x0101
    33a4:	060a                	.insn	2, 0x060a
    33a6:	0000                	.insn	2, 0x0000
    33a8:	0a06                	.insn	2, 0x0a06
    33aa:	0101                	.insn	2, 0x0101
    33ac:	0101                	.insn	2, 0x0101
    33ae:	0908                	.insn	2, 0x0908
    33b0:	0000                	.insn	2, 0x0000
    33b2:	0b04                	.insn	2, 0x0b04
    33b4:	0101                	.insn	2, 0x0101
    33b6:	070d                	.insn	2, 0x070d
    33b8:	0e0e                	.insn	2, 0x0e0e
    33ba:	0e0e                	.insn	2, 0x0e0e
    33bc:	0e0e                	.insn	2, 0x0e0e
    33be:	040e                	.insn	2, 0x040e
    33c0:	0c00                	.insn	2, 0x0c00
    33c2:	0101                	.insn	2, 0x0101
    33c4:	0a01                	.insn	2, 0x0a01
    33c6:	00000403          	lb	s0,0(zero) # 0 <_isr_handler>
    33ca:	020a0e03          	lb	t3,32(s4)
    33ce:	000e                	.insn	2, 0x000e
    33d0:	0700                	.insn	2, 0x0700
    33d2:	0101                	.insn	2, 0x0101
    33d4:	0101                	.insn	2, 0x0101
    33d6:	0101                	.insn	2, 0x0101
    33d8:	0400040b          	.insn	4, 0x0400040b
    33dc:	0201010b          	.insn	4, 0x0201010b
    33e0:	0006                	.insn	2, 0x0006
    33e2:	0000                	.insn	2, 0x0000
    33e4:	0000                	.insn	2, 0x0000
    33e6:	080e                	.insn	2, 0x080e
    33e8:	0101                	.insn	2, 0x0101
    33ea:	0101                	.insn	2, 0x0101
    33ec:	0201                	.insn	2, 0x0201
    33ee:	000e                	.insn	2, 0x000e
    33f0:	0000                	.insn	2, 0x0000
    33f2:	0000                	.insn	2, 0x0000
    33f4:	01010203          	lb	tp,16(sp)
    33f8:	0302                	.insn	2, 0x0302
    33fa:	0e00                	.insn	2, 0x0e00
    33fc:	0102                	.insn	2, 0x0102
    33fe:	0801                	.insn	2, 0x0801
    3400:	040c                	.insn	2, 0x040c
    3402:	0000                	.insn	2, 0x0000
    3404:	0900                	.insn	2, 0x0900
    3406:	0108                	.insn	2, 0x0108
    3408:	0a01                	.insn	2, 0x0a01
    340a:	03030303          	lb	t1,48(t1)
    340e:	03030303          	lb	t1,48(t1)
	...
    341a:	0400                	.insn	2, 0x0400
    341c:	0101010b          	.insn	4, 0x0101010b
    3420:	0702                	.insn	2, 0x0702
    3422:	04000403          	lb	s0,64(zero) # 40 <_isr_routine+0x38>
    3426:	02020703          	lb	a4,32(tp) # 20 <_isr_routine+0x18>
    342a:	0006                	.insn	2, 0x0006
    342c:	0000                	.insn	2, 0x0000
    342e:	0000                	.insn	2, 0x0000
    3430:	01010107          	.insn	4, 0x01010107
    3434:	0101                	.insn	2, 0x0101
    3436:	0a01                	.insn	2, 0x0a01
    3438:	0006                	.insn	2, 0x0006
    343a:	0000                	.insn	2, 0x0000
    343c:	0000                	.insn	2, 0x0000
    343e:	01010d07          	.insn	4, 0x01010d07
    3442:	0101                	.insn	2, 0x0101
    3444:	0602                	.insn	2, 0x0602
    3446:	0000                	.insn	2, 0x0000
    3448:	01010203          	lb	tp,16(sp)
    344c:	0101                	.insn	2, 0x0101
    344e:	0908                	.insn	2, 0x0908
    3450:	0000                	.insn	2, 0x0000
    3452:	0b04                	.insn	2, 0x0b04
    3454:	0101                	.insn	2, 0x0101
    3456:	070d                	.insn	2, 0x070d
    3458:	03030303          	lb	t1,48(t1)
    345c:	04030303          	lb	t1,64(t1)
    3460:	0c04                	.insn	2, 0x0c04
    3462:	0101                	.insn	2, 0x0101
    3464:	0c01                	.insn	2, 0x0c01
    3466:	0004                	.insn	2, 0x0004
    3468:	0000                	.insn	2, 0x0000
    346a:	0300                	.insn	2, 0x0300
    346c:	0209                	.insn	2, 0x0209
    346e:	000e                	.insn	2, 0x000e
    3470:	0700                	.insn	2, 0x0700
    3472:	0101                	.insn	2, 0x0101
    3474:	0101                	.insn	2, 0x0101
    3476:	0101                	.insn	2, 0x0101
    3478:	060a                	.insn	2, 0x060a
    347a:	0400                	.insn	2, 0x0400
    347c:	0201010b          	.insn	4, 0x0201010b
    3480:	0006                	.insn	2, 0x0006
    3482:	0000                	.insn	2, 0x0000
    3484:	0000                	.insn	2, 0x0000
    3486:	0809                	.insn	2, 0x0809
    3488:	0101                	.insn	2, 0x0101
    348a:	010d                	.insn	2, 0x010d
    348c:	0801                	.insn	2, 0x0801
    348e:	0009                	.insn	2, 0x0009
    3490:	0000                	.insn	2, 0x0000
    3492:	0000                	.insn	2, 0x0000
    3494:	01010203          	lb	tp,16(sp)
    3498:	0302                	.insn	2, 0x0302
    349a:	0900                	.insn	2, 0x0900
    349c:	0108                	.insn	2, 0x0108
    349e:	0201                	.insn	2, 0x0201
    34a0:	0009                	.insn	2, 0x0009
    34a2:	0000                	.insn	2, 0x0000
    34a4:	0900                	.insn	2, 0x0900
    34a6:	0108                	.insn	2, 0x0108
    34a8:	0a01                	.insn	2, 0x0a01
    34aa:	0406                	.insn	2, 0x0406
    34ac:	0404                	.insn	2, 0x0404
    34ae:	0404                	.insn	2, 0x0404
    34b0:	0404                	.insn	2, 0x0404
	...
    34ba:	0600                	.insn	2, 0x0600
    34bc:	010a                	.insn	2, 0x010a
    34be:	0101                	.insn	2, 0x0101
    34c0:	0e02                	.insn	2, 0x0e02
    34c2:	0004                	.insn	2, 0x0004
    34c4:	0000                	.insn	2, 0x0000
    34c6:	0e04                	.insn	2, 0x0e04
    34c8:	020a                	.insn	2, 0x020a
    34ca:	0006                	.insn	2, 0x0006
    34cc:	0000                	.insn	2, 0x0000
    34ce:	0400                	.insn	2, 0x0400
    34d0:	010c                	.insn	2, 0x010c
    34d2:	0101                	.insn	2, 0x0101
    34d4:	010d                	.insn	2, 0x010d
    34d6:	0201                	.insn	2, 0x0201
    34d8:	0006                	.insn	2, 0x0006
    34da:	0000                	.insn	2, 0x0000
    34dc:	0000                	.insn	2, 0x0000
    34de:	01010d07          	.insn	4, 0x01010d07
    34e2:	0101                	.insn	2, 0x0101
    34e4:	0e02                	.insn	2, 0x0e02
    34e6:	0000                	.insn	2, 0x0000
    34e8:	080e                	.insn	2, 0x080e
    34ea:	0101                	.insn	2, 0x0101
    34ec:	0101                	.insn	2, 0x0101
    34ee:	0908                	.insn	2, 0x0908
    34f0:	0000                	.insn	2, 0x0000
    34f2:	0b04                	.insn	2, 0x0b04
    34f4:	0101                	.insn	2, 0x0101
    34f6:	070d                	.insn	2, 0x070d
    34f8:	0404                	.insn	2, 0x0404
    34fa:	0404                	.insn	2, 0x0404
    34fc:	0404                	.insn	2, 0x0404
    34fe:	0004                	.insn	2, 0x0004
    3500:	0c04                	.insn	2, 0x0c04
    3502:	0101                	.insn	2, 0x0101
    3504:	0c01                	.insn	2, 0x0c01
    3506:	0000                	.insn	2, 0x0000
    3508:	0000                	.insn	2, 0x0000
    350a:	0000                	.insn	2, 0x0000
    350c:	000e0a03          	lb	s4,0(t3)
    3510:	0700                	.insn	2, 0x0700
    3512:	0101                	.insn	2, 0x0101
    3514:	0101                	.insn	2, 0x0101
    3516:	0101                	.insn	2, 0x0101
    3518:	0e02                	.insn	2, 0x0e02
    351a:	0400                	.insn	2, 0x0400
    351c:	0201010b          	.insn	4, 0x0201010b
    3520:	0006                	.insn	2, 0x0006
    3522:	0000                	.insn	2, 0x0000
    3524:	0000                	.insn	2, 0x0000
    3526:	0d010d07          	.insn	4, 0x0d010d07
    352a:	0102                	.insn	2, 0x0102
    352c:	0d01                	.insn	2, 0x0d01
    352e:	00000007          	.insn	4, 0x0007
    3532:	0000                	.insn	2, 0x0000
    3534:	01010203          	lb	tp,16(sp)
    3538:	0302                	.insn	2, 0x0302
    353a:	0c04                	.insn	2, 0x0c04
    353c:	010d                	.insn	2, 0x010d
    353e:	0201                	.insn	2, 0x0201
    3540:	00000003          	lb	zero,0(zero) # 0 <_isr_handler>
    3544:	0900                	.insn	2, 0x0900
    3546:	0108                	.insn	2, 0x0108
    3548:	0a01                	.insn	2, 0x0a01
    354a:	0004                	.insn	2, 0x0004
	...
    3558:	0000                	.insn	2, 0x0000
    355a:	0300                	.insn	2, 0x0300
    355c:	0102                	.insn	2, 0x0102
    355e:	0101                	.insn	2, 0x0101
    3560:	0000060b          	.insn	4, 0x060b
    3564:	0000                	.insn	2, 0x0000
    3566:	0600                	.insn	2, 0x0600
    3568:	00060207          	.insn	4, 0x00060207
    356c:	0000                	.insn	2, 0x0000
    356e:	0400                	.insn	2, 0x0400
    3570:	0201010b          	.insn	4, 0x0201010b
    3574:	0102                	.insn	2, 0x0102
    3576:	0201                	.insn	2, 0x0201
    3578:	00000003          	lb	zero,0(zero) # 0 <_isr_handler>
    357c:	0000                	.insn	2, 0x0000
    357e:	01010d07          	.insn	4, 0x01010d07
    3582:	0101                	.insn	2, 0x0101
    3584:	0908                	.insn	2, 0x0908
    3586:	0000                	.insn	2, 0x0000
    3588:	0809                	.insn	2, 0x0809
    358a:	0101                	.insn	2, 0x0101
    358c:	0101                	.insn	2, 0x0101
    358e:	0908                	.insn	2, 0x0908
    3590:	0000                	.insn	2, 0x0000
    3592:	0b04                	.insn	2, 0x0b04
    3594:	0101                	.insn	2, 0x0101
    3596:	070d                	.insn	2, 0x070d
	...
    35a0:	2104                	.insn	2, 0x2104
    35a2:	0101                	.insn	2, 0x0101
    35a4:	0c01                	.insn	2, 0x0c01
    35a6:	0004                	.insn	2, 0x0004
    35a8:	0000                	.insn	2, 0x0000
    35aa:	0000                	.insn	2, 0x0000
    35ac:	0906                	.insn	2, 0x0906
    35ae:	07000003          	lb	zero,112(zero) # 70 <_isr_routine+0x68>
    35b2:	0101                	.insn	2, 0x0101
    35b4:	0101                	.insn	2, 0x0101
    35b6:	0101                	.insn	2, 0x0101
    35b8:	0908                	.insn	2, 0x0908
    35ba:	0400                	.insn	2, 0x0400
    35bc:	0201010b          	.insn	4, 0x0201010b
    35c0:	0006                	.insn	2, 0x0006
    35c2:	0000                	.insn	2, 0x0000
    35c4:	0400                	.insn	2, 0x0400
    35c6:	010c                	.insn	2, 0x010c
    35c8:	0d01                	.insn	2, 0x0d01
    35ca:	0d01010b          	.insn	4, 0x0d01010b
    35ce:	00000007          	.insn	4, 0x0007
    35d2:	0000                	.insn	2, 0x0000
    35d4:	01010203          	lb	tp,16(sp)
    35d8:	0302                	.insn	2, 0x0302
    35da:	0a06                	.insn	2, 0x0a06
    35dc:	0101                	.insn	2, 0x0101
    35de:	0b01                	.insn	2, 0x0b01
    35e0:	0006                	.insn	2, 0x0006
    35e2:	0000                	.insn	2, 0x0000
    35e4:	0900                	.insn	2, 0x0900
    35e6:	0108                	.insn	2, 0x0108
    35e8:	0a01                	.insn	2, 0x0a01
    35ea:	0004                	.insn	2, 0x0004
	...
    35f8:	0000                	.insn	2, 0x0000
    35fa:	0900                	.insn	2, 0x0900
    35fc:	0108                	.insn	2, 0x0108
    35fe:	0d01                	.insn	2, 0x0d01
    3600:	00000407          	.insn	4, 0x0407
    3604:	0000                	.insn	2, 0x0000
    3606:	0000                	.insn	2, 0x0000
    3608:	020e                	.insn	2, 0x020e
    360a:	0006                	.insn	2, 0x0006
    360c:	0000                	.insn	2, 0x0000
    360e:	0600                	.insn	2, 0x0600
    3610:	010a                	.insn	2, 0x010a
    3612:	0201                	.insn	2, 0x0201
    3614:	0801010b          	.insn	4, 0x0801010b
    3618:	000e                	.insn	2, 0x000e
    361a:	0000                	.insn	2, 0x0000
    361c:	0000                	.insn	2, 0x0000
    361e:	01010d07          	.insn	4, 0x01010d07
    3622:	0101                	.insn	2, 0x0101
    3624:	070d                	.insn	2, 0x070d
    3626:	0000                	.insn	2, 0x0000
    3628:	01010d07          	.insn	4, 0x01010d07
    362c:	0101                	.insn	2, 0x0101
    362e:	0908                	.insn	2, 0x0908
    3630:	0000                	.insn	2, 0x0000
    3632:	0b04                	.insn	2, 0x0b04
    3634:	0101                	.insn	2, 0x0101
    3636:	070d                	.insn	2, 0x070d
	...
    3640:	0b04                	.insn	2, 0x0b04
    3642:	0101                	.insn	2, 0x0101
    3644:	0b01                	.insn	2, 0x0b01
    3646:	0006                	.insn	2, 0x0006
    3648:	0000                	.insn	2, 0x0000
    364a:	0000                	.insn	2, 0x0000
    364c:	0300                	.insn	2, 0x0300
    364e:	07000003          	lb	zero,112(zero) # 70 <_isr_routine+0x68>
    3652:	0101                	.insn	2, 0x0101
    3654:	0801                	.insn	2, 0x0801
    3656:	0101                	.insn	2, 0x0101
    3658:	070d                	.insn	2, 0x070d
    365a:	0404                	.insn	2, 0x0404
    365c:	0201010b          	.insn	4, 0x0201010b
    3660:	0006                	.insn	2, 0x0006
    3662:	0000                	.insn	2, 0x0000
    3664:	0400                	.insn	2, 0x0400
    3666:	0121                	.insn	2, 0x0121
    3668:	0801                	.insn	2, 0x0801
    366a:	0d0c                	.insn	2, 0x0d0c
    366c:	0101                	.insn	2, 0x0101
    366e:	040c                	.insn	2, 0x040c
    3670:	0000                	.insn	2, 0x0000
    3672:	0000                	.insn	2, 0x0000
    3674:	01010203          	lb	tp,16(sp)
    3678:	0302                	.insn	2, 0x0302
    367a:	020e                	.insn	2, 0x020e
    367c:	0101                	.insn	2, 0x0101
    367e:	0708                	.insn	2, 0x0708
    3680:	0004                	.insn	2, 0x0004
    3682:	0000                	.insn	2, 0x0000
    3684:	0900                	.insn	2, 0x0900
    3686:	0108                	.insn	2, 0x0108
    3688:	0a01                	.insn	2, 0x0a01
    368a:	0004                	.insn	2, 0x0004
	...
    3698:	0000                	.insn	2, 0x0000
    369a:	0700                	.insn	2, 0x0700
    369c:	010d                	.insn	2, 0x010d
    369e:	0801                	.insn	2, 0x0801
    36a0:	0009                	.insn	2, 0x0009
    36a2:	0000                	.insn	2, 0x0000
    36a4:	0000                	.insn	2, 0x0000
    36a6:	0000                	.insn	2, 0x0000
    36a8:	0c06                	.insn	2, 0x0c06
    36aa:	0006                	.insn	2, 0x0006
    36ac:	0000                	.insn	2, 0x0000
    36ae:	0600                	.insn	2, 0x0600
    36b0:	010a                	.insn	2, 0x010a
    36b2:	0a01                	.insn	2, 0x0a01
    36b4:	0121                	.insn	2, 0x0121
    36b6:	0801                	.insn	2, 0x0801
    36b8:	0009                	.insn	2, 0x0009
    36ba:	0000                	.insn	2, 0x0000
    36bc:	0000                	.insn	2, 0x0000
    36be:	01010d07          	.insn	4, 0x01010d07
    36c2:	0101                	.insn	2, 0x0101
    36c4:	0c01                	.insn	2, 0x0c01
    36c6:	0404                	.insn	2, 0x0404
    36c8:	010c                	.insn	2, 0x010c
    36ca:	0101                	.insn	2, 0x0101
    36cc:	0101                	.insn	2, 0x0101
    36ce:	0908                	.insn	2, 0x0908
    36d0:	0000                	.insn	2, 0x0000
    36d2:	0b04                	.insn	2, 0x0b04
    36d4:	0101                	.insn	2, 0x0101
    36d6:	070d                	.insn	2, 0x070d
	...
    36e0:	0c04                	.insn	2, 0x0c04
    36e2:	0101                	.insn	2, 0x0101
    36e4:	0a01                	.insn	2, 0x0a01
    36e6:	060e                	.insn	2, 0x060e
    36e8:	0000                	.insn	2, 0x0000
    36ea:	0000                	.insn	2, 0x0000
    36ec:	0600                	.insn	2, 0x0600
    36ee:	0006                	.insn	2, 0x0006
    36f0:	0700                	.insn	2, 0x0700
    36f2:	0101                	.insn	2, 0x0101
    36f4:	020d                	.insn	2, 0x020d
    36f6:	0101                	.insn	2, 0x0101
    36f8:	0b01                	.insn	2, 0x0b01
    36fa:	0404                	.insn	2, 0x0404
    36fc:	0201010b          	.insn	4, 0x0201010b
    3700:	0006                	.insn	2, 0x0006
    3702:	0000                	.insn	2, 0x0000
    3704:	0400                	.insn	2, 0x0400
    3706:	0201010b          	.insn	4, 0x0201010b
    370a:	01010807          	.insn	4, 0x01010807
    370e:	0000040b          	.insn	4, 0x040b
    3712:	0000                	.insn	2, 0x0000
    3714:	01010203          	lb	tp,16(sp)
    3718:	0302                	.insn	2, 0x0302
    371a:	0209                	.insn	2, 0x0209
    371c:	0101                	.insn	2, 0x0101
    371e:	0902                	.insn	2, 0x0902
    3720:	0000                	.insn	2, 0x0000
    3722:	0000                	.insn	2, 0x0000
    3724:	0900                	.insn	2, 0x0900
    3726:	0108                	.insn	2, 0x0108
    3728:	0a01                	.insn	2, 0x0a01
    372a:	0006                	.insn	2, 0x0006
	...
    3738:	0000                	.insn	2, 0x0000
    373a:	0700                	.insn	2, 0x0700
    373c:	010d                	.insn	2, 0x010d
    373e:	0201                	.insn	2, 0x0201
    3740:	00000003          	lb	zero,0(zero) # 0 <_isr_handler>
    3744:	0000                	.insn	2, 0x0000
    3746:	0000                	.insn	2, 0x0000
    3748:	0304                	.insn	2, 0x0304
    374a:	0006                	.insn	2, 0x0006
    374c:	0000                	.insn	2, 0x0000
    374e:	0300                	.insn	2, 0x0300
    3750:	0102                	.insn	2, 0x0102
    3752:	0a01                	.insn	2, 0x0a01
    3754:	010c                	.insn	2, 0x010c
    3756:	0d01                	.insn	2, 0x0d01
    3758:	00000007          	.insn	4, 0x0007
    375c:	0000                	.insn	2, 0x0000
    375e:	01010d07          	.insn	4, 0x01010d07
    3762:	0101                	.insn	2, 0x0101
    3764:	0b01                	.insn	2, 0x0b01
    3766:	0404                	.insn	2, 0x0404
    3768:	0101010b          	.insn	4, 0x0101010b
    376c:	0101                	.insn	2, 0x0101
    376e:	0908                	.insn	2, 0x0908
    3770:	0000                	.insn	2, 0x0000
    3772:	0b04                	.insn	2, 0x0b04
    3774:	0101                	.insn	2, 0x0101
    3776:	070d                	.insn	2, 0x070d
    3778:	0004                	.insn	2, 0x0004
    377a:	0000                	.insn	2, 0x0000
    377c:	0000                	.insn	2, 0x0000
    377e:	0000                	.insn	2, 0x0000
    3780:	0c04                	.insn	2, 0x0c04
    3782:	0101                	.insn	2, 0x0101
    3784:	0201                	.insn	2, 0x0201
    3786:	04030307          	.insn	4, 0x04030307
    378a:	0000                	.insn	2, 0x0000
    378c:	0000                	.insn	2, 0x0000
    378e:	0000                	.insn	2, 0x0000
    3790:	0700                	.insn	2, 0x0700
    3792:	0101                	.insn	2, 0x0101
    3794:	0b0d                	.insn	2, 0x0b0d
    3796:	010d                	.insn	2, 0x010d
    3798:	0a01                	.insn	2, 0x0a01
    379a:	0406                	.insn	2, 0x0406
    379c:	0201010b          	.insn	4, 0x0201010b
    37a0:	0006                	.insn	2, 0x0006
    37a2:	0000                	.insn	2, 0x0000
    37a4:	0600                	.insn	2, 0x0600
    37a6:	010a                	.insn	2, 0x010a
    37a8:	0201                	.insn	2, 0x0201
    37aa:	080e                	.insn	2, 0x080e
    37ac:	0101                	.insn	2, 0x0101
    37ae:	060a                	.insn	2, 0x060a
    37b0:	0000                	.insn	2, 0x0000
    37b2:	0000                	.insn	2, 0x0000
    37b4:	01010203          	lb	tp,16(sp)
    37b8:	0e02                	.insn	2, 0x0e02
    37ba:	0d0c                	.insn	2, 0x0d0c
    37bc:	0101                	.insn	2, 0x0101
    37be:	030a                	.insn	2, 0x030a
    37c0:	0000                	.insn	2, 0x0000
    37c2:	0000                	.insn	2, 0x0000
    37c4:	0900                	.insn	2, 0x0900
    37c6:	0108                	.insn	2, 0x0108
    37c8:	0a01                	.insn	2, 0x0a01
    37ca:	03030303          	lb	t1,48(t1)
    37ce:	04030303          	lb	t1,64(t1)
	...
    37da:	0c00                	.insn	2, 0x0c00
    37dc:	0101                	.insn	2, 0x0101
    37de:	0a01                	.insn	2, 0x0a01
    37e0:	0006                	.insn	2, 0x0006
    37e2:	0000                	.insn	2, 0x0000
    37e4:	0000                	.insn	2, 0x0000
    37e6:	0000                	.insn	2, 0x0000
    37e8:	0300                	.insn	2, 0x0300
    37ea:	0006                	.insn	2, 0x0006
    37ec:	0000                	.insn	2, 0x0000
    37ee:	0e00                	.insn	2, 0x0e00
    37f0:	0102                	.insn	2, 0x0102
    37f2:	0b01                	.insn	2, 0x0b01
    37f4:	01010d07          	.insn	4, 0x01010d07
    37f8:	000c                	.insn	2, 0x000c
    37fa:	0000                	.insn	2, 0x0000
    37fc:	0000                	.insn	2, 0x0000
    37fe:	01010d07          	.insn	4, 0x01010d07
    3802:	0d02                	.insn	2, 0x0d02
    3804:	0a01                	.insn	2, 0x0a01
    3806:	0606                	.insn	2, 0x0606
    3808:	010a                	.insn	2, 0x010a
    380a:	0202                	.insn	2, 0x0202
    380c:	0101                	.insn	2, 0x0101
    380e:	0908                	.insn	2, 0x0908
    3810:	0000                	.insn	2, 0x0000
    3812:	0b04                	.insn	2, 0x0b04
    3814:	0101                	.insn	2, 0x0101
    3816:	070d                	.insn	2, 0x070d
    3818:	03030303          	lb	t1,48(t1)
    381c:	00030303          	lb	t1,0(t1)
    3820:	0c00                	.insn	2, 0x0c00
    3822:	0101                	.insn	2, 0x0101
    3824:	0801                	.insn	2, 0x0801
    3826:	0702                	.insn	2, 0x0702
    3828:	00040303          	lb	t1,0(s0)
    382c:	0000                	.insn	2, 0x0000
    382e:	0000                	.insn	2, 0x0000
    3830:	0700                	.insn	2, 0x0700
    3832:	0101                	.insn	2, 0x0101
    3834:	0c0d                	.insn	2, 0x0c0d
    3836:	0108                	.insn	2, 0x0108
    3838:	0201                	.insn	2, 0x0201
    383a:	010b0403          	lb	s0,16(s6)
    383e:	0201                	.insn	2, 0x0201
    3840:	0006                	.insn	2, 0x0006
    3842:	0000                	.insn	2, 0x0000
    3844:	0600                	.insn	2, 0x0600
    3846:	0102                	.insn	2, 0x0102
    3848:	0a01                	.insn	2, 0x0a01
    384a:	020e                	.insn	2, 0x020e
    384c:	0101                	.insn	2, 0x0101
    384e:	060a                	.insn	2, 0x060a
    3850:	0000                	.insn	2, 0x0000
    3852:	0000                	.insn	2, 0x0000
    3854:	01010203          	lb	tp,16(sp)
    3858:	0e02                	.insn	2, 0x0e02
    385a:	0101010b          	.insn	4, 0x0101010b
    385e:	0621                	.insn	2, 0x0621
    3860:	0000                	.insn	2, 0x0000
    3862:	0000                	.insn	2, 0x0000
    3864:	0900                	.insn	2, 0x0900
    3866:	0108                	.insn	2, 0x0108
    3868:	0a01                	.insn	2, 0x0a01
    386a:	03030303          	lb	t1,48(t1)
    386e:	04030303          	lb	t1,64(t1)
	...
    387a:	0c04                	.insn	2, 0x0c04
    387c:	0101                	.insn	2, 0x0101
    387e:	0b01                	.insn	2, 0x0b01
    3880:	0006                	.insn	2, 0x0006
	...
    388e:	0900                	.insn	2, 0x0900
    3890:	0108                	.insn	2, 0x0108
    3892:	0c01                	.insn	2, 0x0c01
    3894:	01010d07          	.insn	4, 0x01010d07
    3898:	040c                	.insn	2, 0x040c
    389a:	0000                	.insn	2, 0x0000
    389c:	0000                	.insn	2, 0x0000
    389e:	01010d07          	.insn	4, 0x01010d07
    38a2:	080a                	.insn	2, 0x080a
    38a4:	0201                	.insn	2, 0x0201
    38a6:	0306                	.insn	2, 0x0306
    38a8:	0102                	.insn	2, 0x0102
    38aa:	0a02                	.insn	2, 0x0a02
    38ac:	0101                	.insn	2, 0x0101
    38ae:	0908                	.insn	2, 0x0908
    38b0:	0000                	.insn	2, 0x0000
    38b2:	0b04                	.insn	2, 0x0b04
    38b4:	0101                	.insn	2, 0x0101
    38b6:	070d                	.insn	2, 0x070d
    38b8:	03030303          	lb	t1,48(t1)
    38bc:	00030303          	lb	t1,0(t1)
    38c0:	0c00                	.insn	2, 0x0c00
    38c2:	0101                	.insn	2, 0x0101
    38c4:	0101                	.insn	2, 0x0101
    38c6:	0202                	.insn	2, 0x0202
    38c8:	04030e0b          	.insn	4, 0x04030e0b
    38cc:	0000                	.insn	2, 0x0000
    38ce:	0000                	.insn	2, 0x0000
    38d0:	0700                	.insn	2, 0x0700
    38d2:	0101                	.insn	2, 0x0101
    38d4:	070d                	.insn	2, 0x070d
    38d6:	0102                	.insn	2, 0x0102
    38d8:	0801                	.insn	2, 0x0801
    38da:	0609                	.insn	2, 0x0609
    38dc:	0201010b          	.insn	4, 0x0201010b
    38e0:	0006                	.insn	2, 0x0006
    38e2:	0000                	.insn	2, 0x0000
    38e4:	0300                	.insn	2, 0x0300
    38e6:	0102                	.insn	2, 0x0102
    38e8:	0b01                	.insn	2, 0x0b01
    38ea:	01010203          	lb	tp,16(sp)
    38ee:	0302                	.insn	2, 0x0302
    38f0:	0000                	.insn	2, 0x0000
    38f2:	0000                	.insn	2, 0x0000
    38f4:	01010203          	lb	tp,16(sp)
    38f8:	0e02                	.insn	2, 0x0e02
    38fa:	0102                	.insn	2, 0x0102
    38fc:	0801                	.insn	2, 0x0801
    38fe:	00000407          	.insn	4, 0x0407
    3902:	0000                	.insn	2, 0x0000
    3904:	0900                	.insn	2, 0x0900
    3906:	0108                	.insn	2, 0x0108
    3908:	0201                	.insn	2, 0x0201
    390a:	0202                	.insn	2, 0x0202
    390c:	0202                	.insn	2, 0x0202
    390e:	0202                	.insn	2, 0x0202
    3910:	0000040b          	.insn	4, 0x040b
    3914:	0000                	.insn	2, 0x0000
    3916:	0000                	.insn	2, 0x0000
    3918:	0000                	.insn	2, 0x0000
    391a:	0b04                	.insn	2, 0x0b04
    391c:	0101                	.insn	2, 0x0101
    391e:	0b01                	.insn	2, 0x0b01
    3920:	0004                	.insn	2, 0x0004
	...
    392e:	0700                	.insn	2, 0x0700
    3930:	010d                	.insn	2, 0x010d
    3932:	0c01                	.insn	2, 0x0c01
    3934:	0809                	.insn	2, 0x0809
    3936:	0101                	.insn	2, 0x0101
    3938:	0000040b          	.insn	4, 0x040b
    393c:	0000                	.insn	2, 0x0000
    393e:	01010d07          	.insn	4, 0x01010d07
    3942:	0201080b          	.insn	4, 0x0201080b
    3946:	01020e03          	lb	t3,16(tp) # 10 <_isr_routine+0x8>
    394a:	0a0a                	.insn	2, 0x0a0a
    394c:	0101                	.insn	2, 0x0101
    394e:	0908                	.insn	2, 0x0908
    3950:	0000                	.insn	2, 0x0000
    3952:	0b04                	.insn	2, 0x0b04
    3954:	0101                	.insn	2, 0x0101
    3956:	020d                	.insn	2, 0x020d
    3958:	0202                	.insn	2, 0x0202
    395a:	0202                	.insn	2, 0x0202
    395c:	0202                	.insn	2, 0x0202
    395e:	0009                	.insn	2, 0x0009
    3960:	0700                	.insn	2, 0x0700
    3962:	010d                	.insn	2, 0x010d
    3964:	0101                	.insn	2, 0x0101
    3966:	0201                	.insn	2, 0x0201
    3968:	0a02                	.insn	2, 0x0a02
    396a:	0309                	.insn	2, 0x0309
    396c:	0004                	.insn	2, 0x0004
    396e:	0000                	.insn	2, 0x0000
    3970:	0700                	.insn	2, 0x0700
    3972:	0101                	.insn	2, 0x0101
    3974:	070d                	.insn	2, 0x070d
    3976:	010a                	.insn	2, 0x010a
    3978:	0d01                	.insn	2, 0x0d01
    397a:	010b0607          	.insn	4, 0x010b0607
    397e:	0201                	.insn	2, 0x0201
    3980:	0006                	.insn	2, 0x0006
    3982:	0000                	.insn	2, 0x0000
    3984:	0900                	.insn	2, 0x0900
    3986:	0108                	.insn	2, 0x0108
    3988:	2101                	.insn	2, 0x2101
    398a:	01010a03          	lb	s4,16(sp)
    398e:	0e02                	.insn	2, 0x0e02
    3990:	0000                	.insn	2, 0x0000
    3992:	0000                	.insn	2, 0x0000
    3994:	01010203          	lb	tp,16(sp)
    3998:	0902                	.insn	2, 0x0902
    399a:	0102                	.insn	2, 0x0102
    399c:	0201                	.insn	2, 0x0201
    399e:	000e                	.insn	2, 0x000e
    39a0:	0000                	.insn	2, 0x0000
    39a2:	0000                	.insn	2, 0x0000
    39a4:	0900                	.insn	2, 0x0900
    39a6:	0108                	.insn	2, 0x0108
    39a8:	0201                	.insn	2, 0x0201
    39aa:	0202                	.insn	2, 0x0202
    39ac:	0202                	.insn	2, 0x0202
    39ae:	0202                	.insn	2, 0x0202
    39b0:	0000040b          	.insn	4, 0x040b
    39b4:	0000                	.insn	2, 0x0000
    39b6:	0000                	.insn	2, 0x0000
    39b8:	0000                	.insn	2, 0x0000
    39ba:	0b04                	.insn	2, 0x0b04
    39bc:	0101                	.insn	2, 0x0101
    39be:	0c01                	.insn	2, 0x0c01
    39c0:	0004                	.insn	2, 0x0004
	...
    39ce:	0c00                	.insn	2, 0x0c00
    39d0:	0101                	.insn	2, 0x0101
    39d2:	070d                	.insn	2, 0x070d
    39d4:	020e                	.insn	2, 0x020e
    39d6:	0101                	.insn	2, 0x0101
    39d8:	060a                	.insn	2, 0x060a
    39da:	0000                	.insn	2, 0x0000
    39dc:	0000                	.insn	2, 0x0000
    39de:	01010d07          	.insn	4, 0x01010d07
    39e2:	020c                	.insn	2, 0x020c
    39e4:	0801                	.insn	2, 0x0801
    39e6:	0909                	.insn	2, 0x0909
    39e8:	0108                	.insn	2, 0x0108
    39ea:	01010a0b          	.insn	4, 0x01010a0b
    39ee:	0908                	.insn	2, 0x0908
    39f0:	0000                	.insn	2, 0x0000
    39f2:	0b04                	.insn	2, 0x0b04
    39f4:	0101                	.insn	2, 0x0101
    39f6:	020d                	.insn	2, 0x020d
    39f8:	0202                	.insn	2, 0x0202
    39fa:	0202                	.insn	2, 0x0202
    39fc:	0202                	.insn	2, 0x0202
    39fe:	0009                	.insn	2, 0x0009
    3a00:	0900                	.insn	2, 0x0900
    3a02:	0108                	.insn	2, 0x0108
    3a04:	0101                	.insn	2, 0x0101
    3a06:	0101                	.insn	2, 0x0101
    3a08:	0202                	.insn	2, 0x0202
    3a0a:	0902                	.insn	2, 0x0902
    3a0c:	00000003          	lb	zero,0(zero) # 0 <_isr_handler>
    3a10:	0700                	.insn	2, 0x0700
    3a12:	0101                	.insn	2, 0x0101
    3a14:	070d                	.insn	2, 0x070d
    3a16:	0101010b          	.insn	4, 0x0101010b
    3a1a:	0321                	.insn	2, 0x0321
    3a1c:	0201010b          	.insn	4, 0x0201010b
    3a20:	0006                	.insn	2, 0x0006
    3a22:	0000                	.insn	2, 0x0000
    3a24:	0700                	.insn	2, 0x0700
    3a26:	0108                	.insn	2, 0x0108
    3a28:	0c01                	.insn	2, 0x0c01
    3a2a:	0b06                	.insn	2, 0x0b06
    3a2c:	0101                	.insn	2, 0x0101
    3a2e:	0908                	.insn	2, 0x0908
    3a30:	0000                	.insn	2, 0x0000
    3a32:	0000                	.insn	2, 0x0000
    3a34:	01010203          	lb	tp,16(sp)
    3a38:	0c02                	.insn	2, 0x0c02
    3a3a:	010d                	.insn	2, 0x010d
    3a3c:	0a01                	.insn	2, 0x0a01
    3a3e:	00000003          	lb	zero,0(zero) # 0 <_isr_handler>
    3a42:	0000                	.insn	2, 0x0000
    3a44:	0900                	.insn	2, 0x0900
    3a46:	0108                	.insn	2, 0x0108
    3a48:	0101                	.insn	2, 0x0101
    3a4a:	0101                	.insn	2, 0x0101
    3a4c:	0101                	.insn	2, 0x0101
    3a4e:	0101                	.insn	2, 0x0101
    3a50:	0000040b          	.insn	4, 0x040b
    3a54:	0000                	.insn	2, 0x0000
    3a56:	0000                	.insn	2, 0x0000
    3a58:	0000                	.insn	2, 0x0000
    3a5a:	0b04                	.insn	2, 0x0b04
    3a5c:	0101                	.insn	2, 0x0101
    3a5e:	0c01                	.insn	2, 0x0c01
    3a60:	0000                	.insn	2, 0x0000
    3a62:	03030303          	lb	t1,48(t1)
    3a66:	03030303          	lb	t1,48(t1)
    3a6a:	0006                	.insn	2, 0x0006
    3a6c:	0000                	.insn	2, 0x0000
    3a6e:	0c04                	.insn	2, 0x0c04
    3a70:	0101                	.insn	2, 0x0101
    3a72:	0908                	.insn	2, 0x0908
    3a74:	01010203          	lb	tp,16(sp)
    3a78:	0602                	.insn	2, 0x0602
    3a7a:	0000                	.insn	2, 0x0000
    3a7c:	0000                	.insn	2, 0x0000
    3a7e:	01010d07          	.insn	4, 0x01010d07
    3a82:	020c                	.insn	2, 0x020c
    3a84:	0d01                	.insn	2, 0x0d01
    3a86:	010d0707          	.insn	4, 0x010d0707
    3a8a:	0a21                	.insn	2, 0x0a21
    3a8c:	0101                	.insn	2, 0x0101
    3a8e:	0908                	.insn	2, 0x0908
    3a90:	0000                	.insn	2, 0x0000
    3a92:	0b04                	.insn	2, 0x0b04
    3a94:	0101                	.insn	2, 0x0101
    3a96:	0101                	.insn	2, 0x0101
    3a98:	0101                	.insn	2, 0x0101
    3a9a:	0101                	.insn	2, 0x0101
    3a9c:	0801                	.insn	2, 0x0801
    3a9e:	0009                	.insn	2, 0x0009
    3aa0:	0e00                	.insn	2, 0x0e00
    3aa2:	0102                	.insn	2, 0x0102
    3aa4:	0101                	.insn	2, 0x0101
    3aa6:	0101                	.insn	2, 0x0101
    3aa8:	0d01                	.insn	2, 0x0d01
    3aaa:	0a02                	.insn	2, 0x0a02
    3aac:	040e                	.insn	2, 0x040e
    3aae:	0000                	.insn	2, 0x0000
    3ab0:	0700                	.insn	2, 0x0700
    3ab2:	0101                	.insn	2, 0x0101
    3ab4:	070d                	.insn	2, 0x070d
    3ab6:	0d0c                	.insn	2, 0x0d0c
    3ab8:	0101                	.insn	2, 0x0101
    3aba:	030a                	.insn	2, 0x030a
    3abc:	0201010b          	.insn	4, 0x0201010b
    3ac0:	0006                	.insn	2, 0x0006
    3ac2:	0000                	.insn	2, 0x0000
    3ac4:	0700                	.insn	2, 0x0700
    3ac6:	010d                	.insn	2, 0x010d
    3ac8:	0701                	.insn	2, 0x0701
    3aca:	0c06                	.insn	2, 0x0c06
    3acc:	0101                	.insn	2, 0x0101
    3ace:	070d                	.insn	2, 0x070d
    3ad0:	0000                	.insn	2, 0x0000
    3ad2:	0000                	.insn	2, 0x0000
    3ad4:	01010203          	lb	tp,16(sp)
    3ad8:	0b02                	.insn	2, 0x0b02
    3ada:	0101                	.insn	2, 0x0101
    3adc:	0c0d                	.insn	2, 0x0c0d
    3ade:	0006                	.insn	2, 0x0006
    3ae0:	0000                	.insn	2, 0x0000
    3ae2:	0000                	.insn	2, 0x0000
    3ae4:	0900                	.insn	2, 0x0900
    3ae6:	0108                	.insn	2, 0x0108
    3ae8:	0101                	.insn	2, 0x0101
    3aea:	0101                	.insn	2, 0x0101
    3aec:	0101                	.insn	2, 0x0101
    3aee:	0101                	.insn	2, 0x0101
    3af0:	0000040b          	.insn	4, 0x040b
    3af4:	0000                	.insn	2, 0x0000
    3af6:	0000                	.insn	2, 0x0000
    3af8:	0000                	.insn	2, 0x0000
    3afa:	0b04                	.insn	2, 0x0b04
    3afc:	0101                	.insn	2, 0x0101
    3afe:	0701                	.insn	2, 0x0701
    3b00:	0000                	.insn	2, 0x0000
    3b02:	03030303          	lb	t1,48(t1)
    3b06:	03030303          	lb	t1,48(t1)
    3b0a:	00000003          	lb	zero,0(zero) # 0 <_isr_handler>
    3b0e:	0b04                	.insn	2, 0x0b04
    3b10:	0101                	.insn	2, 0x0101
    3b12:	0e08                	.insn	2, 0x0e08
    3b14:	0a06                	.insn	2, 0x0a06
    3b16:	0101                	.insn	2, 0x0101
    3b18:	0302                	.insn	2, 0x0302
    3b1a:	0000                	.insn	2, 0x0000
    3b1c:	0000                	.insn	2, 0x0000
    3b1e:	01010d07          	.insn	4, 0x01010d07
    3b22:	0a0c                	.insn	2, 0x0a0c
    3b24:	0101                	.insn	2, 0x0101
    3b26:	0c0c                	.insn	2, 0x0c0c
    3b28:	0101                	.insn	2, 0x0101
    3b2a:	0a0c                	.insn	2, 0x0a0c
    3b2c:	0101                	.insn	2, 0x0101
    3b2e:	0908                	.insn	2, 0x0908
    3b30:	0000                	.insn	2, 0x0000
    3b32:	0b04                	.insn	2, 0x0b04
    3b34:	0101                	.insn	2, 0x0101
    3b36:	0101                	.insn	2, 0x0101
    3b38:	0101                	.insn	2, 0x0101
    3b3a:	0101                	.insn	2, 0x0101
    3b3c:	0801                	.insn	2, 0x0801
    3b3e:	0009                	.insn	2, 0x0009
    3b40:	0600                	.insn	2, 0x0600
    3b42:	0102                	.insn	2, 0x0102
    3b44:	0101                	.insn	2, 0x0101
    3b46:	0101                	.insn	2, 0x0101
    3b48:	0101                	.insn	2, 0x0101
    3b4a:	0201                	.insn	2, 0x0201
    3b4c:	030c                	.insn	2, 0x030c
    3b4e:	0000                	.insn	2, 0x0000
    3b50:	0700                	.insn	2, 0x0700
    3b52:	0101                	.insn	2, 0x0101
    3b54:	070d                	.insn	2, 0x070d
    3b56:	0809                	.insn	2, 0x0809
    3b58:	0101                	.insn	2, 0x0101
    3b5a:	0e02                	.insn	2, 0x0e02
    3b5c:	0201010b          	.insn	4, 0x0201010b
    3b60:	0006                	.insn	2, 0x0006
    3b62:	0000                	.insn	2, 0x0000
    3b64:	0c04                	.insn	2, 0x0c04
    3b66:	0101                	.insn	2, 0x0101
    3b68:	070d                	.insn	2, 0x070d
    3b6a:	0c04                	.insn	2, 0x0c04
    3b6c:	0101                	.insn	2, 0x0101
    3b6e:	0c01                	.insn	2, 0x0c01
    3b70:	0000                	.insn	2, 0x0000
    3b72:	0000                	.insn	2, 0x0000
    3b74:	01010203          	lb	tp,16(sp)
    3b78:	0208                	.insn	2, 0x0208
    3b7a:	0101                	.insn	2, 0x0101
    3b7c:	0708                	.insn	2, 0x0708
    3b7e:	0000                	.insn	2, 0x0000
    3b80:	0000                	.insn	2, 0x0000
    3b82:	0000                	.insn	2, 0x0000
    3b84:	0900                	.insn	2, 0x0900
    3b86:	0108                	.insn	2, 0x0108
    3b88:	0101                	.insn	2, 0x0101
    3b8a:	0101                	.insn	2, 0x0101
    3b8c:	0101                	.insn	2, 0x0101
    3b8e:	0101                	.insn	2, 0x0101
    3b90:	0000040b          	.insn	4, 0x040b
    3b94:	0000                	.insn	2, 0x0000
    3b96:	0000                	.insn	2, 0x0000
    3b98:	0000                	.insn	2, 0x0000
    3b9a:	0a04                	.insn	2, 0x0a04
    3b9c:	0101                	.insn	2, 0x0101
    3b9e:	0701                	.insn	2, 0x0701
    3ba0:	0000                	.insn	2, 0x0000
    3ba2:	0b0e                	.insn	2, 0x0b0e
    3ba4:	0b0b0b0b          	.insn	4, 0x0b0b0b0b
    3ba8:	00030b0b          	.insn	4, 0x00030b0b
    3bac:	0000                	.insn	2, 0x0000
    3bae:	0a06                	.insn	2, 0x0a06
    3bb0:	0101                	.insn	2, 0x0101
    3bb2:	0302                	.insn	2, 0x0302
    3bb4:	0a06                	.insn	2, 0x0a06
    3bb6:	0101                	.insn	2, 0x0101
    3bb8:	0e08                	.insn	2, 0x0e08
    3bba:	0000                	.insn	2, 0x0000
    3bbc:	0000                	.insn	2, 0x0000
    3bbe:	01010d07          	.insn	4, 0x01010d07
    3bc2:	0b0c                	.insn	2, 0x0b0c
    3bc4:	0101                	.insn	2, 0x0101
    3bc6:	0b0c                	.insn	2, 0x0b0c
    3bc8:	0d01                	.insn	2, 0x0d01
    3bca:	01010a07          	.insn	4, 0x01010a07
    3bce:	0908                	.insn	2, 0x0908
    3bd0:	0000                	.insn	2, 0x0000
    3bd2:	0b04                	.insn	2, 0x0b04
    3bd4:	0101                	.insn	2, 0x0101
    3bd6:	0101                	.insn	2, 0x0101
    3bd8:	0101                	.insn	2, 0x0101
    3bda:	0101                	.insn	2, 0x0101
    3bdc:	0801                	.insn	2, 0x0801
    3bde:	0009                	.insn	2, 0x0009
    3be0:	0600                	.insn	2, 0x0600
    3be2:	0101010b          	.insn	4, 0x0101010b
    3be6:	0101                	.insn	2, 0x0101
    3be8:	0101                	.insn	2, 0x0101
    3bea:	0d01                	.insn	2, 0x0d01
    3bec:	0e02                	.insn	2, 0x0e02
    3bee:	0000                	.insn	2, 0x0000
    3bf0:	0700                	.insn	2, 0x0700
    3bf2:	0101                	.insn	2, 0x0101
    3bf4:	070d                	.insn	2, 0x070d
    3bf6:	020e                	.insn	2, 0x020e
    3bf8:	0101                	.insn	2, 0x0101
    3bfa:	0908                	.insn	2, 0x0908
    3bfc:	0201010b          	.insn	4, 0x0201010b
    3c00:	0006                	.insn	2, 0x0006
    3c02:	0000                	.insn	2, 0x0000
    3c04:	0b04                	.insn	2, 0x0b04
    3c06:	0101                	.insn	2, 0x0101
    3c08:	0908                	.insn	2, 0x0908
    3c0a:	0700                	.insn	2, 0x0700
    3c0c:	010d                	.insn	2, 0x010d
    3c0e:	0c01                	.insn	2, 0x0c01
    3c10:	0004                	.insn	2, 0x0004
    3c12:	0000                	.insn	2, 0x0000
    3c14:	01010203          	lb	tp,16(sp)
    3c18:	0d01                	.insn	2, 0x0d01
    3c1a:	0101                	.insn	2, 0x0101
    3c1c:	0708                	.insn	2, 0x0708
    3c1e:	0000                	.insn	2, 0x0000
    3c20:	0000                	.insn	2, 0x0000
    3c22:	0000                	.insn	2, 0x0000
    3c24:	0900                	.insn	2, 0x0900
    3c26:	0108                	.insn	2, 0x0108
    3c28:	0101                	.insn	2, 0x0101
    3c2a:	0101                	.insn	2, 0x0101
    3c2c:	0101                	.insn	2, 0x0101
    3c2e:	0101                	.insn	2, 0x0101
    3c30:	0000040b          	.insn	4, 0x040b
    3c34:	0000                	.insn	2, 0x0000
    3c36:	0000                	.insn	2, 0x0000
    3c38:	0000                	.insn	2, 0x0000
    3c3a:	0a06                	.insn	2, 0x0a06
    3c3c:	0101                	.insn	2, 0x0101
    3c3e:	0701                	.insn	2, 0x0701
    3c40:	0000                	.insn	2, 0x0000
    3c42:	0209                	.insn	2, 0x0209
    3c44:	0202                	.insn	2, 0x0202
    3c46:	0202                	.insn	2, 0x0202
    3c48:	0202                	.insn	2, 0x0202
    3c4a:	00000003          	lb	zero,0(zero) # 0 <_isr_handler>
    3c4e:	0206                	.insn	2, 0x0206
    3c50:	0101                	.insn	2, 0x0101
    3c52:	0602                	.insn	2, 0x0602
    3c54:	0b04                	.insn	2, 0x0b04
    3c56:	0101                	.insn	2, 0x0101
    3c58:	0908                	.insn	2, 0x0908
    3c5a:	0000                	.insn	2, 0x0000
    3c5c:	0000                	.insn	2, 0x0000
    3c5e:	01010d07          	.insn	4, 0x01010d07
    3c62:	0c0c                	.insn	2, 0x0c0c
    3c64:	0101                	.insn	2, 0x0101
    3c66:	08010a0b          	.insn	4, 0x08010a0b
    3c6a:	0a09                	.insn	2, 0x0a09
    3c6c:	0101                	.insn	2, 0x0101
    3c6e:	0908                	.insn	2, 0x0908
    3c70:	0000                	.insn	2, 0x0000
    3c72:	0b04                	.insn	2, 0x0b04
    3c74:	0101                	.insn	2, 0x0101
    3c76:	0101                	.insn	2, 0x0101
    3c78:	0101                	.insn	2, 0x0101
    3c7a:	0101                	.insn	2, 0x0101
    3c7c:	0801                	.insn	2, 0x0801
    3c7e:	0009                	.insn	2, 0x0009
    3c80:	0400                	.insn	2, 0x0400
    3c82:	020c                	.insn	2, 0x020c
    3c84:	0101                	.insn	2, 0x0101
    3c86:	0101                	.insn	2, 0x0101
    3c88:	0101                	.insn	2, 0x0101
    3c8a:	0101                	.insn	2, 0x0101
    3c8c:	0c02                	.insn	2, 0x0c02
    3c8e:	0004                	.insn	2, 0x0004
    3c90:	0700                	.insn	2, 0x0700
    3c92:	0101                	.insn	2, 0x0101
    3c94:	070d                	.insn	2, 0x070d
    3c96:	0206                	.insn	2, 0x0206
    3c98:	0101                	.insn	2, 0x0101
    3c9a:	070d                	.insn	2, 0x070d
    3c9c:	0201010b          	.insn	4, 0x0201010b
    3ca0:	0006                	.insn	2, 0x0006
    3ca2:	0000                	.insn	2, 0x0000
    3ca4:	0b06                	.insn	2, 0x0b06
    3ca6:	0101                	.insn	2, 0x0101
    3ca8:	0e02                	.insn	2, 0x0e02
    3caa:	0900                	.insn	2, 0x0900
    3cac:	0108                	.insn	2, 0x0108
    3cae:	0b01                	.insn	2, 0x0b01
    3cb0:	0004                	.insn	2, 0x0004
    3cb2:	0000                	.insn	2, 0x0000
    3cb4:	01010203          	lb	tp,16(sp)
    3cb8:	0101                	.insn	2, 0x0101
    3cba:	0101                	.insn	2, 0x0101
    3cbc:	0c01                	.insn	2, 0x0c01
    3cbe:	0004                	.insn	2, 0x0004
    3cc0:	0000                	.insn	2, 0x0000
    3cc2:	0000                	.insn	2, 0x0000
    3cc4:	0900                	.insn	2, 0x0900
    3cc6:	0108                	.insn	2, 0x0108
    3cc8:	0101                	.insn	2, 0x0101
    3cca:	0101                	.insn	2, 0x0101
    3ccc:	0101                	.insn	2, 0x0101
    3cce:	0101                	.insn	2, 0x0101
    3cd0:	0000040b          	.insn	4, 0x040b
    3cd4:	0000                	.insn	2, 0x0000
    3cd6:	0000                	.insn	2, 0x0000
    3cd8:	0000                	.insn	2, 0x0000
    3cda:	0a06                	.insn	2, 0x0a06
    3cdc:	0101                	.insn	2, 0x0101
    3cde:	070d                	.insn	2, 0x070d
    3ce0:	0000                	.insn	2, 0x0000
    3ce2:	0209                	.insn	2, 0x0209
    3ce4:	0808                	.insn	2, 0x0808
    3ce6:	0808                	.insn	2, 0x0808
    3ce8:	0208                	.insn	2, 0x0208
    3cea:	00000003          	lb	zero,0(zero) # 0 <_isr_handler>
    3cee:	01010203          	lb	tp,16(sp)
    3cf2:	060a                	.insn	2, 0x060a
    3cf4:	0c04                	.insn	2, 0x0c04
    3cf6:	0101                	.insn	2, 0x0101
    3cf8:	070d                	.insn	2, 0x070d
    3cfa:	0000                	.insn	2, 0x0000
    3cfc:	0000                	.insn	2, 0x0000
    3cfe:	01010d07          	.insn	4, 0x01010d07
    3d02:	070c                	.insn	2, 0x070c
    3d04:	010d                	.insn	2, 0x010d
    3d06:	020a                	.insn	2, 0x020a
    3d08:	0201                	.insn	2, 0x0201
    3d0a:	0a0e                	.insn	2, 0x0a0e
    3d0c:	0101                	.insn	2, 0x0101
    3d0e:	0908                	.insn	2, 0x0908
    3d10:	0000                	.insn	2, 0x0000
    3d12:	0b04                	.insn	2, 0x0b04
    3d14:	0101                	.insn	2, 0x0101
    3d16:	0101                	.insn	2, 0x0101
    3d18:	0101                	.insn	2, 0x0101
    3d1a:	0101                	.insn	2, 0x0101
    3d1c:	0801                	.insn	2, 0x0801
    3d1e:	0009                	.insn	2, 0x0009
    3d20:	0000                	.insn	2, 0x0000
    3d22:	020e                	.insn	2, 0x020e
    3d24:	0101                	.insn	2, 0x0101
    3d26:	0101                	.insn	2, 0x0101
    3d28:	0101                	.insn	2, 0x0101
    3d2a:	0101                	.insn	2, 0x0101
    3d2c:	0a01                	.insn	2, 0x0a01
    3d2e:	0006                	.insn	2, 0x0006
    3d30:	0700                	.insn	2, 0x0700
    3d32:	0101                	.insn	2, 0x0101
    3d34:	070d                	.insn	2, 0x070d
    3d36:	0b06                	.insn	2, 0x0b06
    3d38:	0101                	.insn	2, 0x0101
    3d3a:	0c01                	.insn	2, 0x0c01
    3d3c:	0201010b          	.insn	4, 0x0201010b
    3d40:	0006                	.insn	2, 0x0006
    3d42:	0000                	.insn	2, 0x0000
    3d44:	0a06                	.insn	2, 0x0a06
    3d46:	0101                	.insn	2, 0x0101
    3d48:	0302                	.insn	2, 0x0302
    3d4a:	0900                	.insn	2, 0x0900
    3d4c:	0108                	.insn	2, 0x0108
    3d4e:	0a01                	.insn	2, 0x0a01
    3d50:	0006                	.insn	2, 0x0006
    3d52:	0000                	.insn	2, 0x0000
    3d54:	01010203          	lb	tp,16(sp)
    3d58:	0101                	.insn	2, 0x0101
    3d5a:	0101                	.insn	2, 0x0101
    3d5c:	0a01                	.insn	2, 0x0a01
    3d5e:	0006                	.insn	2, 0x0006
    3d60:	0000                	.insn	2, 0x0000
    3d62:	0000                	.insn	2, 0x0000
    3d64:	0900                	.insn	2, 0x0900
    3d66:	0108                	.insn	2, 0x0108
    3d68:	0d01                	.insn	2, 0x0d01
    3d6a:	0d0d                	.insn	2, 0x0d0d
    3d6c:	0d0d                	.insn	2, 0x0d0d
    3d6e:	0d0d                	.insn	2, 0x0d0d
    3d70:	0000040b          	.insn	4, 0x040b
    3d74:	0000                	.insn	2, 0x0000
    3d76:	0000                	.insn	2, 0x0000
    3d78:	0000                	.insn	2, 0x0000
    3d7a:	0a06                	.insn	2, 0x0a06
    3d7c:	0101                	.insn	2, 0x0101
    3d7e:	0701                	.insn	2, 0x0701
    3d80:	0000                	.insn	2, 0x0000
    3d82:	0809                	.insn	2, 0x0809
    3d84:	0101                	.insn	2, 0x0101
    3d86:	0101                	.insn	2, 0x0101
    3d88:	0201                	.insn	2, 0x0201
    3d8a:	00000003          	lb	zero,0(zero) # 0 <_isr_handler>
    3d8e:	080e                	.insn	2, 0x080e
    3d90:	0101                	.insn	2, 0x0101
    3d92:	0c00040b          	.insn	4, 0x0c00040b
    3d96:	0101                	.insn	2, 0x0101
    3d98:	0c01                	.insn	2, 0x0c01
    3d9a:	0004                	.insn	2, 0x0004
    3d9c:	0000                	.insn	2, 0x0000
    3d9e:	01010d07          	.insn	4, 0x01010d07
    3da2:	090c                	.insn	2, 0x090c
    3da4:	0108                	.insn	2, 0x0108
    3da6:	0802                	.insn	2, 0x0802
    3da8:	0201                	.insn	2, 0x0201
    3daa:	0a0e                	.insn	2, 0x0a0e
    3dac:	0101                	.insn	2, 0x0101
    3dae:	0908                	.insn	2, 0x0908
    3db0:	0000                	.insn	2, 0x0000
    3db2:	0b04                	.insn	2, 0x0b04
    3db4:	0101                	.insn	2, 0x0101
    3db6:	0d01                	.insn	2, 0x0d01
    3db8:	0d0d                	.insn	2, 0x0d0d
    3dba:	0d0d                	.insn	2, 0x0d0d
    3dbc:	020d                	.insn	2, 0x020d
    3dbe:	0009                	.insn	2, 0x0009
    3dc0:	0000                	.insn	2, 0x0000
    3dc2:	01020b03          	lb	s6,16(tp) # 10 <_isr_routine+0x8>
    3dc6:	0101                	.insn	2, 0x0101
    3dc8:	0101                	.insn	2, 0x0101
    3dca:	0101                	.insn	2, 0x0101
    3dcc:	0201                	.insn	2, 0x0201
    3dce:	07000003          	lb	zero,112(zero) # 70 <_isr_routine+0x68>
    3dd2:	0101                	.insn	2, 0x0101
    3dd4:	070d                	.insn	2, 0x070d
    3dd6:	0c04                	.insn	2, 0x0c04
    3dd8:	0101                	.insn	2, 0x0101
    3dda:	0a01                	.insn	2, 0x0a01
    3ddc:	0201010b          	.insn	4, 0x0201010b
    3de0:	0006                	.insn	2, 0x0006
    3de2:	0000                	.insn	2, 0x0000
    3de4:	01010203          	lb	tp,16(sp)
    3de8:	060a                	.insn	2, 0x060a
    3dea:	0300                	.insn	2, 0x0300
    3dec:	0102                	.insn	2, 0x0102
    3dee:	0201                	.insn	2, 0x0201
    3df0:	0006                	.insn	2, 0x0006
    3df2:	0000                	.insn	2, 0x0000
    3df4:	01010203          	lb	tp,16(sp)
    3df8:	0101                	.insn	2, 0x0101
    3dfa:	0101                	.insn	2, 0x0101
    3dfc:	0201                	.insn	2, 0x0201
    3dfe:	000e                	.insn	2, 0x000e
    3e00:	0000                	.insn	2, 0x0000
    3e02:	0000                	.insn	2, 0x0000
    3e04:	0900                	.insn	2, 0x0900
    3e06:	0108                	.insn	2, 0x0108
    3e08:	0201                	.insn	2, 0x0201
    3e0a:	0202                	.insn	2, 0x0202
    3e0c:	0202                	.insn	2, 0x0202
    3e0e:	0202                	.insn	2, 0x0202
    3e10:	0000040b          	.insn	4, 0x040b
    3e14:	0000                	.insn	2, 0x0000
    3e16:	0000                	.insn	2, 0x0000
    3e18:	0000                	.insn	2, 0x0000
    3e1a:	0a06                	.insn	2, 0x0a06
    3e1c:	0101                	.insn	2, 0x0101
    3e1e:	0701                	.insn	2, 0x0701
    3e20:	0000                	.insn	2, 0x0000
    3e22:	0809                	.insn	2, 0x0809
    3e24:	0101                	.insn	2, 0x0101
    3e26:	0101                	.insn	2, 0x0101
    3e28:	0201                	.insn	2, 0x0201
    3e2a:	00000003          	lb	zero,0(zero) # 0 <_isr_handler>
    3e2e:	0809                	.insn	2, 0x0809
    3e30:	0101                	.insn	2, 0x0101
    3e32:	040c                	.insn	2, 0x040c
    3e34:	0700                	.insn	2, 0x0700
    3e36:	010d                	.insn	2, 0x010d
    3e38:	2101                	.insn	2, 0x2101
    3e3a:	0004                	.insn	2, 0x0004
    3e3c:	0000                	.insn	2, 0x0000
    3e3e:	01010d07          	.insn	4, 0x01010d07
    3e42:	0e0c                	.insn	2, 0x0e0c
    3e44:	0102                	.insn	2, 0x0102
    3e46:	0101                	.insn	2, 0x0101
    3e48:	0a01                	.insn	2, 0x0a01
    3e4a:	01010a03          	lb	s4,16(sp)
    3e4e:	0908                	.insn	2, 0x0908
    3e50:	0000                	.insn	2, 0x0000
    3e52:	0b04                	.insn	2, 0x0b04
    3e54:	0101                	.insn	2, 0x0101
    3e56:	020d                	.insn	2, 0x020d
    3e58:	0202                	.insn	2, 0x0202
    3e5a:	0202                	.insn	2, 0x0202
    3e5c:	0202                	.insn	2, 0x0202
    3e5e:	0009                	.insn	2, 0x0009
    3e60:	0000                	.insn	2, 0x0000
    3e62:	0904                	.insn	2, 0x0904
    3e64:	0202                	.insn	2, 0x0202
    3e66:	0101                	.insn	2, 0x0101
    3e68:	0101                	.insn	2, 0x0101
    3e6a:	0101                	.insn	2, 0x0101
    3e6c:	0801                	.insn	2, 0x0801
    3e6e:	0009                	.insn	2, 0x0009
    3e70:	0700                	.insn	2, 0x0700
    3e72:	0101                	.insn	2, 0x0101
    3e74:	070d                	.insn	2, 0x070d
    3e76:	0700                	.insn	2, 0x0700
    3e78:	0108                	.insn	2, 0x0108
    3e7a:	0201                	.insn	2, 0x0201
    3e7c:	010a                	.insn	2, 0x010a
    3e7e:	0201                	.insn	2, 0x0201
    3e80:	0006                	.insn	2, 0x0006
    3e82:	0000                	.insn	2, 0x0000
    3e84:	020e                	.insn	2, 0x020e
    3e86:	0101                	.insn	2, 0x0101
    3e88:	060a                	.insn	2, 0x060a
    3e8a:	0600                	.insn	2, 0x0600
    3e8c:	0102                	.insn	2, 0x0102
    3e8e:	0201                	.insn	2, 0x0201
    3e90:	00000003          	lb	zero,0(zero) # 0 <_isr_handler>
    3e94:	01010203          	lb	tp,16(sp)
    3e98:	0101                	.insn	2, 0x0101
    3e9a:	0101                	.insn	2, 0x0101
    3e9c:	0801                	.insn	2, 0x0801
    3e9e:	0009                	.insn	2, 0x0009
    3ea0:	0000                	.insn	2, 0x0000
    3ea2:	0000                	.insn	2, 0x0000
    3ea4:	0900                	.insn	2, 0x0900
    3ea6:	0108                	.insn	2, 0x0108
    3ea8:	0201                	.insn	2, 0x0201
    3eaa:	0202                	.insn	2, 0x0202
    3eac:	0202                	.insn	2, 0x0202
    3eae:	0202                	.insn	2, 0x0202
    3eb0:	040c                	.insn	2, 0x040c
	...
    3eba:	0a04                	.insn	2, 0x0a04
    3ebc:	0101                	.insn	2, 0x0101
    3ebe:	0701                	.insn	2, 0x0701
    3ec0:	0000                	.insn	2, 0x0000
    3ec2:	0809                	.insn	2, 0x0809
    3ec4:	0101                	.insn	2, 0x0101
    3ec6:	0101                	.insn	2, 0x0101
    3ec8:	0201                	.insn	2, 0x0201
    3eca:	00000003          	lb	zero,0(zero) # 0 <_isr_handler>
    3ece:	01010d07          	.insn	4, 0x01010d07
    3ed2:	000c                	.insn	2, 0x000c
    3ed4:	0900                	.insn	2, 0x0900
    3ed6:	0108                	.insn	2, 0x0108
    3ed8:	0b01                	.insn	2, 0x0b01
    3eda:	0004                	.insn	2, 0x0004
    3edc:	0000                	.insn	2, 0x0000
    3ede:	01010d07          	.insn	4, 0x01010d07
    3ee2:	030c                	.insn	2, 0x030c
    3ee4:	0102                	.insn	2, 0x0102
    3ee6:	0101                	.insn	2, 0x0101
    3ee8:	0b01                	.insn	2, 0x0b01
    3eea:	01010a03          	lb	s4,16(sp)
    3eee:	0908                	.insn	2, 0x0908
    3ef0:	0000                	.insn	2, 0x0000
    3ef2:	0b04                	.insn	2, 0x0b04
    3ef4:	0101                	.insn	2, 0x0101
    3ef6:	020d                	.insn	2, 0x020d
    3ef8:	0202                	.insn	2, 0x0202
    3efa:	0202                	.insn	2, 0x0202
    3efc:	0202                	.insn	2, 0x0202
    3efe:	0009                	.insn	2, 0x0009
    3f00:	0000                	.insn	2, 0x0000
    3f02:	0300                	.insn	2, 0x0300
    3f04:	01020207          	.insn	4, 0x01020207
    3f08:	0101                	.insn	2, 0x0101
    3f0a:	0101                	.insn	2, 0x0101
    3f0c:	0d01                	.insn	2, 0x0d01
    3f0e:	07000007          	.insn	4, 0x07000007
    3f12:	0101                	.insn	2, 0x0101
    3f14:	070d                	.insn	2, 0x070d
    3f16:	0e00                	.insn	2, 0x0e00
    3f18:	0102                	.insn	2, 0x0102
    3f1a:	0201                	.insn	2, 0x0201
    3f1c:	0102                	.insn	2, 0x0102
    3f1e:	0201                	.insn	2, 0x0201
    3f20:	0006                	.insn	2, 0x0006
    3f22:	0000                	.insn	2, 0x0000
    3f24:	0809                	.insn	2, 0x0809
    3f26:	0101                	.insn	2, 0x0101
    3f28:	0304060b          	.insn	4, 0x0304060b
    3f2c:	010a                	.insn	2, 0x010a
    3f2e:	0801                	.insn	2, 0x0801
    3f30:	000e                	.insn	2, 0x000e
    3f32:	0000                	.insn	2, 0x0000
    3f34:	01010203          	lb	tp,16(sp)
    3f38:	0101                	.insn	2, 0x0101
    3f3a:	0101                	.insn	2, 0x0101
    3f3c:	0d01                	.insn	2, 0x0d01
    3f3e:	040c                	.insn	2, 0x040c
    3f40:	0000                	.insn	2, 0x0000
    3f42:	0000                	.insn	2, 0x0000
    3f44:	0900                	.insn	2, 0x0900
    3f46:	0108                	.insn	2, 0x0108
    3f48:	0a01                	.insn	2, 0x0a01
    3f4a:	03030303          	lb	t1,48(t1)
    3f4e:	04030303          	lb	t1,64(t1)
	...
    3f5a:	0b04                	.insn	2, 0x0b04
    3f5c:	0101                	.insn	2, 0x0101
    3f5e:	0c01                	.insn	2, 0x0c01
    3f60:	0000                	.insn	2, 0x0000
    3f62:	0809                	.insn	2, 0x0809
    3f64:	0101                	.insn	2, 0x0101
    3f66:	0101                	.insn	2, 0x0101
    3f68:	0201                	.insn	2, 0x0201
    3f6a:	00000003          	lb	zero,0(zero) # 0 <_isr_handler>
    3f6e:	010c                	.insn	2, 0x010c
    3f70:	0d01                	.insn	2, 0x0d01
    3f72:	0e040607          	.insn	4, 0x0e040607
    3f76:	0108                	.insn	2, 0x0108
    3f78:	0a01                	.insn	2, 0x0a01
    3f7a:	0006                	.insn	2, 0x0006
    3f7c:	0000                	.insn	2, 0x0000
    3f7e:	01010d07          	.insn	4, 0x01010d07
    3f82:	030c                	.insn	2, 0x030c
    3f84:	010a                	.insn	2, 0x010a
    3f86:	0101                	.insn	2, 0x0101
    3f88:	0c01                	.insn	2, 0x0c01
    3f8a:	01010a03          	lb	s4,16(sp)
    3f8e:	0908                	.insn	2, 0x0908
    3f90:	0000                	.insn	2, 0x0000
    3f92:	0b04                	.insn	2, 0x0b04
    3f94:	0101                	.insn	2, 0x0101
    3f96:	070d                	.insn	2, 0x070d
    3f98:	03030303          	lb	t1,48(t1)
    3f9c:	00030303          	lb	t1,0(t1)
    3fa0:	0000                	.insn	2, 0x0000
    3fa2:	0400                	.insn	2, 0x0400
    3fa4:	02020c03          	lb	s8,32(tp) # 20 <_isr_routine+0x18>
    3fa8:	0108                	.insn	2, 0x0108
    3faa:	0101                	.insn	2, 0x0101
    3fac:	0101                	.insn	2, 0x0101
    3fae:	000c                	.insn	2, 0x000c
    3fb0:	0700                	.insn	2, 0x0700
    3fb2:	0101                	.insn	2, 0x0101
    3fb4:	070d                	.insn	2, 0x070d
    3fb6:	0300                	.insn	2, 0x0300
    3fb8:	0102                	.insn	2, 0x0102
    3fba:	0101                	.insn	2, 0x0101
    3fbc:	0101                	.insn	2, 0x0101
    3fbe:	0201                	.insn	2, 0x0201
    3fc0:	0006                	.insn	2, 0x0006
    3fc2:	0000                	.insn	2, 0x0000
    3fc4:	01010807          	.insn	4, 0x01010807
    3fc8:	030c                	.insn	2, 0x030c
    3fca:	010b0303          	lb	t1,16(s6)
    3fce:	0801                	.insn	2, 0x0801
    3fd0:	0009                	.insn	2, 0x0009
    3fd2:	0000                	.insn	2, 0x0000
    3fd4:	01010203          	lb	tp,16(sp)
    3fd8:	0201                	.insn	2, 0x0201
    3fda:	0102                	.insn	2, 0x0102
    3fdc:	0101                	.insn	2, 0x0101
    3fde:	0000060b          	.insn	4, 0x060b
    3fe2:	0000                	.insn	2, 0x0000
    3fe4:	0900                	.insn	2, 0x0900
    3fe6:	0108                	.insn	2, 0x0108
    3fe8:	0a01                	.insn	2, 0x0a01
    3fea:	03030303          	lb	t1,48(t1)
    3fee:	04030303          	lb	t1,64(t1)
	...
    3ffa:	0b04                	.insn	2, 0x0b04
    3ffc:	0101                	.insn	2, 0x0101
    3ffe:	0c01                	.insn	2, 0x0c01
    4000:	0000                	.insn	2, 0x0000
    4002:	0209                	.insn	2, 0x0209
    4004:	0101                	.insn	2, 0x0101
    4006:	0101                	.insn	2, 0x0101
    4008:	0201                	.insn	2, 0x0201
    400a:	04000003          	lb	zero,64(zero) # 40 <_isr_routine+0x38>
    400e:	0121                	.insn	2, 0x0121
    4010:	0801                	.insn	2, 0x0801
    4012:	0309                	.insn	2, 0x0309
    4014:	01020e03          	lb	t3,16(tp) # 10 <_isr_routine+0x8>
    4018:	0201                	.insn	2, 0x0201
    401a:	0006                	.insn	2, 0x0006
    401c:	0000                	.insn	2, 0x0000
    401e:	01010d07          	.insn	4, 0x01010d07
    4022:	060c                	.insn	2, 0x060c
    4024:	0101010b          	.insn	4, 0x0101010b
    4028:	070d                	.insn	2, 0x070d
    402a:	0a06                	.insn	2, 0x0a06
    402c:	0101                	.insn	2, 0x0101
    402e:	0908                	.insn	2, 0x0908
    4030:	0000                	.insn	2, 0x0000
    4032:	0b04                	.insn	2, 0x0b04
    4034:	0101                	.insn	2, 0x0101
    4036:	070d                	.insn	2, 0x070d
    4038:	03030303          	lb	t1,48(t1)
    403c:	00030303          	lb	t1,0(t1)
    4040:	0000                	.insn	2, 0x0000
    4042:	0000                	.insn	2, 0x0000
    4044:	0306                	.insn	2, 0x0306
    4046:	02020207          	.insn	4, 0x02020207
    404a:	0101                	.insn	2, 0x0101
    404c:	0101                	.insn	2, 0x0101
    404e:	040c                	.insn	2, 0x040c
    4050:	0700                	.insn	2, 0x0700
    4052:	0101                	.insn	2, 0x0101
    4054:	070d                	.insn	2, 0x070d
    4056:	0600                	.insn	2, 0x0600
    4058:	0101010b          	.insn	4, 0x0101010b
    405c:	0101                	.insn	2, 0x0101
    405e:	0201                	.insn	2, 0x0201
    4060:	0006                	.insn	2, 0x0006
    4062:	0000                	.insn	2, 0x0000
    4064:	01010107          	.insn	4, 0x01010107
    4068:	0921                	.insn	2, 0x0921
    406a:	0909                	.insn	2, 0x0909
    406c:	0d01010b          	.insn	4, 0x0d01010b
    4070:	00000007          	.insn	4, 0x0007
    4074:	01010203          	lb	tp,16(sp)
    4078:	0a01                	.insn	2, 0x0a01
    407a:	010a                	.insn	2, 0x010a
    407c:	0101                	.insn	2, 0x0101
    407e:	0302                	.insn	2, 0x0302
    4080:	0000                	.insn	2, 0x0000
    4082:	0000                	.insn	2, 0x0000
    4084:	0900                	.insn	2, 0x0900
    4086:	0108                	.insn	2, 0x0108
    4088:	0a01                	.insn	2, 0x0a01
    408a:	0006                	.insn	2, 0x0006
	...
    4098:	0000                	.insn	2, 0x0000
    409a:	0b04                	.insn	2, 0x0b04
    409c:	0101                	.insn	2, 0x0101
    409e:	0c01                	.insn	2, 0x0c01
    40a0:	0004                	.insn	2, 0x0004
    40a2:	0209                	.insn	2, 0x0209
    40a4:	0202                	.insn	2, 0x0202
    40a6:	0102                	.insn	2, 0x0102
    40a8:	0201                	.insn	2, 0x0201
    40aa:	04000003          	lb	zero,64(zero) # 40 <_isr_routine+0x38>
    40ae:	0801010b          	.insn	4, 0x0801010b
    40b2:	09090907          	.insn	4, 0x09090907
    40b6:	0102                	.insn	2, 0x0102
    40b8:	0201                	.insn	2, 0x0201
    40ba:	000e                	.insn	2, 0x000e
    40bc:	0000                	.insn	2, 0x0000
    40be:	01010d07          	.insn	4, 0x01010d07
    40c2:	060c                	.insn	2, 0x060c
    40c4:	010c                	.insn	2, 0x010c
    40c6:	0101                	.insn	2, 0x0101
    40c8:	0908                	.insn	2, 0x0908
    40ca:	0a06                	.insn	2, 0x0a06
    40cc:	0101                	.insn	2, 0x0101
    40ce:	0908                	.insn	2, 0x0908
    40d0:	0000                	.insn	2, 0x0000
    40d2:	0b04                	.insn	2, 0x0b04
    40d4:	0101                	.insn	2, 0x0101
    40d6:	070d                	.insn	2, 0x070d
	...
    40e4:	0300                	.insn	2, 0x0300
    40e6:	020b0e03          	lb	t3,32(s6)
    40ea:	0101                	.insn	2, 0x0101
    40ec:	0101                	.insn	2, 0x0101
    40ee:	0421                	.insn	2, 0x0421
    40f0:	0700                	.insn	2, 0x0700
    40f2:	0101                	.insn	2, 0x0101
    40f4:	070d                	.insn	2, 0x070d
    40f6:	0400                	.insn	2, 0x0400
    40f8:	010c                	.insn	2, 0x010c
    40fa:	0101                	.insn	2, 0x0101
    40fc:	0101                	.insn	2, 0x0101
    40fe:	0201                	.insn	2, 0x0201
    4100:	0006                	.insn	2, 0x0006
    4102:	0400                	.insn	2, 0x0400
    4104:	010c                	.insn	2, 0x010c
    4106:	0d01                	.insn	2, 0x0d01
    4108:	0202                	.insn	2, 0x0202
    410a:	0202                	.insn	2, 0x0202
    410c:	0102                	.insn	2, 0x0102
    410e:	0101                	.insn	2, 0x0101
    4110:	000c                	.insn	2, 0x000c
    4112:	0000                	.insn	2, 0x0000
    4114:	01010203          	lb	tp,16(sp)
    4118:	0c0d                	.insn	2, 0x0c0d
    411a:	0101010b          	.insn	4, 0x0101010b
    411e:	0902                	.insn	2, 0x0902
    4120:	0000                	.insn	2, 0x0000
    4122:	0000                	.insn	2, 0x0000
    4124:	0900                	.insn	2, 0x0900
    4126:	0108                	.insn	2, 0x0108
    4128:	0a01                	.insn	2, 0x0a01
    412a:	0004                	.insn	2, 0x0004
	...
    4138:	0000                	.insn	2, 0x0000
    413a:	0b04                	.insn	2, 0x0b04
    413c:	0101                	.insn	2, 0x0101
    413e:	0b01                	.insn	2, 0x0b01
    4140:	0004                	.insn	2, 0x0004
    4142:	0209                	.insn	2, 0x0209
    4144:	0202                	.insn	2, 0x0202
    4146:	0102                	.insn	2, 0x0102
    4148:	0201                	.insn	2, 0x0201
    414a:	06000003          	lb	zero,96(zero) # 60 <_isr_routine+0x58>
    414e:	010a                	.insn	2, 0x010a
    4150:	0201                	.insn	2, 0x0201
    4152:	0202                	.insn	2, 0x0202
    4154:	0202                	.insn	2, 0x0202
    4156:	0102                	.insn	2, 0x0102
    4158:	0801                	.insn	2, 0x0801
    415a:	0009                	.insn	2, 0x0009
    415c:	0000                	.insn	2, 0x0000
    415e:	01010d07          	.insn	4, 0x01010d07
    4162:	040c                	.insn	2, 0x040c
    4164:	010c                	.insn	2, 0x010c
    4166:	0101                	.insn	2, 0x0101
    4168:	0e08                	.insn	2, 0x0e08
    416a:	0a04                	.insn	2, 0x0a04
    416c:	0101                	.insn	2, 0x0101
    416e:	0908                	.insn	2, 0x0908
    4170:	0000                	.insn	2, 0x0000
    4172:	0b04                	.insn	2, 0x0b04
    4174:	0101                	.insn	2, 0x0101
    4176:	070d                	.insn	2, 0x070d
	...
    4184:	0000                	.insn	2, 0x0000
    4186:	0306                	.insn	2, 0x0306
    4188:	0b0e                	.insn	2, 0x0b0e
    418a:	0102                	.insn	2, 0x0102
    418c:	0101                	.insn	2, 0x0101
    418e:	0700040b          	.insn	4, 0x0700040b
    4192:	0101                	.insn	2, 0x0101
    4194:	070d                	.insn	2, 0x070d
    4196:	0000                	.insn	2, 0x0000
    4198:	01010d07          	.insn	4, 0x01010d07
    419c:	0101                	.insn	2, 0x0101
    419e:	0201                	.insn	2, 0x0201
    41a0:	0006                	.insn	2, 0x0006
    41a2:	0400                	.insn	2, 0x0400
    41a4:	0801010b          	.insn	4, 0x0801010b
    41a8:	0202                	.insn	2, 0x0202
    41aa:	0202                	.insn	2, 0x0202
    41ac:	0102                	.insn	2, 0x0102
    41ae:	0101                	.insn	2, 0x0101
    41b0:	040c                	.insn	2, 0x040c
    41b2:	0000                	.insn	2, 0x0000
    41b4:	01010203          	lb	tp,16(sp)
    41b8:	0708                	.insn	2, 0x0708
    41ba:	01010807          	.insn	4, 0x01010807
    41be:	0c0d                	.insn	2, 0x0c0d
    41c0:	0004                	.insn	2, 0x0004
    41c2:	0000                	.insn	2, 0x0000
    41c4:	0900                	.insn	2, 0x0900
    41c6:	0108                	.insn	2, 0x0108
    41c8:	0a01                	.insn	2, 0x0a01
    41ca:	0004                	.insn	2, 0x0004
	...
    41d8:	0000                	.insn	2, 0x0000
    41da:	0c04                	.insn	2, 0x0c04
    41dc:	0101                	.insn	2, 0x0101
    41de:	0a01                	.insn	2, 0x0a01
    41e0:	0006                	.insn	2, 0x0006
    41e2:	0e030303          	lb	t1,224(t1)
    41e6:	0102                	.insn	2, 0x0102
    41e8:	0201                	.insn	2, 0x0201
    41ea:	06000003          	lb	zero,96(zero) # 60 <_isr_routine+0x58>
    41ee:	0102                	.insn	2, 0x0102
    41f0:	0201                	.insn	2, 0x0201
    41f2:	0202                	.insn	2, 0x0202
    41f4:	0202                	.insn	2, 0x0202
    41f6:	0102                	.insn	2, 0x0102
    41f8:	0d01                	.insn	2, 0x0d01
    41fa:	00000007          	.insn	4, 0x0007
    41fe:	01010d07          	.insn	4, 0x01010d07
    4202:	040c                	.insn	2, 0x040c
    4204:	01010d07          	.insn	4, 0x01010d07
    4208:	0302                	.insn	2, 0x0302
    420a:	0a04                	.insn	2, 0x0a04
    420c:	0101                	.insn	2, 0x0101
    420e:	0908                	.insn	2, 0x0908
    4210:	0000                	.insn	2, 0x0000
    4212:	0b04                	.insn	2, 0x0b04
    4214:	0101                	.insn	2, 0x0101
    4216:	070d                	.insn	2, 0x070d
	...
    4220:	0304                	.insn	2, 0x0304
    4222:	0000                	.insn	2, 0x0000
    4224:	0000                	.insn	2, 0x0000
    4226:	0400                	.insn	2, 0x0400
    4228:	01020e03          	lb	t3,16(tp) # 10 <_isr_routine+0x8>
    422c:	0101                	.insn	2, 0x0101
    422e:	0700040b          	.insn	4, 0x0700040b
    4232:	0101                	.insn	2, 0x0101
    4234:	070d                	.insn	2, 0x070d
    4236:	0000                	.insn	2, 0x0000
    4238:	0209                	.insn	2, 0x0209
    423a:	0101                	.insn	2, 0x0101
    423c:	0101                	.insn	2, 0x0101
    423e:	0201                	.insn	2, 0x0201
    4240:	0006                	.insn	2, 0x0006
    4242:	0600                	.insn	2, 0x0600
    4244:	010a                	.insn	2, 0x010a
    4246:	0101                	.insn	2, 0x0101
    4248:	0101                	.insn	2, 0x0101
    424a:	0101                	.insn	2, 0x0101
    424c:	0101                	.insn	2, 0x0101
    424e:	0101                	.insn	2, 0x0101
    4250:	0000040b          	.insn	4, 0x040b
    4254:	01010203          	lb	tp,16(sp)
    4258:	0e02                	.insn	2, 0x0e02
    425a:	0209                	.insn	2, 0x0209
    425c:	0101                	.insn	2, 0x0101
    425e:	0b01                	.insn	2, 0x0b01
    4260:	0006                	.insn	2, 0x0006
    4262:	0000                	.insn	2, 0x0000
    4264:	0900                	.insn	2, 0x0900
    4266:	0108                	.insn	2, 0x0108
    4268:	0a01                	.insn	2, 0x0a01
    426a:	0004                	.insn	2, 0x0004
	...
    4278:	0000                	.insn	2, 0x0000
    427a:	0c00                	.insn	2, 0x0c00
    427c:	0101                	.insn	2, 0x0101
    427e:	0201                	.insn	2, 0x0201
    4280:	0006                	.insn	2, 0x0006
    4282:	0e030303          	lb	t1,224(t1)
    4286:	0102                	.insn	2, 0x0102
    4288:	0201                	.insn	2, 0x0201
    428a:	03000003          	lb	zero,48(zero) # 30 <_isr_routine+0x28>
    428e:	0102                	.insn	2, 0x0102
    4290:	0101                	.insn	2, 0x0101
    4292:	0101                	.insn	2, 0x0101
    4294:	0101                	.insn	2, 0x0101
    4296:	0101                	.insn	2, 0x0101
    4298:	0d01                	.insn	2, 0x0d01
    429a:	00000007          	.insn	4, 0x0007
    429e:	01010d07          	.insn	4, 0x01010d07
    42a2:	000c                	.insn	2, 0x000c
    42a4:	0809                	.insn	2, 0x0809
    42a6:	0101                	.insn	2, 0x0101
    42a8:	060a                	.insn	2, 0x060a
    42aa:	0a04                	.insn	2, 0x0a04
    42ac:	0101                	.insn	2, 0x0101
    42ae:	0908                	.insn	2, 0x0908
    42b0:	0000                	.insn	2, 0x0000
    42b2:	0b04                	.insn	2, 0x0b04
    42b4:	0101                	.insn	2, 0x0101
    42b6:	070d                	.insn	2, 0x070d
	...
    42c0:	0304                	.insn	2, 0x0304
    42c2:	0006                	.insn	2, 0x0006
    42c4:	0000                	.insn	2, 0x0000
    42c6:	0000                	.insn	2, 0x0000
    42c8:	0300                	.insn	2, 0x0300
    42ca:	0101010b          	.insn	4, 0x0101010b
    42ce:	0700040b          	.insn	4, 0x0700040b
    42d2:	0101                	.insn	2, 0x0101
    42d4:	070d                	.insn	2, 0x070d
    42d6:	0000                	.insn	2, 0x0000
    42d8:	01010203          	lb	tp,16(sp)
    42dc:	0101                	.insn	2, 0x0101
    42de:	0201                	.insn	2, 0x0201
    42e0:	0006                	.insn	2, 0x0006
    42e2:	0600                	.insn	2, 0x0600
    42e4:	010a                	.insn	2, 0x010a
    42e6:	0101                	.insn	2, 0x0101
    42e8:	0101                	.insn	2, 0x0101
    42ea:	0101                	.insn	2, 0x0101
    42ec:	0101                	.insn	2, 0x0101
    42ee:	0101                	.insn	2, 0x0101
    42f0:	060a                	.insn	2, 0x060a
    42f2:	0000                	.insn	2, 0x0000
    42f4:	01010203          	lb	tp,16(sp)
    42f8:	0302                	.insn	2, 0x0302
    42fa:	01010203          	lb	tp,16(sp)
    42fe:	0201                	.insn	2, 0x0201
    4300:	00000003          	lb	zero,0(zero) # 0 <_isr_handler>
    4304:	0900                	.insn	2, 0x0900
    4306:	0108                	.insn	2, 0x0108
    4308:	0a01                	.insn	2, 0x0a01
    430a:	0004                	.insn	2, 0x0004
	...
    4318:	0000                	.insn	2, 0x0000
    431a:	0700                	.insn	2, 0x0700
    431c:	010d                	.insn	2, 0x010d
    431e:	0201                	.insn	2, 0x0201
    4320:	000e                	.insn	2, 0x000e
    4322:	0000                	.insn	2, 0x0000
    4324:	0300                	.insn	2, 0x0300
    4326:	0102                	.insn	2, 0x0102
    4328:	0201                	.insn	2, 0x0201
    432a:	09000003          	lb	zero,144(zero) # 90 <_isr_routine+0x88>
    432e:	0108                	.insn	2, 0x0108
    4330:	0101                	.insn	2, 0x0101
    4332:	0101                	.insn	2, 0x0101
    4334:	0101                	.insn	2, 0x0101
    4336:	0101                	.insn	2, 0x0101
    4338:	0101                	.insn	2, 0x0101
    433a:	040c                	.insn	2, 0x040c
    433c:	0000                	.insn	2, 0x0000
    433e:	01010d07          	.insn	4, 0x01010d07
    4342:	000c                	.insn	2, 0x000c
    4344:	01010203          	lb	tp,16(sp)
    4348:	060a                	.insn	2, 0x060a
    434a:	0a04                	.insn	2, 0x0a04
    434c:	0101                	.insn	2, 0x0101
    434e:	0908                	.insn	2, 0x0908
    4350:	0000                	.insn	2, 0x0000
    4352:	0b04                	.insn	2, 0x0b04
    4354:	0101                	.insn	2, 0x0101
    4356:	070d                	.insn	2, 0x070d
	...
    4360:	0c04                	.insn	2, 0x0c04
    4362:	00000003          	lb	zero,0(zero) # 0 <_isr_handler>
    4366:	0000                	.insn	2, 0x0000
    4368:	0400                	.insn	2, 0x0400
    436a:	010c                	.insn	2, 0x010c
    436c:	0101                	.insn	2, 0x0101
    436e:	0700040b          	.insn	4, 0x0700040b
    4372:	0101                	.insn	2, 0x0101
    4374:	070d                	.insn	2, 0x070d
    4376:	0000                	.insn	2, 0x0000
    4378:	0a06                	.insn	2, 0x0a06
    437a:	0101                	.insn	2, 0x0101
    437c:	0101                	.insn	2, 0x0101
    437e:	0201                	.insn	2, 0x0201
    4380:	0006                	.insn	2, 0x0006
    4382:	0300                	.insn	2, 0x0300
    4384:	0102                	.insn	2, 0x0102
    4386:	0101                	.insn	2, 0x0101
    4388:	0101                	.insn	2, 0x0101
    438a:	0101                	.insn	2, 0x0101
    438c:	0101                	.insn	2, 0x0101
    438e:	0101                	.insn	2, 0x0101
    4390:	0602                	.insn	2, 0x0602
    4392:	0000                	.insn	2, 0x0000
    4394:	01010203          	lb	tp,16(sp)
    4398:	0302                	.insn	2, 0x0302
    439a:	0b06                	.insn	2, 0x0b06
    439c:	0101                	.insn	2, 0x0101
    439e:	0201                	.insn	2, 0x0201
    43a0:	0009                	.insn	2, 0x0009
    43a2:	0000                	.insn	2, 0x0000
    43a4:	0900                	.insn	2, 0x0900
    43a6:	0108                	.insn	2, 0x0108
    43a8:	0a01                	.insn	2, 0x0a01
    43aa:	0004                	.insn	2, 0x0004
	...
    43b8:	0000                	.insn	2, 0x0000
    43ba:	0700                	.insn	2, 0x0700
    43bc:	010d                	.insn	2, 0x010d
    43be:	0801                	.insn	2, 0x0801
    43c0:	0009                	.insn	2, 0x0009
    43c2:	0000                	.insn	2, 0x0000
    43c4:	0300                	.insn	2, 0x0300
    43c6:	0102                	.insn	2, 0x0102
    43c8:	0201                	.insn	2, 0x0201
    43ca:	09000003          	lb	zero,144(zero) # 90 <_isr_routine+0x88>
    43ce:	0108                	.insn	2, 0x0108
    43d0:	0101                	.insn	2, 0x0101
    43d2:	0101                	.insn	2, 0x0101
    43d4:	0101                	.insn	2, 0x0101
    43d6:	0101                	.insn	2, 0x0101
    43d8:	0101                	.insn	2, 0x0101
    43da:	0000040b          	.insn	4, 0x040b
    43de:	01010d07          	.insn	4, 0x01010d07
    43e2:	000c                	.insn	2, 0x000c
    43e4:	0206                	.insn	2, 0x0206
    43e6:	0101                	.insn	2, 0x0101
    43e8:	0a04040b          	.insn	4, 0x0a04040b
    43ec:	0101                	.insn	2, 0x0101
    43ee:	0908                	.insn	2, 0x0908
    43f0:	0000                	.insn	2, 0x0000
    43f2:	0b04                	.insn	2, 0x0b04
    43f4:	0101                	.insn	2, 0x0101
    43f6:	070d                	.insn	2, 0x070d
	...
    4400:	0b04                	.insn	2, 0x0b04
    4402:	0609                	.insn	2, 0x0609
    4404:	0000                	.insn	2, 0x0000
    4406:	0000                	.insn	2, 0x0000
    4408:	0000                	.insn	2, 0x0000
    440a:	01010107          	.insn	4, 0x01010107
    440e:	0700040b          	.insn	4, 0x0700040b
    4412:	0101                	.insn	2, 0x0101
    4414:	070d                	.insn	2, 0x070d
    4416:	0000                	.insn	2, 0x0000
    4418:	2104                	.insn	2, 0x2104
    441a:	0101                	.insn	2, 0x0101
    441c:	0101                	.insn	2, 0x0101
    441e:	0201                	.insn	2, 0x0201
    4420:	0006                	.insn	2, 0x0006
    4422:	0e00                	.insn	2, 0x0e00
    4424:	0102                	.insn	2, 0x0102
    4426:	0101                	.insn	2, 0x0101
    4428:	0101                	.insn	2, 0x0101
    442a:	0101                	.insn	2, 0x0101
    442c:	0101                	.insn	2, 0x0101
    442e:	0101                	.insn	2, 0x0101
    4430:	0302                	.insn	2, 0x0302
    4432:	0000                	.insn	2, 0x0000
    4434:	01010203          	lb	tp,16(sp)
    4438:	0302                	.insn	2, 0x0302
    443a:	0c04                	.insn	2, 0x0c04
    443c:	010d                	.insn	2, 0x010d
    443e:	0801                	.insn	2, 0x0801
    4440:	00000407          	.insn	4, 0x0407
    4444:	0900                	.insn	2, 0x0900
    4446:	0108                	.insn	2, 0x0108
    4448:	0a01                	.insn	2, 0x0a01
    444a:	0004                	.insn	2, 0x0004
	...
    4458:	0000                	.insn	2, 0x0000
    445a:	0900                	.insn	2, 0x0900
    445c:	0108                	.insn	2, 0x0108
    445e:	0d01                	.insn	2, 0x0d01
    4460:	040c                	.insn	2, 0x040c
    4462:	0000                	.insn	2, 0x0000
    4464:	0300                	.insn	2, 0x0300
    4466:	0102                	.insn	2, 0x0102
    4468:	0201                	.insn	2, 0x0201
    446a:	07000003          	lb	zero,112(zero) # 70 <_isr_routine+0x68>
    446e:	010d                	.insn	2, 0x010d
    4470:	0101                	.insn	2, 0x0101
    4472:	0101                	.insn	2, 0x0101
    4474:	0101                	.insn	2, 0x0101
    4476:	0101                	.insn	2, 0x0101
    4478:	0101                	.insn	2, 0x0101
    447a:	060a                	.insn	2, 0x060a
    447c:	0000                	.insn	2, 0x0000
    447e:	01010d07          	.insn	4, 0x01010d07
    4482:	000c                	.insn	2, 0x000c
    4484:	0a06                	.insn	2, 0x0a06
    4486:	0202                	.insn	2, 0x0202
    4488:	040c                	.insn	2, 0x040c
    448a:	0a04                	.insn	2, 0x0a04
    448c:	0101                	.insn	2, 0x0101
    448e:	0908                	.insn	2, 0x0908
    4490:	0000                	.insn	2, 0x0000
    4492:	0b04                	.insn	2, 0x0b04
    4494:	0101                	.insn	2, 0x0101
    4496:	070d                	.insn	2, 0x070d
	...
    44a0:	0b04                	.insn	2, 0x0b04
    44a2:	0004030b          	.insn	4, 0x0004030b
    44a6:	0000                	.insn	2, 0x0000
    44a8:	0000                	.insn	2, 0x0000
    44aa:	01010107          	.insn	4, 0x01010107
    44ae:	0700040b          	.insn	4, 0x0700040b
    44b2:	0101                	.insn	2, 0x0101
    44b4:	070d                	.insn	2, 0x070d
    44b6:	0000                	.insn	2, 0x0000
    44b8:	0704                	.insn	2, 0x0704
    44ba:	010d                	.insn	2, 0x010d
    44bc:	0101                	.insn	2, 0x0101
    44be:	0201                	.insn	2, 0x0201
    44c0:	0006                	.insn	2, 0x0006
    44c2:	0900                	.insn	2, 0x0900
    44c4:	0108                	.insn	2, 0x0108
    44c6:	0101                	.insn	2, 0x0101
    44c8:	0101                	.insn	2, 0x0101
    44ca:	0101                	.insn	2, 0x0101
    44cc:	0101                	.insn	2, 0x0101
    44ce:	0101                	.insn	2, 0x0101
    44d0:	0e08                	.insn	2, 0x0e08
    44d2:	0000                	.insn	2, 0x0000
    44d4:	01010203          	lb	tp,16(sp)
    44d8:	0302                	.insn	2, 0x0302
    44da:	0900                	.insn	2, 0x0900
    44dc:	0108                	.insn	2, 0x0108
    44de:	0101                	.insn	2, 0x0101
    44e0:	0000060b          	.insn	4, 0x060b
    44e4:	0900                	.insn	2, 0x0900
    44e6:	0108                	.insn	2, 0x0108
    44e8:	0a01                	.insn	2, 0x0a01
    44ea:	0004                	.insn	2, 0x0004
	...
    44f8:	0000                	.insn	2, 0x0000
    44fa:	0300                	.insn	2, 0x0300
    44fc:	0102                	.insn	2, 0x0102
    44fe:	0101                	.insn	2, 0x0101
    4500:	0000030b          	.insn	4, 0x030b
    4504:	0300                	.insn	2, 0x0300
    4506:	0102                	.insn	2, 0x0102
    4508:	0201                	.insn	2, 0x0201
    450a:	0c040003          	lb	zero,192(s0)
    450e:	0101                	.insn	2, 0x0101
    4510:	0101                	.insn	2, 0x0101
    4512:	0101                	.insn	2, 0x0101
    4514:	0101                	.insn	2, 0x0101
    4516:	0101                	.insn	2, 0x0101
    4518:	0101                	.insn	2, 0x0101
    451a:	060a                	.insn	2, 0x060a
    451c:	0000                	.insn	2, 0x0000
    451e:	01010d07          	.insn	4, 0x01010d07
    4522:	000c                	.insn	2, 0x000c
    4524:	0b04                	.insn	2, 0x0b04
    4526:	0202                	.insn	2, 0x0202
    4528:	0a040007          	.insn	4, 0x0a040007
    452c:	0101                	.insn	2, 0x0101
    452e:	0908                	.insn	2, 0x0908
    4530:	0000                	.insn	2, 0x0000
    4532:	0b04                	.insn	2, 0x0b04
    4534:	0101                	.insn	2, 0x0101
    4536:	070d                	.insn	2, 0x070d
	...
    4540:	0b04                	.insn	2, 0x0b04
    4542:	0702                	.insn	2, 0x0702
    4544:	00000003          	lb	zero,0(zero) # 0 <_isr_handler>
    4548:	0600                	.insn	2, 0x0600
    454a:	010c                	.insn	2, 0x010c
    454c:	0101                	.insn	2, 0x0101
    454e:	040c                	.insn	2, 0x040c
    4550:	0700                	.insn	2, 0x0700
    4552:	0101                	.insn	2, 0x0101
    4554:	070d                	.insn	2, 0x070d
    4556:	0000                	.insn	2, 0x0000
    4558:	0900                	.insn	2, 0x0900
    455a:	0108                	.insn	2, 0x0108
    455c:	0101                	.insn	2, 0x0101
    455e:	0201                	.insn	2, 0x0201
    4560:	0006                	.insn	2, 0x0006
    4562:	0700                	.insn	2, 0x0700
    4564:	010d                	.insn	2, 0x010d
    4566:	0201                	.insn	2, 0x0201
    4568:	0202                	.insn	2, 0x0202
    456a:	0202                	.insn	2, 0x0202
    456c:	0202                	.insn	2, 0x0202
    456e:	0101                	.insn	2, 0x0101
    4570:	090d                	.insn	2, 0x090d
    4572:	0000                	.insn	2, 0x0000
    4574:	01010203          	lb	tp,16(sp)
    4578:	0302                	.insn	2, 0x0302
    457a:	0e00                	.insn	2, 0x0e00
    457c:	0102                	.insn	2, 0x0102
    457e:	0101                	.insn	2, 0x0101
    4580:	030a                	.insn	2, 0x030a
    4582:	0000                	.insn	2, 0x0000
    4584:	0900                	.insn	2, 0x0900
    4586:	0108                	.insn	2, 0x0108
    4588:	0a01                	.insn	2, 0x0a01
    458a:	06060603          	lb	a2,96(a2)
    458e:	0606                	.insn	2, 0x0606
    4590:	0606                	.insn	2, 0x0606
	...
    459a:	0600                	.insn	2, 0x0600
    459c:	010a                	.insn	2, 0x010a
    459e:	0101                	.insn	2, 0x0101
    45a0:	0e02                	.insn	2, 0x0e02
    45a2:	0004                	.insn	2, 0x0004
    45a4:	0300                	.insn	2, 0x0300
    45a6:	0102                	.insn	2, 0x0102
    45a8:	0201                	.insn	2, 0x0201
    45aa:	0b040003          	lb	zero,176(s0)
    45ae:	0101                	.insn	2, 0x0101
    45b0:	020d                	.insn	2, 0x020d
    45b2:	0202                	.insn	2, 0x0202
    45b4:	0202                	.insn	2, 0x0202
    45b6:	0202                	.insn	2, 0x0202
    45b8:	0101                	.insn	2, 0x0101
    45ba:	0302                	.insn	2, 0x0302
    45bc:	0000                	.insn	2, 0x0000
    45be:	01010d07          	.insn	4, 0x01010d07
    45c2:	000c                	.insn	2, 0x000c
    45c4:	0904                	.insn	2, 0x0904
    45c6:	000e0707          	.insn	4, 0x000e0707
    45ca:	0a04                	.insn	2, 0x0a04
    45cc:	0101                	.insn	2, 0x0101
    45ce:	0908                	.insn	2, 0x0908
    45d0:	0000                	.insn	2, 0x0000
    45d2:	0b04                	.insn	2, 0x0b04
    45d4:	0101                	.insn	2, 0x0101
    45d6:	070d                	.insn	2, 0x070d
    45d8:	0606                	.insn	2, 0x0606
    45da:	0606                	.insn	2, 0x0606
    45dc:	0606                	.insn	2, 0x0606
    45de:	0406                	.insn	2, 0x0406
    45e0:	0b04                	.insn	2, 0x0b04
    45e2:	0a08                	.insn	2, 0x0a08
    45e4:	030e                	.insn	2, 0x030e
    45e6:	0406                	.insn	2, 0x0406
    45e8:	0306                	.insn	2, 0x0306
    45ea:	0101010b          	.insn	4, 0x0101010b
    45ee:	000c                	.insn	2, 0x000c
    45f0:	0700                	.insn	2, 0x0700
    45f2:	0101                	.insn	2, 0x0101
    45f4:	070d                	.insn	2, 0x070d
    45f6:	0000                	.insn	2, 0x0000
    45f8:	0300                	.insn	2, 0x0300
    45fa:	0102                	.insn	2, 0x0102
    45fc:	0101                	.insn	2, 0x0101
    45fe:	0201                	.insn	2, 0x0201
    4600:	0006                	.insn	2, 0x0006
    4602:	0c00                	.insn	2, 0x0c00
    4604:	0101                	.insn	2, 0x0101
    4606:	0201                	.insn	2, 0x0201
    4608:	0202                	.insn	2, 0x0202
    460a:	0202                	.insn	2, 0x0202
    460c:	0202                	.insn	2, 0x0202
    460e:	0101                	.insn	2, 0x0101
    4610:	070d                	.insn	2, 0x070d
    4612:	0000                	.insn	2, 0x0000
    4614:	01010203          	lb	tp,16(sp)
    4618:	0302                	.insn	2, 0x0302
    461a:	0600                	.insn	2, 0x0600
    461c:	010a                	.insn	2, 0x010a
    461e:	0101                	.insn	2, 0x0101
    4620:	0e02                	.insn	2, 0x0e02
    4622:	0000                	.insn	2, 0x0000
    4624:	0900                	.insn	2, 0x0900
    4626:	0108                	.insn	2, 0x0108
    4628:	0a01                	.insn	2, 0x0a01
    462a:	03030303          	lb	t1,48(t1)
    462e:	03030303          	lb	t1,48(t1)
	...
    463a:	0600                	.insn	2, 0x0600
    463c:	0101010b          	.insn	4, 0x0101010b
    4640:	0c08                	.insn	2, 0x0c08
    4642:	03000603          	lb	a2,48(zero) # 30 <_isr_routine+0x28>
    4646:	0102                	.insn	2, 0x0102
    4648:	0201                	.insn	2, 0x0201
    464a:	0b060003          	lb	zero,176(a2)
    464e:	0101                	.insn	2, 0x0101
    4650:	0208                	.insn	2, 0x0208
    4652:	0202                	.insn	2, 0x0202
    4654:	0202                	.insn	2, 0x0202
    4656:	0202                	.insn	2, 0x0202
    4658:	0101                	.insn	2, 0x0101
    465a:	0e02                	.insn	2, 0x0e02
    465c:	0000                	.insn	2, 0x0000
    465e:	01010d07          	.insn	4, 0x01010d07
    4662:	000c                	.insn	2, 0x000c
    4664:	0300                	.insn	2, 0x0300
    4666:	00030303          	lb	t1,0(t1)
    466a:	0a04                	.insn	2, 0x0a04
    466c:	0101                	.insn	2, 0x0101
    466e:	0908                	.insn	2, 0x0908
    4670:	0000                	.insn	2, 0x0000
    4672:	0b04                	.insn	2, 0x0b04
    4674:	0101                	.insn	2, 0x0101
    4676:	070d                	.insn	2, 0x070d
    4678:	03030303          	lb	t1,48(t1)
    467c:	04030303          	lb	t1,64(t1)
    4680:	0b04                	.insn	2, 0x0b04
    4682:	0201                	.insn	2, 0x0201
    4684:	03030e0b          	.insn	4, 0x03030e0b
    4688:	01020903          	lb	s2,16(tp) # 10 <_isr_routine+0x8>
    468c:	0d01                	.insn	2, 0x0d01
    468e:	07000007          	.insn	4, 0x07000007
    4692:	0101                	.insn	2, 0x0101
    4694:	070d                	.insn	2, 0x070d
    4696:	0000                	.insn	2, 0x0000
    4698:	0600                	.insn	2, 0x0600
    469a:	010a                	.insn	2, 0x010a
    469c:	0101                	.insn	2, 0x0101
    469e:	0201                	.insn	2, 0x0201
    46a0:	0006                	.insn	2, 0x0006
    46a2:	0c04                	.insn	2, 0x0c04
    46a4:	0101                	.insn	2, 0x0101
    46a6:	0c0d                	.insn	2, 0x0c0d
    46a8:	0e0e                	.insn	2, 0x0e0e
    46aa:	0e0e                	.insn	2, 0x0e0e
    46ac:	0b0e                	.insn	2, 0x0b0e
    46ae:	0101                	.insn	2, 0x0101
    46b0:	0c01                	.insn	2, 0x0c01
    46b2:	0004                	.insn	2, 0x0004
    46b4:	01010203          	lb	tp,16(sp)
    46b8:	0302                	.insn	2, 0x0302
    46ba:	0400                	.insn	2, 0x0400
    46bc:	010c                	.insn	2, 0x010c
    46be:	0101                	.insn	2, 0x0101
    46c0:	0708                	.insn	2, 0x0708
    46c2:	0000                	.insn	2, 0x0000
    46c4:	0900                	.insn	2, 0x0900
    46c6:	0108                	.insn	2, 0x0108
    46c8:	0a01                	.insn	2, 0x0a01
    46ca:	07070707          	.insn	4, 0x07070707
    46ce:	0e070707          	.insn	4, 0x0e070707
	...
    46da:	0400                	.insn	2, 0x0400
    46dc:	0d0c                	.insn	2, 0x0d0c
    46de:	0101                	.insn	2, 0x0101
    46e0:	0201                	.insn	2, 0x0201
    46e2:	0309                	.insn	2, 0x0309
    46e4:	01020e03          	lb	t3,16(tp) # 10 <_isr_routine+0x8>
    46e8:	0201                	.insn	2, 0x0201
    46ea:	0a060003          	lb	zero,160(a2)
    46ee:	0101                	.insn	2, 0x0101
    46f0:	0908                	.insn	2, 0x0908
    46f2:	0e0e                	.insn	2, 0x0e0e
    46f4:	0e0e                	.insn	2, 0x0e0e
    46f6:	0a0e                	.insn	2, 0x0a0e
    46f8:	0101                	.insn	2, 0x0101
    46fa:	0908                	.insn	2, 0x0908
    46fc:	0000                	.insn	2, 0x0000
    46fe:	01010d07          	.insn	4, 0x01010d07
    4702:	000c                	.insn	2, 0x000c
    4704:	0600                	.insn	2, 0x0600
    4706:	0606                	.insn	2, 0x0606
    4708:	0006                	.insn	2, 0x0006
    470a:	0a04                	.insn	2, 0x0a04
    470c:	0101                	.insn	2, 0x0101
    470e:	0908                	.insn	2, 0x0908
    4710:	0000                	.insn	2, 0x0000
    4712:	0b04                	.insn	2, 0x0b04
    4714:	0101                	.insn	2, 0x0101
    4716:	0c0d                	.insn	2, 0x0c0d
    4718:	07070707          	.insn	4, 0x07070707
    471c:	04090707          	.insn	4, 0x04090707
    4720:	0b04                	.insn	2, 0x0b04
    4722:	0101                	.insn	2, 0x0101
    4724:	0a02                	.insn	2, 0x0a02
    4726:	0e09                	.insn	2, 0x0e09
    4728:	0a09                	.insn	2, 0x0a09
    472a:	0108                	.insn	2, 0x0108
    472c:	0201                	.insn	2, 0x0201
    472e:	0009                	.insn	2, 0x0009
    4730:	0700                	.insn	2, 0x0700
    4732:	0101                	.insn	2, 0x0101
    4734:	070d                	.insn	2, 0x070d
    4736:	0000                	.insn	2, 0x0000
    4738:	0400                	.insn	2, 0x0400
    473a:	0101010b          	.insn	4, 0x0101010b
    473e:	0201                	.insn	2, 0x0201
    4740:	0006                	.insn	2, 0x0006
    4742:	0b04                	.insn	2, 0x0b04
    4744:	0101                	.insn	2, 0x0101
    4746:	070d                	.insn	2, 0x070d
    4748:	03030303          	lb	t1,48(t1)
    474c:	01010c03          	lb	s8,16(sp)
    4750:	2101                	.insn	2, 0x2101
    4752:	0004                	.insn	2, 0x0004
    4754:	01010203          	lb	tp,16(sp)
    4758:	0302                	.insn	2, 0x0302
    475a:	0000                	.insn	2, 0x0000
    475c:	01010807          	.insn	4, 0x01010807
    4760:	0c01                	.insn	2, 0x0c01
    4762:	0004                	.insn	2, 0x0004
    4764:	0900                	.insn	2, 0x0900
    4766:	0108                	.insn	2, 0x0108
    4768:	0201                	.insn	2, 0x0201
    476a:	0202                	.insn	2, 0x0202
    476c:	0202                	.insn	2, 0x0202
    476e:	0202                	.insn	2, 0x0202
    4770:	0e02                	.insn	2, 0x0e02
	...
    477a:	0000                	.insn	2, 0x0000
    477c:	01010807          	.insn	4, 0x01010807
    4780:	0201                	.insn	2, 0x0201
    4782:	090a                	.insn	2, 0x090a
    4784:	01020e03          	lb	t3,16(tp) # 10 <_isr_routine+0x8>
    4788:	0201                	.insn	2, 0x0201
    478a:	02060003          	lb	zero,32(a2)
    478e:	0101                	.insn	2, 0x0101
    4790:	0e02                	.insn	2, 0x0e02
    4792:	03030303          	lb	t1,48(t1)
    4796:	01010a03          	lb	s4,16(sp)
    479a:	070d                	.insn	2, 0x070d
    479c:	0000                	.insn	2, 0x0000
    479e:	01010d07          	.insn	4, 0x01010d07
    47a2:	000c                	.insn	2, 0x000c
    47a4:	0000                	.insn	2, 0x0000
    47a6:	0000                	.insn	2, 0x0000
    47a8:	0000                	.insn	2, 0x0000
    47aa:	0a04                	.insn	2, 0x0a04
    47ac:	0101                	.insn	2, 0x0101
    47ae:	0908                	.insn	2, 0x0908
    47b0:	0000                	.insn	2, 0x0000
    47b2:	0b04                	.insn	2, 0x0b04
    47b4:	0101                	.insn	2, 0x0101
    47b6:	020d                	.insn	2, 0x020d
    47b8:	0202                	.insn	2, 0x0202
    47ba:	0202                	.insn	2, 0x0202
    47bc:	0202                	.insn	2, 0x0202
    47be:	0b04040b          	.insn	4, 0x0b04040b
    47c2:	0101                	.insn	2, 0x0101
    47c4:	0208                	.insn	2, 0x0208
    47c6:	0202                	.insn	2, 0x0202
    47c8:	0202                	.insn	2, 0x0202
    47ca:	0101                	.insn	2, 0x0101
    47cc:	0201                	.insn	2, 0x0201
    47ce:	07000003          	lb	zero,112(zero) # 70 <_isr_routine+0x68>
    47d2:	0101                	.insn	2, 0x0101
    47d4:	070d                	.insn	2, 0x070d
    47d6:	0000                	.insn	2, 0x0000
    47d8:	0400                	.insn	2, 0x0400
    47da:	0d0c                	.insn	2, 0x0d0c
    47dc:	0101                	.insn	2, 0x0101
    47de:	0201                	.insn	2, 0x0201
    47e0:	0006                	.insn	2, 0x0006
    47e2:	0a06                	.insn	2, 0x0a06
    47e4:	0101                	.insn	2, 0x0101
    47e6:	0908                	.insn	2, 0x0908
    47e8:	0404                	.insn	2, 0x0404
    47ea:	0404                	.insn	2, 0x0404
    47ec:	0704                	.insn	2, 0x0704
    47ee:	010d                	.insn	2, 0x010d
    47f0:	0b01                	.insn	2, 0x0b01
    47f2:	0004                	.insn	2, 0x0004
    47f4:	01010203          	lb	tp,16(sp)
    47f8:	0302                	.insn	2, 0x0302
    47fa:	0000                	.insn	2, 0x0000
    47fc:	020e                	.insn	2, 0x020e
    47fe:	0101                	.insn	2, 0x0101
    4800:	0a01                	.insn	2, 0x0a01
    4802:	0006                	.insn	2, 0x0006
    4804:	0900                	.insn	2, 0x0900
    4806:	0108                	.insn	2, 0x0108
    4808:	0201                	.insn	2, 0x0201
    480a:	0202                	.insn	2, 0x0202
    480c:	0202                	.insn	2, 0x0202
    480e:	0202                	.insn	2, 0x0202
    4810:	0e02                	.insn	2, 0x0e02
	...
    481a:	0000                	.insn	2, 0x0000
    481c:	020e                	.insn	2, 0x020e
    481e:	0101                	.insn	2, 0x0101
    4820:	0101                	.insn	2, 0x0101
    4822:	0202                	.insn	2, 0x0202
    4824:	0a0a                	.insn	2, 0x0a0a
    4826:	0102                	.insn	2, 0x0102
    4828:	0201                	.insn	2, 0x0201
    482a:	020e0003          	lb	zero,32(t3)
    482e:	0101                	.insn	2, 0x0101
    4830:	0302                	.insn	2, 0x0302
    4832:	0404                	.insn	2, 0x0404
    4834:	0404                	.insn	2, 0x0404
    4836:	0b06                	.insn	2, 0x0b06
    4838:	0101                	.insn	2, 0x0101
    483a:	0701                	.insn	2, 0x0701
    483c:	0000                	.insn	2, 0x0000
    483e:	01010d07          	.insn	4, 0x01010d07
    4842:	000c                	.insn	2, 0x000c
    4844:	0000                	.insn	2, 0x0000
    4846:	0000                	.insn	2, 0x0000
    4848:	0000                	.insn	2, 0x0000
    484a:	0a04                	.insn	2, 0x0a04
    484c:	0101                	.insn	2, 0x0101
    484e:	0908                	.insn	2, 0x0908
    4850:	0000                	.insn	2, 0x0000
    4852:	0b04                	.insn	2, 0x0b04
    4854:	0101                	.insn	2, 0x0101
    4856:	0201                	.insn	2, 0x0201
    4858:	0202                	.insn	2, 0x0202
    485a:	0202                	.insn	2, 0x0202
    485c:	0202                	.insn	2, 0x0202
    485e:	0b04040b          	.insn	4, 0x0b04040b
    4862:	0101                	.insn	2, 0x0101
    4864:	0d01                	.insn	2, 0x0d01
    4866:	0202                	.insn	2, 0x0202
    4868:	0d02                	.insn	2, 0x0d02
    486a:	0101                	.insn	2, 0x0101
    486c:	0a01                	.insn	2, 0x0a01
    486e:	0006                	.insn	2, 0x0006
    4870:	0700                	.insn	2, 0x0700
    4872:	0101                	.insn	2, 0x0101
    4874:	070d                	.insn	2, 0x070d
    4876:	0000                	.insn	2, 0x0000
    4878:	0000                	.insn	2, 0x0000
    487a:	0809                	.insn	2, 0x0809
    487c:	0101                	.insn	2, 0x0101
    487e:	0201                	.insn	2, 0x0201
    4880:	0006                	.insn	2, 0x0006
    4882:	0206                	.insn	2, 0x0206
    4884:	0101                	.insn	2, 0x0101
    4886:	0e02                	.insn	2, 0x0e02
    4888:	0000                	.insn	2, 0x0000
    488a:	0000                	.insn	2, 0x0000
    488c:	0900                	.insn	2, 0x0900
    488e:	0108                	.insn	2, 0x0108
    4890:	0a01                	.insn	2, 0x0a01
    4892:	0006                	.insn	2, 0x0006
    4894:	01010203          	lb	tp,16(sp)
    4898:	0302                	.insn	2, 0x0302
    489a:	0000                	.insn	2, 0x0000
    489c:	0a06                	.insn	2, 0x0a06
    489e:	0101                	.insn	2, 0x0101
    48a0:	0201                	.insn	2, 0x0201
    48a2:	000e                	.insn	2, 0x000e
    48a4:	0900                	.insn	2, 0x0900
    48a6:	0108                	.insn	2, 0x0108
    48a8:	0101                	.insn	2, 0x0101
    48aa:	0101                	.insn	2, 0x0101
    48ac:	0101                	.insn	2, 0x0101
    48ae:	0101                	.insn	2, 0x0101
    48b0:	0e08                	.insn	2, 0x0e08
	...
    48ba:	0000                	.insn	2, 0x0000
    48bc:	0a06                	.insn	2, 0x0a06
    48be:	0101                	.insn	2, 0x0101
    48c0:	0101                	.insn	2, 0x0101
    48c2:	0201                	.insn	2, 0x0201
    48c4:	0202                	.insn	2, 0x0202
    48c6:	0102                	.insn	2, 0x0102
    48c8:	0201                	.insn	2, 0x0201
    48ca:	08090003          	lb	zero,128(s2)
    48ce:	0101                	.insn	2, 0x0101
    48d0:	060a                	.insn	2, 0x060a
    48d2:	0000                	.insn	2, 0x0000
    48d4:	0000                	.insn	2, 0x0000
    48d6:	0c04                	.insn	2, 0x0c04
    48d8:	0101                	.insn	2, 0x0101
    48da:	0c01                	.insn	2, 0x0c01
    48dc:	0004                	.insn	2, 0x0004
    48de:	01010d07          	.insn	4, 0x01010d07
    48e2:	000c                	.insn	2, 0x000c
    48e4:	0000                	.insn	2, 0x0000
    48e6:	0000                	.insn	2, 0x0000
    48e8:	0000                	.insn	2, 0x0000
    48ea:	0a04                	.insn	2, 0x0a04
    48ec:	0101                	.insn	2, 0x0101
    48ee:	0908                	.insn	2, 0x0908
    48f0:	0000                	.insn	2, 0x0000
    48f2:	0b04                	.insn	2, 0x0b04
    48f4:	0101                	.insn	2, 0x0101
    48f6:	0101                	.insn	2, 0x0101
    48f8:	0101                	.insn	2, 0x0101
    48fa:	0101                	.insn	2, 0x0101
    48fc:	0101                	.insn	2, 0x0101
    48fe:	0b04040b          	.insn	4, 0x0b04040b
    4902:	0101                	.insn	2, 0x0101
    4904:	0101                	.insn	2, 0x0101
    4906:	0101                	.insn	2, 0x0101
    4908:	0101                	.insn	2, 0x0101
    490a:	0101                	.insn	2, 0x0101
    490c:	0c08                	.insn	2, 0x0c08
    490e:	0004                	.insn	2, 0x0004
    4910:	0700                	.insn	2, 0x0700
    4912:	0101                	.insn	2, 0x0101
    4914:	070d                	.insn	2, 0x070d
    4916:	0000                	.insn	2, 0x0000
    4918:	0000                	.insn	2, 0x0000
    491a:	020e                	.insn	2, 0x020e
    491c:	0101                	.insn	2, 0x0101
    491e:	0201                	.insn	2, 0x0201
    4920:	0006                	.insn	2, 0x0006
    4922:	01010203          	lb	tp,16(sp)
    4926:	0302                	.insn	2, 0x0302
    4928:	0000                	.insn	2, 0x0000
    492a:	0000                	.insn	2, 0x0000
    492c:	0900                	.insn	2, 0x0900
    492e:	0108                	.insn	2, 0x0108
    4930:	0201                	.insn	2, 0x0201
    4932:	0006                	.insn	2, 0x0006
    4934:	01010203          	lb	tp,16(sp)
    4938:	0302                	.insn	2, 0x0302
    493a:	0000                	.insn	2, 0x0000
    493c:	0b06                	.insn	2, 0x0b06
    493e:	0101                	.insn	2, 0x0101
    4940:	0801                	.insn	2, 0x0801
    4942:	0009                	.insn	2, 0x0009
    4944:	0900                	.insn	2, 0x0900
    4946:	0108                	.insn	2, 0x0108
    4948:	0101                	.insn	2, 0x0101
    494a:	0101                	.insn	2, 0x0101
    494c:	0101                	.insn	2, 0x0101
    494e:	0101                	.insn	2, 0x0101
    4950:	0e08                	.insn	2, 0x0e08
	...
    495a:	0000                	.insn	2, 0x0000
    495c:	0c04                	.insn	2, 0x0c04
    495e:	0108                	.insn	2, 0x0108
    4960:	0101                	.insn	2, 0x0101
    4962:	0101                	.insn	2, 0x0101
    4964:	010d                	.insn	2, 0x010d
    4966:	0101                	.insn	2, 0x0101
    4968:	0201                	.insn	2, 0x0201
    496a:	0d070003          	lb	zero,208(a4)
    496e:	0101                	.insn	2, 0x0101
    4970:	0000040b          	.insn	4, 0x040b
    4974:	0000                	.insn	2, 0x0000
    4976:	0c00                	.insn	2, 0x0c00
    4978:	0101                	.insn	2, 0x0101
    497a:	0b01                	.insn	2, 0x0b01
    497c:	0004                	.insn	2, 0x0004
    497e:	01010d07          	.insn	4, 0x01010d07
    4982:	000c                	.insn	2, 0x000c
    4984:	0000                	.insn	2, 0x0000
    4986:	0000                	.insn	2, 0x0000
    4988:	0000                	.insn	2, 0x0000
    498a:	0a04                	.insn	2, 0x0a04
    498c:	0101                	.insn	2, 0x0101
    498e:	0908                	.insn	2, 0x0908
    4990:	0000                	.insn	2, 0x0000
    4992:	0b04                	.insn	2, 0x0b04
    4994:	0101                	.insn	2, 0x0101
    4996:	0101                	.insn	2, 0x0101
    4998:	0101                	.insn	2, 0x0101
    499a:	0101                	.insn	2, 0x0101
    499c:	0101                	.insn	2, 0x0101
    499e:	0b04040b          	.insn	4, 0x0b04040b
    49a2:	0101                	.insn	2, 0x0101
    49a4:	0101                	.insn	2, 0x0101
    49a6:	0101                	.insn	2, 0x0101
    49a8:	0101                	.insn	2, 0x0101
    49aa:	0101                	.insn	2, 0x0101
    49ac:	0902                	.insn	2, 0x0902
    49ae:	0000                	.insn	2, 0x0000
    49b0:	0700                	.insn	2, 0x0700
    49b2:	0101                	.insn	2, 0x0101
    49b4:	070d                	.insn	2, 0x070d
    49b6:	0000                	.insn	2, 0x0000
    49b8:	0000                	.insn	2, 0x0000
    49ba:	0a06                	.insn	2, 0x0a06
    49bc:	0101                	.insn	2, 0x0101
    49be:	0201                	.insn	2, 0x0201
    49c0:	0006                	.insn	2, 0x0006
    49c2:	080e                	.insn	2, 0x080e
    49c4:	0101                	.insn	2, 0x0101
    49c6:	060a                	.insn	2, 0x060a
    49c8:	0000                	.insn	2, 0x0000
    49ca:	0000                	.insn	2, 0x0000
    49cc:	0300                	.insn	2, 0x0300
    49ce:	0102                	.insn	2, 0x0102
    49d0:	0201                	.insn	2, 0x0201
    49d2:	02030003          	lb	zero,32(t1)
    49d6:	0101                	.insn	2, 0x0101
    49d8:	0302                	.insn	2, 0x0302
    49da:	0000                	.insn	2, 0x0000
    49dc:	0704                	.insn	2, 0x0704
    49de:	0108                	.insn	2, 0x0108
    49e0:	0d01                	.insn	2, 0x0d01
    49e2:	040c                	.insn	2, 0x040c
    49e4:	0900                	.insn	2, 0x0900
    49e6:	0108                	.insn	2, 0x0108
    49e8:	0101                	.insn	2, 0x0101
    49ea:	0101                	.insn	2, 0x0101
    49ec:	0101                	.insn	2, 0x0101
    49ee:	0101                	.insn	2, 0x0101
    49f0:	0e08                	.insn	2, 0x0e08
	...
    49fa:	0000                	.insn	2, 0x0000
    49fc:	0e00                	.insn	2, 0x0e00
    49fe:	0102                	.insn	2, 0x0102
    4a00:	0101                	.insn	2, 0x0101
    4a02:	0101                	.insn	2, 0x0101
    4a04:	0101                	.insn	2, 0x0101
    4a06:	0101                	.insn	2, 0x0101
    4a08:	0201                	.insn	2, 0x0201
    4a0a:	01070003          	lb	zero,16(a4)
    4a0e:	0101                	.insn	2, 0x0101
    4a10:	040c                	.insn	2, 0x040c
    4a12:	0000                	.insn	2, 0x0000
    4a14:	0000                	.insn	2, 0x0000
    4a16:	0700                	.insn	2, 0x0700
    4a18:	010d                	.insn	2, 0x010d
    4a1a:	0a01                	.insn	2, 0x0a01
    4a1c:	0006                	.insn	2, 0x0006
    4a1e:	01010d07          	.insn	4, 0x01010d07
    4a22:	000c                	.insn	2, 0x000c
    4a24:	0000                	.insn	2, 0x0000
    4a26:	0000                	.insn	2, 0x0000
    4a28:	0000                	.insn	2, 0x0000
    4a2a:	0a04                	.insn	2, 0x0a04
    4a2c:	0101                	.insn	2, 0x0101
    4a2e:	0908                	.insn	2, 0x0908
    4a30:	0000                	.insn	2, 0x0000
    4a32:	0b04                	.insn	2, 0x0b04
    4a34:	0101                	.insn	2, 0x0101
    4a36:	0101                	.insn	2, 0x0101
    4a38:	0101                	.insn	2, 0x0101
    4a3a:	0101                	.insn	2, 0x0101
    4a3c:	0101                	.insn	2, 0x0101
    4a3e:	0b04040b          	.insn	4, 0x0b04040b
    4a42:	010d                	.insn	2, 0x010d
    4a44:	0101                	.insn	2, 0x0101
    4a46:	0101                	.insn	2, 0x0101
    4a48:	0101                	.insn	2, 0x0101
    4a4a:	0801                	.insn	2, 0x0801
    4a4c:	030a                	.insn	2, 0x030a
    4a4e:	0000                	.insn	2, 0x0000
    4a50:	0700                	.insn	2, 0x0700
    4a52:	0101                	.insn	2, 0x0101
    4a54:	070d                	.insn	2, 0x070d
    4a56:	0000                	.insn	2, 0x0000
    4a58:	0000                	.insn	2, 0x0000
    4a5a:	0b06                	.insn	2, 0x0b06
    4a5c:	0101                	.insn	2, 0x0101
    4a5e:	0201                	.insn	2, 0x0201
    4a60:	0006                	.insn	2, 0x0006
    4a62:	0809                	.insn	2, 0x0809
    4a64:	0101                	.insn	2, 0x0101
    4a66:	060a                	.insn	2, 0x060a
    4a68:	0000                	.insn	2, 0x0000
    4a6a:	0000                	.insn	2, 0x0000
    4a6c:	0600                	.insn	2, 0x0600
    4a6e:	0102                	.insn	2, 0x0102
    4a70:	0801                	.insn	2, 0x0801
    4a72:	0009                	.insn	2, 0x0009
    4a74:	01010203          	lb	tp,16(sp)
    4a78:	0302                	.insn	2, 0x0302
    4a7a:	0000                	.insn	2, 0x0000
    4a7c:	0900                	.insn	2, 0x0900
    4a7e:	0102                	.insn	2, 0x0102
    4a80:	0101                	.insn	2, 0x0101
    4a82:	060a                	.insn	2, 0x060a
    4a84:	0900                	.insn	2, 0x0900
    4a86:	0108                	.insn	2, 0x0108
    4a88:	0101                	.insn	2, 0x0101
    4a8a:	0101                	.insn	2, 0x0101
    4a8c:	0101                	.insn	2, 0x0101
    4a8e:	0101                	.insn	2, 0x0101
    4a90:	0e08                	.insn	2, 0x0e08
	...
    4a9a:	0000                	.insn	2, 0x0000
    4a9c:	0300                	.insn	2, 0x0300
    4a9e:	0101080b          	.insn	4, 0x0101080b
    4aa2:	0101                	.insn	2, 0x0101
    4aa4:	0101                	.insn	2, 0x0101
    4aa6:	0101                	.insn	2, 0x0101
    4aa8:	0201                	.insn	2, 0x0201
    4aaa:	010c0403          	lb	s0,16(s8)
    4aae:	0101                	.insn	2, 0x0101
    4ab0:	000c                	.insn	2, 0x000c
    4ab2:	0000                	.insn	2, 0x0000
    4ab4:	0000                	.insn	2, 0x0000
    4ab6:	0900                	.insn	2, 0x0900
    4ab8:	0108                	.insn	2, 0x0108
    4aba:	0201                	.insn	2, 0x0201
    4abc:	0006                	.insn	2, 0x0006
    4abe:	01010d07          	.insn	4, 0x01010d07
    4ac2:	000c                	.insn	2, 0x000c
    4ac4:	0000                	.insn	2, 0x0000
    4ac6:	0000                	.insn	2, 0x0000
    4ac8:	0000                	.insn	2, 0x0000
    4aca:	0a04                	.insn	2, 0x0a04
    4acc:	0101                	.insn	2, 0x0101
    4ace:	0908                	.insn	2, 0x0908
    4ad0:	0000                	.insn	2, 0x0000
    4ad2:	0b04                	.insn	2, 0x0b04
    4ad4:	0101                	.insn	2, 0x0101
    4ad6:	0101                	.insn	2, 0x0101
    4ad8:	0101                	.insn	2, 0x0101
    4ada:	0101                	.insn	2, 0x0101
    4adc:	0101                	.insn	2, 0x0101
    4ade:	2104040b          	.insn	4, 0x2104040b
    4ae2:	0d02                	.insn	2, 0x0d02
    4ae4:	0101                	.insn	2, 0x0101
    4ae6:	0101                	.insn	2, 0x0101
    4ae8:	0101                	.insn	2, 0x0101
    4aea:	0201                	.insn	2, 0x0201
    4aec:	00000607          	.insn	4, 0x0607
    4af0:	0700                	.insn	2, 0x0700
    4af2:	0101                	.insn	2, 0x0101
    4af4:	070d                	.insn	2, 0x070d
    4af6:	0000                	.insn	2, 0x0000
    4af8:	0000                	.insn	2, 0x0000
    4afa:	0c04                	.insn	2, 0x0c04
    4afc:	0101                	.insn	2, 0x0101
    4afe:	0201                	.insn	2, 0x0201
    4b00:	0006                	.insn	2, 0x0006
    4b02:	01010d07          	.insn	4, 0x01010d07
    4b06:	0000040b          	.insn	4, 0x040b
    4b0a:	0000                	.insn	2, 0x0000
    4b0c:	0600                	.insn	2, 0x0600
    4b0e:	010a                	.insn	2, 0x010a
    4b10:	0d01                	.insn	2, 0x0d01
    4b12:	02030007          	.insn	4, 0x02030007
    4b16:	0101                	.insn	2, 0x0101
    4b18:	0302                	.insn	2, 0x0302
    4b1a:	0000                	.insn	2, 0x0000
    4b1c:	0300                	.insn	2, 0x0300
    4b1e:	0102                	.insn	2, 0x0102
    4b20:	0101                	.insn	2, 0x0101
    4b22:	0302                	.insn	2, 0x0302
    4b24:	0900                	.insn	2, 0x0900
    4b26:	0108                	.insn	2, 0x0108
    4b28:	0101                	.insn	2, 0x0101
    4b2a:	0101                	.insn	2, 0x0101
    4b2c:	0101                	.insn	2, 0x0101
    4b2e:	0101                	.insn	2, 0x0101
    4b30:	0e08                	.insn	2, 0x0e08
	...
    4b3a:	0000                	.insn	2, 0x0000
    4b3c:	0400                	.insn	2, 0x0400
    4b3e:	01010207          	.insn	4, 0x01010207
    4b42:	0101                	.insn	2, 0x0101
    4b44:	0101                	.insn	2, 0x0101
    4b46:	0101                	.insn	2, 0x0101
    4b48:	0202                	.insn	2, 0x0202
    4b4a:	010b0403          	lb	s0,16(s6)
    4b4e:	0d01                	.insn	2, 0x0d01
    4b50:	00000007          	.insn	4, 0x0007
    4b54:	0000                	.insn	2, 0x0000
    4b56:	0e00                	.insn	2, 0x0e00
    4b58:	0108                	.insn	2, 0x0108
    4b5a:	0201                	.insn	2, 0x0201
    4b5c:	0d070003          	lb	zero,208(a4)
    4b60:	0101                	.insn	2, 0x0101
    4b62:	000c                	.insn	2, 0x000c
    4b64:	0000                	.insn	2, 0x0000
    4b66:	0000                	.insn	2, 0x0000
    4b68:	0000                	.insn	2, 0x0000
    4b6a:	0a04                	.insn	2, 0x0a04
    4b6c:	0101                	.insn	2, 0x0101
    4b6e:	0908                	.insn	2, 0x0908
    4b70:	0000                	.insn	2, 0x0000
    4b72:	0b04                	.insn	2, 0x0b04
    4b74:	0101                	.insn	2, 0x0101
    4b76:	0101                	.insn	2, 0x0101
    4b78:	0101                	.insn	2, 0x0101
    4b7a:	0101                	.insn	2, 0x0101
    4b7c:	0101                	.insn	2, 0x0101
    4b7e:	0e04040b          	.insn	4, 0x0e04040b
    4b82:	020a                	.insn	2, 0x020a
    4b84:	0102                	.insn	2, 0x0102
    4b86:	0101                	.insn	2, 0x0101
    4b88:	0d01                	.insn	2, 0x0d01
    4b8a:	0a02                	.insn	2, 0x0a02
    4b8c:	000e                	.insn	2, 0x000e
    4b8e:	0000                	.insn	2, 0x0000
    4b90:	0700                	.insn	2, 0x0700
    4b92:	0202                	.insn	2, 0x0202
    4b94:	0702                	.insn	2, 0x0702
    4b96:	0000                	.insn	2, 0x0000
    4b98:	0000                	.insn	2, 0x0000
    4b9a:	0700                	.insn	2, 0x0700
    4b9c:	0202                	.insn	2, 0x0202
    4b9e:	0202                	.insn	2, 0x0202
    4ba0:	0406                	.insn	2, 0x0406
    4ba2:	020c                	.insn	2, 0x020c
    4ba4:	0202                	.insn	2, 0x0202
    4ba6:	040c                	.insn	2, 0x040c
    4ba8:	0000                	.insn	2, 0x0000
    4baa:	0000                	.insn	2, 0x0000
    4bac:	0400                	.insn	2, 0x0400
    4bae:	020a                	.insn	2, 0x020a
    4bb0:	0202                	.insn	2, 0x0202
    4bb2:	02030007          	.insn	4, 0x02030007
    4bb6:	0202                	.insn	2, 0x0202
    4bb8:	0302                	.insn	2, 0x0302
    4bba:	0000                	.insn	2, 0x0000
    4bbc:	0600                	.insn	2, 0x0600
    4bbe:	0202020b          	.insn	4, 0x0202020b
    4bc2:	0902                	.insn	2, 0x0902
    4bc4:	0900                	.insn	2, 0x0900
    4bc6:	0202                	.insn	2, 0x0202
    4bc8:	0202                	.insn	2, 0x0202
    4bca:	0202                	.insn	2, 0x0202
    4bcc:	0202                	.insn	2, 0x0202
    4bce:	0202                	.insn	2, 0x0202
    4bd0:	0e02                	.insn	2, 0x0e02
	...
    4bde:	0d020b03          	lb	s6,208(tp) # d0 <restore+0x8>
    4be2:	0101                	.insn	2, 0x0101
    4be4:	0101                	.insn	2, 0x0101
    4be6:	0208                	.insn	2, 0x0208
    4be8:	0902                	.insn	2, 0x0902
    4bea:	020a0603          	lb	a2,32(s4)
    4bee:	0202                	.insn	2, 0x0202
    4bf0:	0009                	.insn	2, 0x0009
    4bf2:	0000                	.insn	2, 0x0000
    4bf4:	0000                	.insn	2, 0x0000
    4bf6:	0300                	.insn	2, 0x0300
    4bf8:	0202                	.insn	2, 0x0202
    4bfa:	0202                	.insn	2, 0x0202
    4bfc:	000e                	.insn	2, 0x000e
    4bfe:	02020207          	.insn	4, 0x02020207
    4c02:	000c                	.insn	2, 0x000c
    4c04:	0000                	.insn	2, 0x0000
    4c06:	0000                	.insn	2, 0x0000
    4c08:	0000                	.insn	2, 0x0000
    4c0a:	0a04                	.insn	2, 0x0a04
    4c0c:	0202                	.insn	2, 0x0202
    4c0e:	0902                	.insn	2, 0x0902
    4c10:	0000                	.insn	2, 0x0000
    4c12:	0b04                	.insn	2, 0x0b04
    4c14:	0202                	.insn	2, 0x0202
    4c16:	0202                	.insn	2, 0x0202
    4c18:	0202                	.insn	2, 0x0202
    4c1a:	0202                	.insn	2, 0x0202
    4c1c:	0202                	.insn	2, 0x0202
    4c1e:	0300040b          	.insn	4, 0x0300040b
    4c22:	0a0e                	.insn	2, 0x0a0e
    4c24:	0202                	.insn	2, 0x0202
    4c26:	0202                	.insn	2, 0x0202
    4c28:	0202                	.insn	2, 0x0202
    4c2a:	0e02                	.insn	2, 0x0e02
    4c2c:	0006                	.insn	2, 0x0006
    4c2e:	0000                	.insn	2, 0x0000
    4c30:	0700                	.insn	2, 0x0700
    4c32:	0202                	.insn	2, 0x0202
    4c34:	0702                	.insn	2, 0x0702
    4c36:	0000                	.insn	2, 0x0000
    4c38:	0000                	.insn	2, 0x0000
    4c3a:	0e00                	.insn	2, 0x0e00
    4c3c:	0202                	.insn	2, 0x0202
    4c3e:	0202                	.insn	2, 0x0202
    4c40:	0406                	.insn	2, 0x0406
    4c42:	0221                	.insn	2, 0x0221
    4c44:	0202                	.insn	2, 0x0202
    4c46:	000c                	.insn	2, 0x000c
    4c48:	0000                	.insn	2, 0x0000
    4c4a:	0000                	.insn	2, 0x0000
    4c4c:	0400                	.insn	2, 0x0400
    4c4e:	0202020b          	.insn	4, 0x0202020b
    4c52:	040c                	.insn	2, 0x040c
    4c54:	02020203          	lb	tp,32(tp) # 20 <_isr_routine+0x18>
    4c58:	0302                	.insn	2, 0x0302
    4c5a:	0000                	.insn	2, 0x0000
    4c5c:	0400                	.insn	2, 0x0400
    4c5e:	020c                	.insn	2, 0x020c
    4c60:	0202                	.insn	2, 0x0202
    4c62:	0c02                	.insn	2, 0x0c02
    4c64:	0904                	.insn	2, 0x0904
    4c66:	0202                	.insn	2, 0x0202
    4c68:	0202                	.insn	2, 0x0202
    4c6a:	0202                	.insn	2, 0x0202
    4c6c:	0202                	.insn	2, 0x0202
    4c6e:	0202                	.insn	2, 0x0202
    4c70:	0e02                	.insn	2, 0x0e02
	...
    4c7e:	0e06                	.insn	2, 0x0e06
    4c80:	020a                	.insn	2, 0x020a
    4c82:	0202                	.insn	2, 0x0202
    4c84:	0202                	.insn	2, 0x0202
    4c86:	0a02                	.insn	2, 0x0a02
    4c88:	0309                	.insn	2, 0x0309
    4c8a:	0604                	.insn	2, 0x0604
    4c8c:	020a                	.insn	2, 0x020a
    4c8e:	0202                	.insn	2, 0x0202
    4c90:	0009                	.insn	2, 0x0009
    4c92:	0000                	.insn	2, 0x0000
    4c94:	0000                	.insn	2, 0x0000
    4c96:	0600                	.insn	2, 0x0600
    4c98:	0202                	.insn	2, 0x0202
    4c9a:	0202                	.insn	2, 0x0202
    4c9c:	0009                	.insn	2, 0x0009
    4c9e:	02020207          	.insn	4, 0x02020207
    4ca2:	000c                	.insn	2, 0x000c
    4ca4:	0000                	.insn	2, 0x0000
    4ca6:	0000                	.insn	2, 0x0000
    4ca8:	0000                	.insn	2, 0x0000
    4caa:	0a04                	.insn	2, 0x0a04
    4cac:	0202                	.insn	2, 0x0202
    4cae:	0902                	.insn	2, 0x0902
    4cb0:	0000                	.insn	2, 0x0000
    4cb2:	0b04                	.insn	2, 0x0b04
    4cb4:	0202                	.insn	2, 0x0202
    4cb6:	0202                	.insn	2, 0x0202
    4cb8:	0202                	.insn	2, 0x0202
    4cba:	0202                	.insn	2, 0x0202
    4cbc:	0202                	.insn	2, 0x0202
    4cbe:	0000040b          	.insn	4, 0x040b
    4cc2:	020b0e03          	lb	t3,32(s6)
    4cc6:	0202                	.insn	2, 0x0202
    4cc8:	0a02                	.insn	2, 0x0a02
    4cca:	0309                	.insn	2, 0x0309
    4ccc:	0000                	.insn	2, 0x0000
    4cce:	0000                	.insn	2, 0x0000
    4cd0:	0900                	.insn	2, 0x0900
    4cd2:	0c0c                	.insn	2, 0x0c0c
    4cd4:	090c                	.insn	2, 0x090c
    4cd6:	0000                	.insn	2, 0x0000
    4cd8:	0000                	.insn	2, 0x0000
    4cda:	0300                	.insn	2, 0x0300
    4cdc:	0c0c                	.insn	2, 0x0c0c
    4cde:	0c0c                	.insn	2, 0x0c0c
    4ce0:	0406                	.insn	2, 0x0406
    4ce2:	0c0c0c07          	.insn	4, 0x0c0c0c07
    4ce6:	0009                	.insn	2, 0x0009
    4ce8:	0000                	.insn	2, 0x0000
    4cea:	0000                	.insn	2, 0x0000
    4cec:	0400                	.insn	2, 0x0400
    4cee:	0c09                	.insn	2, 0x0c09
    4cf0:	0c0c                	.insn	2, 0x0c0c
    4cf2:	0c030407          	.insn	4, 0x0c030407
    4cf6:	0c0c                	.insn	2, 0x0c0c
    4cf8:	060c                	.insn	2, 0x060c
    4cfa:	0000                	.insn	2, 0x0000
    4cfc:	0000                	.insn	2, 0x0000
    4cfe:	0c09                	.insn	2, 0x0c09
    4d00:	0c0c                	.insn	2, 0x0c0c
    4d02:	070c                	.insn	2, 0x070c
    4d04:	0e06                	.insn	2, 0x0e06
    4d06:	0c0c                	.insn	2, 0x0c0c
    4d08:	0c0c                	.insn	2, 0x0c0c
    4d0a:	0c0c                	.insn	2, 0x0c0c
    4d0c:	0c0c                	.insn	2, 0x0c0c
    4d0e:	0c0c                	.insn	2, 0x0c0c
    4d10:	0e0c                	.insn	2, 0x0e0c
	...
    4d1e:	0300                	.insn	2, 0x0300
    4d20:	0a09                	.insn	2, 0x0a09
    4d22:	0202                	.insn	2, 0x0202
    4d24:	0202                	.insn	2, 0x0202
    4d26:	06030e0b          	.insn	4, 0x06030e0b
    4d2a:	0300                	.insn	2, 0x0300
    4d2c:	0c0c                	.insn	2, 0x0c0c
    4d2e:	0c0c                	.insn	2, 0x0c0c
    4d30:	00000003          	lb	zero,0(zero) # 0 <_isr_handler>
    4d34:	0000                	.insn	2, 0x0000
    4d36:	0600                	.insn	2, 0x0600
    4d38:	0c0c0c07          	.insn	4, 0x0c0c0c07
    4d3c:	0009                	.insn	2, 0x0009
    4d3e:	0c09                	.insn	2, 0x0c09
    4d40:	0c0c                	.insn	2, 0x0c0c
    4d42:	0009                	.insn	2, 0x0009
    4d44:	0000                	.insn	2, 0x0000
    4d46:	0000                	.insn	2, 0x0000
    4d48:	0000                	.insn	2, 0x0000
    4d4a:	0704                	.insn	2, 0x0704
    4d4c:	0c0c                	.insn	2, 0x0c0c
    4d4e:	0e0c                	.insn	2, 0x0e0c
    4d50:	0000                	.insn	2, 0x0000
    4d52:	0704                	.insn	2, 0x0704
    4d54:	0c0c                	.insn	2, 0x0c0c
    4d56:	0c0c                	.insn	2, 0x0c0c
    4d58:	0c0c                	.insn	2, 0x0c0c
    4d5a:	0c0c                	.insn	2, 0x0c0c
    4d5c:	0c0c                	.insn	2, 0x0c0c
    4d5e:	00000407          	.insn	4, 0x0407
    4d62:	0304                	.insn	2, 0x0304
    4d64:	07090e03          	lb	t3,112(s2)
    4d68:	0e09                	.insn	2, 0x0e09
    4d6a:	00000403          	lb	s0,0(zero) # 0 <_isr_handler>
    4d6e:	0000                	.insn	2, 0x0000
    4d70:	0300                	.insn	2, 0x0300
    4d72:	03030303          	lb	t1,48(t1)
    4d76:	0000                	.insn	2, 0x0000
    4d78:	0000                	.insn	2, 0x0000
    4d7a:	0600                	.insn	2, 0x0600
    4d7c:	03030303          	lb	t1,48(t1)
    4d80:	0606                	.insn	2, 0x0606
    4d82:	03030303          	lb	t1,48(t1)
    4d86:	00000003          	lb	zero,0(zero) # 0 <_isr_handler>
    4d8a:	0000                	.insn	2, 0x0000
    4d8c:	0000                	.insn	2, 0x0000
    4d8e:	03030303          	lb	t1,48(t1)
    4d92:	03060603          	lb	a2,48(a2)
    4d96:	06030303          	lb	t1,96(t1)
    4d9a:	0000                	.insn	2, 0x0000
    4d9c:	0000                	.insn	2, 0x0000
    4d9e:	03030303          	lb	t1,48(t1)
    4da2:	03030303          	lb	t1,48(t1)
    4da6:	03030303          	lb	t1,48(t1)
    4daa:	03030303          	lb	t1,48(t1)
    4dae:	03030303          	lb	t1,48(t1)
	...
    4dbe:	0400                	.insn	2, 0x0400
    4dc0:	0c070e03          	lb	t3,192(a4)
    4dc4:	090c                	.insn	2, 0x090c
    4dc6:	00040303          	lb	t1,0(s0)
    4dca:	0300                	.insn	2, 0x0300
    4dcc:	03030303          	lb	t1,48(t1)
    4dd0:	0006                	.insn	2, 0x0006
    4dd2:	0000                	.insn	2, 0x0000
    4dd4:	0000                	.insn	2, 0x0000
    4dd6:	0400                	.insn	2, 0x0400
    4dd8:	03030303          	lb	t1,48(t1)
    4ddc:	03030403          	lb	s0,48(t1)
    4de0:	00030303          	lb	t1,0(t1)
    4de4:	0000                	.insn	2, 0x0000
    4de6:	0000                	.insn	2, 0x0000
    4de8:	0000                	.insn	2, 0x0000
    4dea:	0304                	.insn	2, 0x0304
    4dec:	03030303          	lb	t1,48(t1)
    4df0:	0000                	.insn	2, 0x0000
    4df2:	0304                	.insn	2, 0x0304
    4df4:	03030303          	lb	t1,48(t1)
    4df8:	03030303          	lb	t1,48(t1)
    4dfc:	04030303          	lb	t1,64(t1)
    4e00:	0000                	.insn	2, 0x0000
    4e02:	0000                	.insn	2, 0x0000
    4e04:	03030303          	lb	t1,48(t1)
    4e08:	00040303          	lb	t1,0(s0)
    4e0c:	0000                	.insn	2, 0x0000
    4e0e:	0000                	.insn	2, 0x0000
    4e10:	0600                	.insn	2, 0x0600
    4e12:	0606                	.insn	2, 0x0606
    4e14:	0606                	.insn	2, 0x0606
    4e16:	0000                	.insn	2, 0x0000
    4e18:	0000                	.insn	2, 0x0000
    4e1a:	0400                	.insn	2, 0x0400
    4e1c:	0606                	.insn	2, 0x0606
    4e1e:	0606                	.insn	2, 0x0606
    4e20:	0604                	.insn	2, 0x0604
    4e22:	0606                	.insn	2, 0x0606
    4e24:	0606                	.insn	2, 0x0606
    4e26:	0006                	.insn	2, 0x0006
    4e28:	0000                	.insn	2, 0x0000
    4e2a:	0000                	.insn	2, 0x0000
    4e2c:	0000                	.insn	2, 0x0000
    4e2e:	0606                	.insn	2, 0x0606
    4e30:	0606                	.insn	2, 0x0606
    4e32:	0406                	.insn	2, 0x0406
    4e34:	0606                	.insn	2, 0x0606
    4e36:	0606                	.insn	2, 0x0606
    4e38:	0606                	.insn	2, 0x0606
    4e3a:	0000                	.insn	2, 0x0000
    4e3c:	0000                	.insn	2, 0x0000
    4e3e:	0606                	.insn	2, 0x0606
    4e40:	0606                	.insn	2, 0x0606
    4e42:	0606                	.insn	2, 0x0606
    4e44:	0606                	.insn	2, 0x0606
    4e46:	0606                	.insn	2, 0x0606
    4e48:	0606                	.insn	2, 0x0606
    4e4a:	0606                	.insn	2, 0x0606
    4e4c:	0606                	.insn	2, 0x0606
    4e4e:	0606                	.insn	2, 0x0606
    4e50:	0606                	.insn	2, 0x0606
	...
    4e5e:	0000                	.insn	2, 0x0000
    4e60:	0304                	.insn	2, 0x0304
    4e62:	03030303          	lb	t1,48(t1)
    4e66:	00000403          	lb	s0,0(zero) # 0 <_isr_handler>
    4e6a:	0600                	.insn	2, 0x0600
    4e6c:	0606                	.insn	2, 0x0606
    4e6e:	0606                	.insn	2, 0x0606
    4e70:	0004                	.insn	2, 0x0004
    4e72:	0000                	.insn	2, 0x0000
    4e74:	0000                	.insn	2, 0x0000
    4e76:	0400                	.insn	2, 0x0400
    4e78:	0606                	.insn	2, 0x0606
    4e7a:	0606                	.insn	2, 0x0606
    4e7c:	0406                	.insn	2, 0x0406
    4e7e:	0606                	.insn	2, 0x0606
    4e80:	0606                	.insn	2, 0x0606
    4e82:	0006                	.insn	2, 0x0006
    4e84:	0000                	.insn	2, 0x0000
    4e86:	0000                	.insn	2, 0x0000
    4e88:	0000                	.insn	2, 0x0000
    4e8a:	0604                	.insn	2, 0x0604
    4e8c:	0606                	.insn	2, 0x0606
    4e8e:	0606                	.insn	2, 0x0606
    4e90:	0000                	.insn	2, 0x0000
    4e92:	0604                	.insn	2, 0x0604
    4e94:	0606                	.insn	2, 0x0606
    4e96:	0606                	.insn	2, 0x0606
    4e98:	0606                	.insn	2, 0x0606
    4e9a:	0606                	.insn	2, 0x0606
    4e9c:	0606                	.insn	2, 0x0606
    4e9e:	0406                	.insn	2, 0x0406
    4ea0:	0000                	.insn	2, 0x0000
    4ea2:	0000                	.insn	2, 0x0000
    4ea4:	0400                	.insn	2, 0x0400
    4ea6:	0606                	.insn	2, 0x0606
    4ea8:	0004                	.insn	2, 0x0004
	...
    4f02:	0306                	.insn	2, 0x0306
    4f04:	0406                	.insn	2, 0x0406
	...
    5bd2:	0000                	.insn	2, 0x0000
    5bd4:	1700                	.insn	2, 0x1700
    5bd6:	181e                	.insn	2, 0x181e
    5bd8:	221b1f13          	.insn	4, 0x221b1f13
    5bdc:	001d                	.insn	2, 0x001d
    5bde:	1400                	.insn	2, 0x1400
    5be0:	1010                	.insn	2, 0x1010
    5be2:	1010                	.insn	2, 0x1010
    5be4:	1010                	.insn	2, 0x1010
    5be6:	1010                	.insn	2, 0x1010
    5be8:	1010                	.insn	2, 0x1010
    5bea:	0015                	.insn	2, 0x0015
    5bec:	0000                	.insn	2, 0x0000
    5bee:	19101017          	auipc	zero,0x19101
    5bf2:	0000                	.insn	2, 0x0000
    5bf4:	0000                	.insn	2, 0x0000
    5bf6:	0000                	.insn	2, 0x0000
    5bf8:	10101023          	sh	ra,256(zero) # 100 <restore+0x38>
    5bfc:	2214                	.insn	2, 0x2214
    5bfe:	0016                	.insn	2, 0x0016
    5c00:	0000                	.insn	2, 0x0000
    5c02:	1e00                	.insn	2, 0x1e00
    5c04:	1010                	.insn	2, 0x1010
    5c06:	1010                	.insn	2, 0x1010
    5c08:	1010                	.insn	2, 0x1010
    5c0a:	1010                	.insn	2, 0x1010
    5c0c:	1010                	.insn	2, 0x1010
    5c0e:	0015                	.insn	2, 0x0015
	...
    5c18:	0000                	.insn	2, 0x0000
    5c1a:	131c140f          	.insn	4, 0x131c140f
    5c1e:	101f 0416 0000      	.insn	6, 0x0416101f
    5c24:	0000                	.insn	2, 0x0000
    5c26:	0000                	.insn	2, 0x0000
    5c28:	1500                	.insn	2, 0x1500
    5c2a:	1410                	.insn	2, 0x1410
    5c2c:	0000                	.insn	2, 0x0000
    5c2e:	0000                	.insn	2, 0x0000
    5c30:	0000                	.insn	2, 0x0000
    5c32:	1004                	.insn	2, 0x1004
    5c34:	0f10                	.insn	2, 0x0f10
    5c36:	0000                	.insn	2, 0x0000
    5c38:	0000                	.insn	2, 0x0000
    5c3a:	0000                	.insn	2, 0x0000
    5c3c:	1024                	.insn	2, 0x1024
    5c3e:	0010                	.insn	2, 0x0010
    5c40:	0000                	.insn	2, 0x0000
    5c42:	1004                	.insn	2, 0x1004
    5c44:	1010                	.insn	2, 0x1010
    5c46:	1010                	.insn	2, 0x1010
    5c48:	1010                	.insn	2, 0x1010
    5c4a:	1e10                	.insn	2, 0x1e10
	...
    5c74:	0515                	.insn	2, 0x0515
    5c76:	1805                	.insn	2, 0x1805
    5c78:	1010                	.insn	2, 0x1010
    5c7a:	15050513          	addi	a0,a0,336 # 7fc00150 <_stack_end+0x7faf6748>
    5c7e:	1c00                	.insn	2, 0x1c00
    5c80:	13131313          	.insn	4, 0x13131313
    5c84:	0505                	.insn	2, 0x0505
    5c86:	13131313          	.insn	4, 0x13131313
    5c8a:	0010                	.insn	2, 0x0010
    5c8c:	0000                	.insn	2, 0x0000
    5c8e:	0510                	.insn	2, 0x0510
    5c90:	1305                	.insn	2, 0x1305
    5c92:	0000                	.insn	2, 0x0000
    5c94:	0000                	.insn	2, 0x0000
    5c96:	0000                	.insn	2, 0x0000
    5c98:	0510                	.insn	2, 0x0510
    5c9a:	1312                	.insn	2, 0x1312
    5c9c:	05051213          	.insn	4, 0x05051213
    5ca0:	0016                	.insn	2, 0x0016
    5ca2:	1800                	.insn	2, 0x1800
    5ca4:	13131313          	.insn	4, 0x13131313
    5ca8:	0505                	.insn	2, 0x0505
    5caa:	13131313          	.insn	4, 0x13131313
    5cae:	0000001b          	.insn	4, 0x001b
    5cb2:	0000                	.insn	2, 0x0000
    5cb4:	0000                	.insn	2, 0x0000
    5cb6:	0000                	.insn	2, 0x0000
    5cb8:	121a                	.insn	2, 0x121a
    5cba:	1205                	.insn	2, 0x1205
    5cbc:	1410                	.insn	2, 0x1410
    5cbe:	0505131b          	.insn	4, 0x0505131b
    5cc2:	0000001b          	.insn	4, 0x001b
    5cc6:	0000                	.insn	2, 0x0000
    5cc8:	0520                	.insn	2, 0x0520
    5cca:	0505                	.insn	2, 0x0505
    5ccc:	001d                	.insn	2, 0x001d
    5cce:	0000                	.insn	2, 0x0000
    5cd0:	0000                	.insn	2, 0x0000
    5cd2:	0520                	.insn	2, 0x0520
    5cd4:	1105                	.insn	2, 0x1105
    5cd6:	0000                	.insn	2, 0x0000
    5cd8:	0000                	.insn	2, 0x0000
    5cda:	0400                	.insn	2, 0x0400
    5cdc:	0511                	.insn	2, 0x0511
    5cde:	0405                	.insn	2, 0x0405
    5ce0:	0000                	.insn	2, 0x0000
    5ce2:	051a                	.insn	2, 0x051a
    5ce4:	1311                	.insn	2, 0x1311
    5ce6:	13131313          	.insn	4, 0x13131313
    5cea:	00001813          	slli	a6,zero,0x0
	...
    5d12:	1900                	.insn	2, 0x1900
    5d14:	1305                	.insn	2, 0x1305
    5d16:	0000                	.insn	2, 0x0000
    5d18:	0000                	.insn	2, 0x0000
    5d1a:	0000                	.insn	2, 0x0000
    5d1c:	2415                	.insn	2, 0x2415
    5d1e:	0000                	.insn	2, 0x0000
    5d20:	0000                	.insn	2, 0x0000
    5d22:	0000                	.insn	2, 0x0000
    5d24:	1205                	.insn	2, 0x1205
	...
    5d2e:	1c05                	.insn	2, 0x1c05
    5d30:	0518                	.insn	2, 0x0518
    5d32:	001a                	.insn	2, 0x001a
    5d34:	0000                	.insn	2, 0x0000
    5d36:	0000                	.insn	2, 0x0000
    5d38:	0510                	.insn	2, 0x0510
    5d3a:	001d                	.insn	2, 0x001d
    5d3c:	0000                	.insn	2, 0x0000
    5d3e:	111a                	.insn	2, 0x111a
    5d40:	1705                	.insn	2, 0x1705
    5d42:	0000                	.insn	2, 0x0000
    5d44:	0000                	.insn	2, 0x0000
    5d46:	0000                	.insn	2, 0x0000
    5d48:	1105                	.insn	2, 0x1105
	...
    5d56:	1d00                	.insn	2, 0x1d00
    5d58:	1105                	.insn	2, 0x1105
    5d5a:	0019                	.insn	2, 0x0019
    5d5c:	0000                	.insn	2, 0x0000
    5d5e:	0000                	.insn	2, 0x0000
    5d60:	1404                	.insn	2, 0x1404
    5d62:	001f 0000 0000      	.insn	6, 0x001f
    5d68:	0514                	.insn	2, 0x0514
    5d6a:	0516                	.insn	2, 0x0516
    5d6c:	0000001b          	.insn	4, 0x001b
    5d70:	0000                	.insn	2, 0x0000
    5d72:	0520                	.insn	2, 0x0520
    5d74:	001e0513          	addi	a0,t3,1
    5d78:	0000                	.insn	2, 0x0000
    5d7a:	1400                	.insn	2, 0x1400
    5d7c:	1205                	.insn	2, 0x1205
    5d7e:	0405                	.insn	2, 0x0405
    5d80:	0000                	.insn	2, 0x0000
    5d82:	051a                	.insn	2, 0x051a
    5d84:	0000001b          	.insn	4, 0x001b
	...
    5db0:	0000                	.insn	2, 0x0000
    5db2:	1500                	.insn	2, 0x1500
    5db4:	1605                	.insn	2, 0x1605
	...
    5dc2:	0000                	.insn	2, 0x0000
    5dc4:	1205                	.insn	2, 0x1205
    5dc6:	0000                	.insn	2, 0x0000
    5dc8:	0000                	.insn	2, 0x0000
    5dca:	0000                	.insn	2, 0x0000
    5dcc:	1600                	.insn	2, 0x1600
    5dce:	0f05                	.insn	2, 0x0f05
    5dd0:	0519                	.insn	2, 0x0519
    5dd2:	0010                	.insn	2, 0x0010
    5dd4:	0000                	.insn	2, 0x0000
    5dd6:	0000                	.insn	2, 0x0000
    5dd8:	0510                	.insn	2, 0x0510
    5dda:	001d                	.insn	2, 0x001d
    5ddc:	0000                	.insn	2, 0x0000
    5dde:	1400                	.insn	2, 0x1400
    5de0:	2305                	.insn	2, 0x2305
    5de2:	0000                	.insn	2, 0x0000
    5de4:	0000                	.insn	2, 0x0000
    5de6:	0000                	.insn	2, 0x0000
    5de8:	1105                	.insn	2, 0x1105
	...
    5df6:	1200                	.insn	2, 0x1200
    5df8:	1d05                	.insn	2, 0x1d05
	...
    5e06:	0000                	.insn	2, 0x0000
    5e08:	1211                	.insn	2, 0x1211
    5e0a:	1300                	.insn	2, 0x1300
    5e0c:	0405                	.insn	2, 0x0405
    5e0e:	0000                	.insn	2, 0x0000
    5e10:	0000                	.insn	2, 0x0000
    5e12:	0520                	.insn	2, 0x0520
    5e14:	1b14                	.insn	2, 0x1b14
    5e16:	0405                	.insn	2, 0x0405
    5e18:	0000                	.insn	2, 0x0000
    5e1a:	0504                	.insn	2, 0x0504
    5e1c:	1f15                	.insn	2, 0x1f15
    5e1e:	0405                	.insn	2, 0x0405
    5e20:	0000                	.insn	2, 0x0000
    5e22:	051a                	.insn	2, 0x051a
    5e24:	0000001b          	.insn	4, 0x001b
	...
    5e50:	0000                	.insn	2, 0x0000
    5e52:	2400                	.insn	2, 0x2400
    5e54:	1305                	.insn	2, 0x1305
	...
    5e62:	0000                	.insn	2, 0x0000
    5e64:	1205                	.insn	2, 0x1205
    5e66:	0000                	.insn	2, 0x0000
    5e68:	0000                	.insn	2, 0x0000
    5e6a:	0000                	.insn	2, 0x0000
    5e6c:	1200                	.insn	2, 0x1200
    5e6e:	0011                	.insn	2, 0x0011
    5e70:	1200                	.insn	2, 0x1200
    5e72:	0005                	.insn	2, 0x0005
    5e74:	0000                	.insn	2, 0x0000
    5e76:	0000                	.insn	2, 0x0000
    5e78:	0510                	.insn	2, 0x0510
    5e7a:	001d                	.insn	2, 0x001d
    5e7c:	0000                	.insn	2, 0x0000
    5e7e:	1b00                	.insn	2, 0x1b00
    5e80:	1905                	.insn	2, 0x1905
    5e82:	0000                	.insn	2, 0x0000
    5e84:	0000                	.insn	2, 0x0000
    5e86:	0000                	.insn	2, 0x0000
    5e88:	1105                	.insn	2, 0x1105
	...
    5e96:	051d                	.insn	2, 0x051d
    5e98:	001f 0000 0000      	.insn	6, 0x001f
	...
    5ea6:	1600                	.insn	2, 0x1600
    5ea8:	1605                	.insn	2, 0x1605
    5eaa:	1600                	.insn	2, 0x1600
    5eac:	1505                	.insn	2, 0x1505
    5eae:	0000                	.insn	2, 0x0000
    5eb0:	0000                	.insn	2, 0x0000
    5eb2:	0520                	.insn	2, 0x0520
    5eb4:	2014                	.insn	2, 0x2014
    5eb6:	1005                	.insn	2, 0x1005
    5eb8:	0000                	.insn	2, 0x0000
    5eba:	1110                	.insn	2, 0x1110
    5ebc:	1f00                	.insn	2, 0x1f00
    5ebe:	0405                	.insn	2, 0x0405
    5ec0:	0000                	.insn	2, 0x0000
    5ec2:	051a                	.insn	2, 0x051a
    5ec4:	0000001b          	.insn	4, 0x001b
	...
    5ef4:	1f050513          	addi	a0,a0,496
    5ef8:	1614                	.insn	2, 0x1614
    5efa:	001a                	.insn	2, 0x001a
	...
    5f04:	1205                	.insn	2, 0x1205
    5f06:	0000                	.insn	2, 0x0000
    5f08:	0000                	.insn	2, 0x0000
    5f0a:	0000                	.insn	2, 0x0000
    5f0c:	0519                	.insn	2, 0x0519
    5f0e:	0022                	.insn	2, 0x0022
    5f10:	1600                	.insn	2, 0x1600
    5f12:	1505                	.insn	2, 0x1505
    5f14:	0000                	.insn	2, 0x0000
    5f16:	0000                	.insn	2, 0x0000
    5f18:	0510                	.insn	2, 0x0510
    5f1a:	001d                	.insn	2, 0x001d
    5f1c:	0000                	.insn	2, 0x0000
    5f1e:	0012050f          	.insn	4, 0x0012050f
    5f22:	0000                	.insn	2, 0x0000
    5f24:	0000                	.insn	2, 0x0000
    5f26:	0000                	.insn	2, 0x0000
    5f28:	1105                	.insn	2, 0x1105
	...
    5f36:	0516                	.insn	2, 0x0516
    5f38:	0015                	.insn	2, 0x0015
	...
    5f46:	1300                	.insn	2, 0x1300
    5f48:	0011                	.insn	2, 0x0011
    5f4a:	0000                	.insn	2, 0x0000
    5f4c:	1111                	.insn	2, 0x1111
    5f4e:	0000                	.insn	2, 0x0000
    5f50:	0000                	.insn	2, 0x0000
    5f52:	0520                	.insn	2, 0x0520
    5f54:	0014                	.insn	2, 0x0014
    5f56:	0514                	.insn	2, 0x0514
    5f58:	171a                	.insn	2, 0x171a
    5f5a:	1605                	.insn	2, 0x1605
    5f5c:	1f00                	.insn	2, 0x1f00
    5f5e:	0405                	.insn	2, 0x0405
    5f60:	0000                	.insn	2, 0x0000
    5f62:	051a                	.insn	2, 0x051a
    5f64:	1105                	.insn	2, 0x1105
    5f66:	1111                	.insn	2, 0x1111
    5f68:	1111                	.insn	2, 0x1111
    5f6a:	1311                	.insn	2, 0x1311
	...
    5f94:	1600                	.insn	2, 0x1600
    5f96:	111f 0505 1105      	.insn	6, 0x11050505111f
    5f9c:	001e                	.insn	2, 0x001e
    5f9e:	0000                	.insn	2, 0x0000
    5fa0:	0000                	.insn	2, 0x0000
    5fa2:	0000                	.insn	2, 0x0000
    5fa4:	1205                	.insn	2, 0x1205
    5fa6:	0000                	.insn	2, 0x0000
    5fa8:	0000                	.insn	2, 0x0000
    5faa:	0000                	.insn	2, 0x0000
    5fac:	0518                	.insn	2, 0x0518
    5fae:	0004                	.insn	2, 0x0004
    5fb0:	0000                	.insn	2, 0x0000
    5fb2:	1205                	.insn	2, 0x1205
    5fb4:	0000                	.insn	2, 0x0000
    5fb6:	0000                	.insn	2, 0x0000
    5fb8:	0510                	.insn	2, 0x0510
    5fba:	11131c13          	.insn	4, 0x11131c13
    5fbe:	1805                	.insn	2, 0x1805
    5fc0:	0004                	.insn	2, 0x0004
    5fc2:	0000                	.insn	2, 0x0000
    5fc4:	0000                	.insn	2, 0x0000
    5fc6:	0000                	.insn	2, 0x0000
    5fc8:	1105                	.insn	2, 0x1105
	...
    5fd6:	0515                	.insn	2, 0x0515
    5fd8:	0016                	.insn	2, 0x0016
    5fda:	0000                	.insn	2, 0x0000
    5fdc:	1500                	.insn	2, 0x1500
    5fde:	1818                	.insn	2, 0x1818
    5fe0:	1818                	.insn	2, 0x1818
    5fe2:	0022                	.insn	2, 0x0022
    5fe4:	0000                	.insn	2, 0x0000
    5fe6:	051a                	.insn	2, 0x051a
    5fe8:	0014                	.insn	2, 0x0014
    5fea:	0000                	.insn	2, 0x0000
    5fec:	0514                	.insn	2, 0x0514
    5fee:	0000000f          	fence	unknown,unknown
    5ff2:	0520                	.insn	2, 0x0520
    5ff4:	0014                	.insn	2, 0x0014
    5ff6:	1104                	.insn	2, 0x1104
    5ff8:	181f 0012 1f00      	.insn	6, 0x1f000012181f
    5ffe:	0405                	.insn	2, 0x0405
    6000:	0000                	.insn	2, 0x0000
    6002:	051a                	.insn	2, 0x051a
    6004:	1512                	.insn	2, 0x1512
    6006:	1515                	.insn	2, 0x1515
    6008:	1515                	.insn	2, 0x1515
    600a:	1615                	.insn	2, 0x1615
	...
    6038:	1904                	.insn	2, 0x1904
    603a:	1215                	.insn	2, 0x1215
    603c:	1005                	.insn	2, 0x1005
    603e:	0000                	.insn	2, 0x0000
    6040:	0000                	.insn	2, 0x0000
    6042:	0000                	.insn	2, 0x0000
    6044:	1205                	.insn	2, 0x1205
    6046:	0000                	.insn	2, 0x0000
    6048:	0000                	.insn	2, 0x0000
    604a:	0400                	.insn	2, 0x0400
    604c:	1205                	.insn	2, 0x1205
    604e:	0f0f0f0f          	.insn	4, 0x0f0f0f0f
    6052:	00190513          	addi	a0,s2,1
    6056:	0000                	.insn	2, 0x0000
    6058:	0510                	.insn	2, 0x0510
    605a:	1018                	.insn	2, 0x1018
    605c:	0510                	.insn	2, 0x0510
    605e:	0411                	.insn	2, 0x0411
	...
    6068:	1105                	.insn	2, 0x1105
	...
    6076:	0516                	.insn	2, 0x0516
    6078:	0014                	.insn	2, 0x0014
    607a:	0000                	.insn	2, 0x0000
    607c:	1400                	.insn	2, 0x1400
    607e:	1c1c                	.insn	2, 0x1c1c
    6080:	051c                	.insn	2, 0x051c
    6082:	001c                	.insn	2, 0x001c
    6084:	0000                	.insn	2, 0x0000
    6086:	0f15051b          	.insn	4, 0x0f15051b
    608a:	05150f0f          	.insn	4, 0x05150f0f
    608e:	00000013          	nop
    6092:	0520                	.insn	2, 0x0520
    6094:	0014                	.insn	2, 0x0014
    6096:	1500                	.insn	2, 0x1500
    6098:	0505                	.insn	2, 0x0505
    609a:	1f00000f          	.insn	4, 0x1f00000f
    609e:	0405                	.insn	2, 0x0405
    60a0:	0000                	.insn	2, 0x0000
    60a2:	051a                	.insn	2, 0x051a
    60a4:	0000001b          	.insn	4, 0x001b
	...
    60d8:	0000                	.insn	2, 0x0000
    60da:	0400                	.insn	2, 0x0400
    60dc:	1105                	.insn	2, 0x1105
    60de:	0000                	.insn	2, 0x0000
    60e0:	0000                	.insn	2, 0x0000
    60e2:	0000                	.insn	2, 0x0000
    60e4:	1205                	.insn	2, 0x1205
    60e6:	0000                	.insn	2, 0x0000
    60e8:	0000                	.insn	2, 0x0000
    60ea:	1400                	.insn	2, 0x1400
    60ec:	0505                	.insn	2, 0x0505
    60ee:	0505                	.insn	2, 0x0505
    60f0:	0505                	.insn	2, 0x0505
    60f2:	0505                	.insn	2, 0x0505
    60f4:	001f 0000 0510      	.insn	6, 0x05100000001f
    60fa:	001d                	.insn	2, 0x001d
    60fc:	0f00                	.insn	2, 0x0f00
    60fe:	1205                	.insn	2, 0x1205
    6100:	0004                	.insn	2, 0x0004
    6102:	0000                	.insn	2, 0x0000
    6104:	0000                	.insn	2, 0x0000
    6106:	0000                	.insn	2, 0x0000
    6108:	1105                	.insn	2, 0x1105
	...
    6116:	00120517          	auipc	a0,0x120
    611a:	0000                	.insn	2, 0x0000
    611c:	0000                	.insn	2, 0x0000
    611e:	0000                	.insn	2, 0x0000
    6120:	0500                	.insn	2, 0x0500
    6122:	001c                	.insn	2, 0x001c
    6124:	0400                	.insn	2, 0x0400
    6126:	0505                	.insn	2, 0x0505
    6128:	0505                	.insn	2, 0x0505
    612a:	0505                	.insn	2, 0x0505
    612c:	0505                	.insn	2, 0x0505
    612e:	1a05                	.insn	2, 0x1a05
    6130:	0000                	.insn	2, 0x0000
    6132:	0520                	.insn	2, 0x0520
    6134:	0014                	.insn	2, 0x0014
    6136:	0000                	.insn	2, 0x0000
    6138:	1311                	.insn	2, 0x1311
    613a:	0000                	.insn	2, 0x0000
    613c:	1f00                	.insn	2, 0x1f00
    613e:	0405                	.insn	2, 0x0405
    6140:	0000                	.insn	2, 0x0000
    6142:	051a                	.insn	2, 0x051a
    6144:	0000001b          	.insn	4, 0x001b
	...
    6170:	0000                	.insn	2, 0x0000
    6172:	1700                	.insn	2, 0x1700
	...
    617c:	1105                	.insn	2, 0x1105
    617e:	0000                	.insn	2, 0x0000
    6180:	0000                	.insn	2, 0x0000
    6182:	0000                	.insn	2, 0x0000
    6184:	1205                	.insn	2, 0x1205
    6186:	0000                	.insn	2, 0x0000
    6188:	0000                	.insn	2, 0x0000
    618a:	1100                	.insn	2, 0x1100
    618c:	0012                	.insn	2, 0x0012
    618e:	0000                	.insn	2, 0x0000
    6190:	0000                	.insn	2, 0x0000
    6192:	1300                	.insn	2, 0x1300
    6194:	2005                	.insn	2, 0x2005
    6196:	0000                	.insn	2, 0x0000
    6198:	0510                	.insn	2, 0x0510
    619a:	001d                	.insn	2, 0x001d
    619c:	0000                	.insn	2, 0x0000
    619e:	0524                	.insn	2, 0x0524
    61a0:	0412                	.insn	2, 0x0412
    61a2:	0000                	.insn	2, 0x0000
    61a4:	0000                	.insn	2, 0x0000
    61a6:	0000                	.insn	2, 0x0000
    61a8:	1105                	.insn	2, 0x1105
	...
    61b6:	1c00                	.insn	2, 0x1c00
    61b8:	1505                	.insn	2, 0x1505
    61ba:	0000                	.insn	2, 0x0000
    61bc:	0000                	.insn	2, 0x0000
    61be:	0000                	.insn	2, 0x0000
    61c0:	0500                	.insn	2, 0x0500
    61c2:	001c                	.insn	2, 0x001c
    61c4:	1500                	.insn	2, 0x1500
    61c6:	0f05                	.insn	2, 0x0f05
    61c8:	0000                	.insn	2, 0x0000
    61ca:	0000                	.insn	2, 0x0000
    61cc:	0f00                	.insn	2, 0x0f00
    61ce:	1005                	.insn	2, 0x1005
    61d0:	0000                	.insn	2, 0x0000
    61d2:	0520                	.insn	2, 0x0520
    61d4:	0014                	.insn	2, 0x0014
    61d6:	0000                	.insn	2, 0x0000
    61d8:	0000                	.insn	2, 0x0000
    61da:	0000                	.insn	2, 0x0000
    61dc:	1f00                	.insn	2, 0x1f00
    61de:	0405                	.insn	2, 0x0405
    61e0:	0000                	.insn	2, 0x0000
    61e2:	051a                	.insn	2, 0x051a
    61e4:	0000001b          	.insn	4, 0x001b
	...
    6210:	0000                	.insn	2, 0x0000
    6212:	1000                	.insn	2, 0x1000
    6214:	1612                	.insn	2, 0x1612
    6216:	0004                	.insn	2, 0x0004
    6218:	0000                	.insn	2, 0x0000
    621a:	15051817          	auipc	a6,0x15051
    621e:	0000                	.insn	2, 0x0000
    6220:	0000                	.insn	2, 0x0000
    6222:	0000                	.insn	2, 0x0000
    6224:	1205                	.insn	2, 0x1205
    6226:	0000                	.insn	2, 0x0000
    6228:	0000                	.insn	2, 0x0000
    622a:	00150523          	sb	ra,10(a0) # 126120 <_stack_end+0x1c718>
    622e:	0000                	.insn	2, 0x0000
    6230:	0000                	.insn	2, 0x0000
    6232:	1600                	.insn	2, 0x1600
    6234:	1405                	.insn	2, 0x1405
    6236:	0000                	.insn	2, 0x0000
    6238:	0510                	.insn	2, 0x0510
    623a:	001d                	.insn	2, 0x001d
    623c:	0000                	.insn	2, 0x0000
    623e:	1600                	.insn	2, 0x1600
    6240:	1205                	.insn	2, 0x1205
    6242:	0004                	.insn	2, 0x0004
    6244:	0000                	.insn	2, 0x0000
    6246:	0000                	.insn	2, 0x0000
    6248:	1105                	.insn	2, 0x1105
	...
    6256:	2000                	.insn	2, 0x2000
    6258:	0511                	.insn	2, 0x0511
    625a:	1710                	.insn	2, 0x1710
    625c:	0000                	.insn	2, 0x0000
    625e:	0000                	.insn	2, 0x0000
    6260:	0519                	.insn	2, 0x0519
    6262:	001c                	.insn	2, 0x001c
    6264:	1100                	.insn	2, 0x1100
    6266:	0011                	.insn	2, 0x0011
    6268:	0000                	.insn	2, 0x0000
    626a:	0000                	.insn	2, 0x0000
    626c:	0000                	.insn	2, 0x0000
    626e:	0511                	.insn	2, 0x0511
    6270:	0000                	.insn	2, 0x0000
    6272:	0520                	.insn	2, 0x0520
    6274:	0014                	.insn	2, 0x0014
    6276:	0000                	.insn	2, 0x0000
    6278:	0000                	.insn	2, 0x0000
    627a:	0000                	.insn	2, 0x0000
    627c:	1f00                	.insn	2, 0x1f00
    627e:	0405                	.insn	2, 0x0405
    6280:	0000                	.insn	2, 0x0000
    6282:	051a                	.insn	2, 0x051a
    6284:	0000001b          	.insn	4, 0x001b
	...
    62b0:	0000                	.insn	2, 0x0000
    62b2:	1600                	.insn	2, 0x1600
    62b4:	0511                	.insn	2, 0x0511
    62b6:	1105                	.insn	2, 0x1105
    62b8:	1112                	.insn	2, 0x1112
    62ba:	0505                	.insn	2, 0x0505
    62bc:	0015                	.insn	2, 0x0015
    62be:	0000                	.insn	2, 0x0000
    62c0:	0000                	.insn	2, 0x0000
    62c2:	0000                	.insn	2, 0x0000
    62c4:	1205                	.insn	2, 0x1205
    62c6:	0000                	.insn	2, 0x0000
    62c8:	0000                	.insn	2, 0x0000
    62ca:	00040513          	mv	a0,s0
    62ce:	0000                	.insn	2, 0x0000
    62d0:	0000                	.insn	2, 0x0000
    62d2:	0000                	.insn	2, 0x0000
    62d4:	1111                	.insn	2, 0x1111
    62d6:	0000                	.insn	2, 0x0000
    62d8:	0510                	.insn	2, 0x0510
    62da:	001d                	.insn	2, 0x001d
    62dc:	0000                	.insn	2, 0x0000
    62de:	0000                	.insn	2, 0x0000
    62e0:	0516                	.insn	2, 0x0516
    62e2:	0412                	.insn	2, 0x0412
    62e4:	0000                	.insn	2, 0x0000
    62e6:	0000                	.insn	2, 0x0000
    62e8:	1105                	.insn	2, 0x1105
	...
    62f6:	0000                	.insn	2, 0x0000
    62f8:	1b04                	.insn	2, 0x1b04
    62fa:	0505                	.insn	2, 0x0505
    62fc:	1211                	.insn	2, 0x1211
    62fe:	0511                	.insn	2, 0x0511
    6300:	1205                	.insn	2, 0x1205
    6302:	0016                	.insn	2, 0x0016
    6304:	0014050f          	.insn	4, 0x0014050f
    6308:	0000                	.insn	2, 0x0000
    630a:	0000                	.insn	2, 0x0000
    630c:	0000                	.insn	2, 0x0000
    630e:	0522                	.insn	2, 0x0522
    6310:	0016                	.insn	2, 0x0016
    6312:	0520                	.insn	2, 0x0520
    6314:	0014                	.insn	2, 0x0014
    6316:	0000                	.insn	2, 0x0000
    6318:	0000                	.insn	2, 0x0000
    631a:	0000                	.insn	2, 0x0000
    631c:	1f00                	.insn	2, 0x1f00
    631e:	0405                	.insn	2, 0x0405
    6320:	0000                	.insn	2, 0x0000
    6322:	051a                	.insn	2, 0x051a
    6324:	0505                	.insn	2, 0x0505
    6326:	0505                	.insn	2, 0x0505
    6328:	0505                	.insn	2, 0x0505
    632a:	1205                	.insn	2, 0x1205
	...
    6354:	1a00                	.insn	2, 0x1a00
    6356:	15141523          	sh	a7,330(s0)
    635a:	0000000f          	fence	unknown,unknown
    635e:	0000                	.insn	2, 0x0000
    6360:	0000                	.insn	2, 0x0000
    6362:	0000                	.insn	2, 0x0000
    6364:	0000190f          	.insn	4, 0x190f
    6368:	0000                	.insn	2, 0x0000
    636a:	0000190f          	.insn	4, 0x190f
    636e:	0000                	.insn	2, 0x0000
    6370:	0000                	.insn	2, 0x0000
    6372:	0000                	.insn	2, 0x0000
    6374:	0f1d                	.insn	2, 0x0f1d
    6376:	0004                	.insn	2, 0x0004
    6378:	0f1a                	.insn	2, 0x0f1a
    637a:	0004                	.insn	2, 0x0004
    637c:	0000                	.insn	2, 0x0000
    637e:	0000                	.insn	2, 0x0000
    6380:	1900                	.insn	2, 0x1900
    6382:	00001a0f          	.insn	4, 0x1a0f
    6386:	0000                	.insn	2, 0x0000
    6388:	00000f0f          	.insn	4, 0x0f0f
	...
    6398:	0000                	.insn	2, 0x0000
    639a:	0f04                	.insn	2, 0x0f04
    639c:	1415                	.insn	2, 0x1415
    639e:	1622                	.insn	2, 0x1622
    63a0:	00000017          	auipc	zero,0x0
    63a4:	0f1a                	.insn	2, 0x0f1a
    63a6:	0004                	.insn	2, 0x0004
    63a8:	0000                	.insn	2, 0x0000
    63aa:	0000                	.insn	2, 0x0000
    63ac:	0000                	.insn	2, 0x0000
    63ae:	0f04                	.insn	2, 0x0f04
    63b0:	001d                	.insn	2, 0x001d
    63b2:	0f00                	.insn	2, 0x0f00
    63b4:	001a                	.insn	2, 0x001a
    63b6:	0000                	.insn	2, 0x0000
    63b8:	0000                	.insn	2, 0x0000
    63ba:	0000                	.insn	2, 0x0000
    63bc:	1d00                	.insn	2, 0x1d00
    63be:	0000000f          	fence	unknown,unknown
    63c2:	0f00                	.insn	2, 0x0f00
    63c4:	0f0f0f0f          	.insn	4, 0x0f0f0f0f
    63c8:	190f0f0f          	.insn	4, 0x190f0f0f
	...
    7574:	0000190f          	.insn	4, 0x190f
    7578:	0000                	.insn	2, 0x0000
    757a:	0000                	.insn	2, 0x0000
    757c:	0f04                	.insn	2, 0x0f04
    757e:	20000017          	auipc	zero,0x20000
    7582:	0f0f0f0f          	.insn	4, 0x0f0f0f0f
    7586:	0000000f          	fence	unknown,unknown
    758a:	0000                	.insn	2, 0x0000
    758c:	0400                	.insn	2, 0x0400
    758e:	1514150f          	.insn	4, 0x1514150f
    7592:	0000200f          	.insn	4, 0x200f
    7596:	0000                	.insn	2, 0x0000
    7598:	0f00                	.insn	2, 0x0f00
    759a:	001d                	.insn	2, 0x001d
    759c:	0000                	.insn	2, 0x0000
    759e:	0000                	.insn	2, 0x0000
    75a0:	1700                	.insn	2, 0x1700
    75a2:	0000040f          	.insn	4, 0x040f
	...
    75ae:	0000                	.insn	2, 0x0000
    75b0:	161e150f          	.insn	4, 0x161e150f
    75b4:	1724                	.insn	2, 0x1724
	...
    75be:	1514150f          	.insn	4, 0x1514150f
    75c2:	0000040f          	.insn	4, 0x040f
    75c6:	0000                	.insn	2, 0x0000
    75c8:	0000                	.insn	2, 0x0000
    75ca:	0f00                	.insn	2, 0x0f00
    75cc:	1422                	.insn	2, 0x1422
    75ce:	0f15                	.insn	2, 0x0f15
    75d0:	0000                	.insn	2, 0x0000
    75d2:	0000                	.insn	2, 0x0000
    75d4:	0000                	.insn	2, 0x0000
    75d6:	0f04                	.insn	2, 0x0f04
    75d8:	190f0f0f          	.insn	4, 0x190f0f0f
    75dc:	00000017          	auipc	zero,0x0
    75e0:	0000                	.insn	2, 0x0000
    75e2:	0000                	.insn	2, 0x0000
    75e4:	0f0f0f0f          	.insn	4, 0x0f0f0f0f
    75e8:	0f0f0f0f          	.insn	4, 0x0f0f0f0f
    75ec:	0000000f          	fence	unknown,unknown
	...
    7614:	1205                	.insn	2, 0x1205
    7616:	0000                	.insn	2, 0x0000
    7618:	0000                	.insn	2, 0x0000
    761a:	0000                	.insn	2, 0x0000
    761c:	001e050f          	.insn	4, 0x001e050f
    7620:	0f00                	.insn	2, 0x0f00
    7622:	1112                	.insn	2, 0x1112
    7624:	1105                	.insn	2, 0x1105
    7626:	0012                	.insn	2, 0x0012
    7628:	0000                	.insn	2, 0x0000
    762a:	0400                	.insn	2, 0x0400
    762c:	0518                	.insn	2, 0x0518
    762e:	1205                	.insn	2, 0x1205
    7630:	1112                	.insn	2, 0x1112
    7632:	0505                	.insn	2, 0x0505
    7634:	2412                	.insn	2, 0x2412
    7636:	0000                	.insn	2, 0x0000
    7638:	001b0517          	auipc	a0,0x1b0
    763c:	0000                	.insn	2, 0x0000
    763e:	0000                	.insn	2, 0x0000
    7640:	1500                	.insn	2, 0x1500
    7642:	0f05                	.insn	2, 0x0f05
	...
    764c:	0000                	.insn	2, 0x0000
    764e:	0515                	.insn	2, 0x0515
    7650:	1105                	.insn	2, 0x1105
    7652:	1112                	.insn	2, 0x1112
    7654:	0505                	.insn	2, 0x0505
    7656:	0411                	.insn	2, 0x0411
    7658:	0000                	.insn	2, 0x0000
    765a:	0000                	.insn	2, 0x0000
    765c:	051e                	.insn	2, 0x051e
    765e:	1105                	.insn	2, 0x1105
    7660:	1112                	.insn	2, 0x1112
    7662:	0505                	.insn	2, 0x0505
    7664:	041c                	.insn	2, 0x041c
    7666:	0000                	.insn	2, 0x0000
    7668:	1e00                	.insn	2, 0x1e00
    766a:	0505                	.insn	2, 0x0505
    766c:	1211                	.insn	2, 0x1211
    766e:	0511                	.insn	2, 0x0511
    7670:	2311                	.insn	2, 0x2311
    7672:	0000                	.insn	2, 0x0000
    7674:	0000                	.insn	2, 0x0000
    7676:	0505050f          	.insn	4, 0x0505050f
    767a:	0505                	.insn	2, 0x0505
    767c:	1105                	.insn	2, 0x1105
    767e:	0016                	.insn	2, 0x0016
    7680:	0000                	.insn	2, 0x0000
    7682:	1700                	.insn	2, 0x1700
    7684:	0505                	.insn	2, 0x0505
    7686:	0505                	.insn	2, 0x0505
    7688:	0505                	.insn	2, 0x0505
    768a:	0505                	.insn	2, 0x0505
    768c:	0011                	.insn	2, 0x0011
	...
    76b2:	0000                	.insn	2, 0x0000
    76b4:	1205                	.insn	2, 0x1205
    76b6:	0000                	.insn	2, 0x0000
    76b8:	0000                	.insn	2, 0x0000
    76ba:	0000                	.insn	2, 0x0000
    76bc:	001e050f          	.insn	4, 0x001e050f
    76c0:	0000                	.insn	2, 0x0000
    76c2:	1400                	.insn	2, 0x1400
    76c4:	1905                	.insn	2, 0x1905
    76c6:	0000                	.insn	2, 0x0000
    76c8:	0000                	.insn	2, 0x0000
    76ca:	15051117          	auipc	sp,0x15051
    76ce:	0000                	.insn	2, 0x0000
    76d0:	0000                	.insn	2, 0x0000
    76d2:	1604                	.insn	2, 0x1604
    76d4:	1012                	.insn	2, 0x1012
    76d6:	0000                	.insn	2, 0x0000
    76d8:	001b0517          	auipc	a0,0x1b0
    76dc:	0000                	.insn	2, 0x0000
    76de:	0000                	.insn	2, 0x0000
    76e0:	1500                	.insn	2, 0x1500
    76e2:	0f05                	.insn	2, 0x0f05
	...
    76ec:	1600                	.insn	2, 0x1600
    76ee:	1c05                	.insn	2, 0x1c05
    76f0:	00000017          	auipc	zero,0x0
    76f4:	1604                	.insn	2, 0x1604
    76f6:	0412                	.insn	2, 0x0412
    76f8:	0000                	.insn	2, 0x0000
    76fa:	1f00                	.insn	2, 0x1f00
    76fc:	1805                	.insn	2, 0x1805
    76fe:	00000017          	auipc	zero,0x0
    7702:	1504                	.insn	2, 0x1504
    7704:	1d11                	.insn	2, 0x1d11
    7706:	0000                	.insn	2, 0x0000
    7708:	0510                	.insn	2, 0x0510
    770a:	171f 0000 1d00      	.insn	6, 0x1d000000171f
    7710:	0512                	.insn	2, 0x0512
    7712:	0016                	.insn	2, 0x0016
    7714:	0000                	.insn	2, 0x0000
    7716:	0014050f          	.insn	4, 0x0014050f
    771a:	0400                	.insn	2, 0x0400
    771c:	0f05110f          	.insn	4, 0x0f05110f
    7720:	0000                	.insn	2, 0x0000
    7722:	1700                	.insn	2, 0x1700
    7724:	1805                	.insn	2, 0x1805
	...
    7752:	0000                	.insn	2, 0x0000
    7754:	1205                	.insn	2, 0x1205
    7756:	0000                	.insn	2, 0x0000
    7758:	0000                	.insn	2, 0x0000
    775a:	0000                	.insn	2, 0x0000
    775c:	001e050f          	.insn	4, 0x001e050f
    7760:	0000                	.insn	2, 0x0000
    7762:	1400                	.insn	2, 0x1400
    7764:	1905                	.insn	2, 0x1905
    7766:	0000                	.insn	2, 0x0000
    7768:	0000                	.insn	2, 0x0000
    776a:	0512                	.insn	2, 0x0512
    776c:	0000000f          	fence	unknown,unknown
    7770:	0000                	.insn	2, 0x0000
    7772:	0000                	.insn	2, 0x0000
    7774:	1a00                	.insn	2, 0x1a00
    7776:	0000                	.insn	2, 0x0000
    7778:	001b0517          	auipc	a0,0x1b0
    777c:	0000                	.insn	2, 0x0000
    777e:	0000                	.insn	2, 0x0000
    7780:	1500                	.insn	2, 0x1500
    7782:	0f05                	.insn	2, 0x0f05
	...
    778c:	1300                	.insn	2, 0x1300
    778e:	2005                	.insn	2, 0x2005
	...
    7798:	0000                	.insn	2, 0x0000
    779a:	0516                	.insn	2, 0x0516
    779c:	0018                	.insn	2, 0x0018
    779e:	0000                	.insn	2, 0x0000
    77a0:	0000                	.insn	2, 0x0000
    77a2:	0000                	.insn	2, 0x0000
    77a4:	0404                	.insn	2, 0x0404
    77a6:	1900                	.insn	2, 0x1900
    77a8:	1305                	.insn	2, 0x1305
    77aa:	0000                	.insn	2, 0x0000
    77ac:	0000                	.insn	2, 0x0000
    77ae:	0000                	.insn	2, 0x0000
    77b0:	1104                	.insn	2, 0x1104
    77b2:	0405                	.insn	2, 0x0405
    77b4:	0000                	.insn	2, 0x0000
    77b6:	001e050f          	.insn	4, 0x001e050f
    77ba:	0000                	.insn	2, 0x0000
    77bc:	0f00                	.insn	2, 0x0f00
    77be:	1b05                	.insn	2, 0x1b05
    77c0:	0000                	.insn	2, 0x0000
    77c2:	1700                	.insn	2, 0x1700
    77c4:	1805                	.insn	2, 0x1805
	...
    77f2:	0000                	.insn	2, 0x0000
    77f4:	1205                	.insn	2, 0x1205
    77f6:	0000                	.insn	2, 0x0000
    77f8:	0000                	.insn	2, 0x0000
    77fa:	0000                	.insn	2, 0x0000
    77fc:	001e050f          	.insn	4, 0x001e050f
    7800:	0000                	.insn	2, 0x0000
    7802:	1400                	.insn	2, 0x1400
    7804:	1905                	.insn	2, 0x1905
    7806:	0000                	.insn	2, 0x0000
    7808:	1900                	.insn	2, 0x1900
    780a:	1805                	.insn	2, 0x1805
	...
    7818:	001b0517          	auipc	a0,0x1b0
    781c:	0000                	.insn	2, 0x0000
    781e:	0000                	.insn	2, 0x0000
    7820:	1500                	.insn	2, 0x1500
    7822:	0f05                	.insn	2, 0x0f05
	...
    782c:	1c00                	.insn	2, 0x1c00
    782e:	1905                	.insn	2, 0x1905
	...
    7838:	0000                	.insn	2, 0x0000
    783a:	0512                	.insn	2, 0x0512
    783c:	0004                	.insn	2, 0x0004
	...
    7846:	1800                	.insn	2, 0x1800
    7848:	1905                	.insn	2, 0x1905
    784a:	0000                	.insn	2, 0x0000
    784c:	0000                	.insn	2, 0x0000
    784e:	0000                	.insn	2, 0x0000
    7850:	1500                	.insn	2, 0x1500
    7852:	1505                	.insn	2, 0x1505
    7854:	0000                	.insn	2, 0x0000
    7856:	001e050f          	.insn	4, 0x001e050f
    785a:	0000                	.insn	2, 0x0000
    785c:	0f00                	.insn	2, 0x0f00
    785e:	1005                	.insn	2, 0x1005
    7860:	0000                	.insn	2, 0x0000
    7862:	1700                	.insn	2, 0x1700
    7864:	1805                	.insn	2, 0x1805
	...
    7892:	0000                	.insn	2, 0x0000
    7894:	1105                	.insn	2, 0x1105
    7896:	1818                	.insn	2, 0x1818
    7898:	1818                	.insn	2, 0x1818
    789a:	1818                	.insn	2, 0x1818
    789c:	001e0513          	addi	a0,t3,1
    78a0:	0000                	.insn	2, 0x0000
    78a2:	1400                	.insn	2, 0x1400
    78a4:	1905                	.insn	2, 0x1905
    78a6:	0000                	.insn	2, 0x0000
    78a8:	1e00                	.insn	2, 0x1e00
    78aa:	1605                	.insn	2, 0x1605
	...
    78b8:	18110517          	auipc	a0,0x18110
    78bc:	1818                	.insn	2, 0x1818
    78be:	1818                	.insn	2, 0x1818
    78c0:	1218                	.insn	2, 0x1218
    78c2:	0f05                	.insn	2, 0x0f05
	...
    78cc:	0f00                	.insn	2, 0x0f00
    78ce:	0505                	.insn	2, 0x0505
    78d0:	001d161b          	.insn	4, 0x001d161b
    78d4:	0000                	.insn	2, 0x0000
    78d6:	0000                	.insn	2, 0x0000
    78d8:	0400                	.insn	2, 0x0400
    78da:	1205                	.insn	2, 0x1205
	...
    78e4:	0000                	.insn	2, 0x0000
    78e6:	1100                	.insn	2, 0x1100
    78e8:	0005                	.insn	2, 0x0005
    78ea:	0000                	.insn	2, 0x0000
    78ec:	0000                	.insn	2, 0x0000
    78ee:	0000                	.insn	2, 0x0000
    78f0:	1a00                	.insn	2, 0x1a00
    78f2:	1805                	.insn	2, 0x1805
    78f4:	0000                	.insn	2, 0x0000
    78f6:	001e050f          	.insn	4, 0x001e050f
    78fa:	0000                	.insn	2, 0x0000
    78fc:	1800                	.insn	2, 0x1800
    78fe:	1905                	.insn	2, 0x1905
    7900:	0000                	.insn	2, 0x0000
    7902:	1700                	.insn	2, 0x1700
    7904:	1105                	.insn	2, 0x1105
    7906:	1818                	.insn	2, 0x1818
    7908:	1818                	.insn	2, 0x1818
    790a:	1818                	.insn	2, 0x1818
    790c:	0010                	.insn	2, 0x0010
	...
    7932:	0000                	.insn	2, 0x0000
    7934:	0505                	.insn	2, 0x0505
    7936:	1c1c                	.insn	2, 0x1c1c
    7938:	1c1c                	.insn	2, 0x1c1c
    793a:	1c1c                	.insn	2, 0x1c1c
    793c:	0512                	.insn	2, 0x0512
    793e:	001e                	.insn	2, 0x001e
    7940:	0000                	.insn	2, 0x0000
    7942:	1400                	.insn	2, 0x1400
    7944:	1905                	.insn	2, 0x1905
    7946:	0000                	.insn	2, 0x0000
    7948:	1000                	.insn	2, 0x1000
    794a:	0f05                	.insn	2, 0x0f05
    794c:	0000                	.insn	2, 0x0000
    794e:	0000                	.insn	2, 0x0000
    7950:	1616160f          	.insn	4, 0x1616160f
    7954:	1916                	.insn	2, 0x1916
    7956:	0000                	.insn	2, 0x0000
    7958:	1c110517          	auipc	a0,0x1c110
    795c:	1c1c                	.insn	2, 0x1c1c
    795e:	1c1c                	.insn	2, 0x1c1c
    7960:	121c                	.insn	2, 0x121c
    7962:	0f05                	.insn	2, 0x0f05
	...
    796c:	0000                	.insn	2, 0x0000
    796e:	1319                	.insn	2, 0x1319
    7970:	0505                	.insn	2, 0x0505
    7972:	0505                	.insn	2, 0x0505
    7974:	1412                	.insn	2, 0x1412
    7976:	0004                	.insn	2, 0x0004
    7978:	1700                	.insn	2, 0x1700
    797a:	1c05                	.insn	2, 0x1c05
	...
    7984:	0000                	.insn	2, 0x0000
    7986:	0500                	.insn	2, 0x0500
    7988:	0011                	.insn	2, 0x0011
    798a:	0000                	.insn	2, 0x0000
    798c:	0000                	.insn	2, 0x0000
    798e:	0000                	.insn	2, 0x0000
    7990:	2000                	.insn	2, 0x2000
    7992:	1305                	.insn	2, 0x1305
    7994:	0000                	.insn	2, 0x0000
    7996:	151c050f          	.insn	4, 0x151c050f
    799a:	1415                	.insn	2, 0x1415
    799c:	0512                	.insn	2, 0x0512
    799e:	0015                	.insn	2, 0x0015
    79a0:	0000                	.insn	2, 0x0000
    79a2:	1700                	.insn	2, 0x1700
    79a4:	1105                	.insn	2, 0x1105
    79a6:	1c1c                	.insn	2, 0x1c1c
    79a8:	1c1c                	.insn	2, 0x1c1c
    79aa:	1c1c                	.insn	2, 0x1c1c
    79ac:	0000001b          	.insn	4, 0x001b
	...
    79d4:	1205                	.insn	2, 0x1205
    79d6:	0000                	.insn	2, 0x0000
    79d8:	0000                	.insn	2, 0x0000
    79da:	0000                	.insn	2, 0x0000
    79dc:	001e050f          	.insn	4, 0x001e050f
    79e0:	0000                	.insn	2, 0x0000
    79e2:	1400                	.insn	2, 0x1400
    79e4:	1905                	.insn	2, 0x1905
    79e6:	0000                	.insn	2, 0x0000
    79e8:	1400                	.insn	2, 0x1400
    79ea:	2305                	.insn	2, 0x2305
    79ec:	0000                	.insn	2, 0x0000
    79ee:	0000                	.insn	2, 0x0000
    79f0:	0512                	.insn	2, 0x0512
    79f2:	0505                	.insn	2, 0x0505
    79f4:	1b05                	.insn	2, 0x1b05
    79f6:	0000                	.insn	2, 0x0000
    79f8:	001b0517          	auipc	a0,0x1b0
    79fc:	0000                	.insn	2, 0x0000
    79fe:	0000                	.insn	2, 0x0000
    7a00:	1500                	.insn	2, 0x1500
    7a02:	0f05                	.insn	2, 0x0f05
	...
    7a10:	1900                	.insn	2, 0x1900
    7a12:	1416                	.insn	2, 0x1416
    7a14:	0512                	.insn	2, 0x0512
    7a16:	2011                	.insn	2, 0x2011
    7a18:	0400                	.insn	2, 0x0400
    7a1a:	1305                	.insn	2, 0x1305
	...
    7a24:	0000                	.insn	2, 0x0000
    7a26:	1100                	.insn	2, 0x1100
    7a28:	0005                	.insn	2, 0x0005
    7a2a:	0000                	.insn	2, 0x0000
    7a2c:	0000                	.insn	2, 0x0000
    7a2e:	0000                	.insn	2, 0x0000
    7a30:	1a00                	.insn	2, 0x1a00
    7a32:	1f05                	.insn	2, 0x1f05
    7a34:	0000                	.insn	2, 0x0000
    7a36:	1211050f          	.insn	4, 0x1211050f
    7a3a:	0512                	.insn	2, 0x0512
    7a3c:	1d05                	.insn	2, 0x1d05
    7a3e:	0000                	.insn	2, 0x0000
    7a40:	0000                	.insn	2, 0x0000
    7a42:	1700                	.insn	2, 0x1700
    7a44:	1805                	.insn	2, 0x1805
	...
    7a72:	0000                	.insn	2, 0x0000
    7a74:	1205                	.insn	2, 0x1205
    7a76:	0000                	.insn	2, 0x0000
    7a78:	0000                	.insn	2, 0x0000
    7a7a:	0000                	.insn	2, 0x0000
    7a7c:	001e050f          	.insn	4, 0x001e050f
    7a80:	0000                	.insn	2, 0x0000
    7a82:	1400                	.insn	2, 0x1400
    7a84:	1905                	.insn	2, 0x1905
    7a86:	0000                	.insn	2, 0x0000
    7a88:	2400                	.insn	2, 0x2400
    7a8a:	1005                	.insn	2, 0x1005
    7a8c:	0000                	.insn	2, 0x0000
    7a8e:	0000                	.insn	2, 0x0000
    7a90:	0000                	.insn	2, 0x0000
    7a92:	1a00                	.insn	2, 0x1a00
    7a94:	1b05                	.insn	2, 0x1b05
    7a96:	0000                	.insn	2, 0x0000
    7a98:	001b0517          	auipc	a0,0x1b0
    7a9c:	0000                	.insn	2, 0x0000
    7a9e:	0000                	.insn	2, 0x0000
    7aa0:	1500                	.insn	2, 0x1500
    7aa2:	0f05                	.insn	2, 0x0f05
	...
    7ab4:	1400                	.insn	2, 0x1400
    7ab6:	1405                	.insn	2, 0x1405
    7ab8:	0000                	.insn	2, 0x0000
    7aba:	0511                	.insn	2, 0x0511
	...
    7ac4:	0000                	.insn	2, 0x0000
    7ac6:	1c00                	.insn	2, 0x1c00
    7ac8:	1a05                	.insn	2, 0x1a05
    7aca:	0000                	.insn	2, 0x0000
    7acc:	0000                	.insn	2, 0x0000
    7ace:	0000                	.insn	2, 0x0000
    7ad0:	1600                	.insn	2, 0x1600
    7ad2:	1405                	.insn	2, 0x1405
    7ad4:	0000                	.insn	2, 0x0000
    7ad6:	001e050f          	.insn	4, 0x001e050f
    7ada:	0f00                	.insn	2, 0x0f00
    7adc:	2505                	.insn	2, 0x2505
    7ade:	0020                	.insn	2, 0x0020
    7ae0:	0000                	.insn	2, 0x0000
    7ae2:	1700                	.insn	2, 0x1700
    7ae4:	1805                	.insn	2, 0x1805
	...
    7b12:	0000                	.insn	2, 0x0000
    7b14:	1205                	.insn	2, 0x1205
    7b16:	0000                	.insn	2, 0x0000
    7b18:	0000                	.insn	2, 0x0000
    7b1a:	0000                	.insn	2, 0x0000
    7b1c:	001e050f          	.insn	4, 0x001e050f
    7b20:	0000                	.insn	2, 0x0000
    7b22:	1400                	.insn	2, 0x1400
    7b24:	1905                	.insn	2, 0x1905
    7b26:	0000                	.insn	2, 0x0000
    7b28:	0000                	.insn	2, 0x0000
    7b2a:	0511                	.insn	2, 0x0511
    7b2c:	00000017          	auipc	zero,0x0
    7b30:	0000                	.insn	2, 0x0000
    7b32:	1a00                	.insn	2, 0x1a00
    7b34:	1b05                	.insn	2, 0x1b05
    7b36:	0000                	.insn	2, 0x0000
    7b38:	001b0517          	auipc	a0,0x1b0
    7b3c:	0000                	.insn	2, 0x0000
    7b3e:	0000                	.insn	2, 0x0000
    7b40:	1500                	.insn	2, 0x1500
    7b42:	0f05                	.insn	2, 0x0f05
	...
    7b54:	0f00                	.insn	2, 0x0f00
    7b56:	1005                	.insn	2, 0x1005
    7b58:	0000                	.insn	2, 0x0000
    7b5a:	0510                	.insn	2, 0x0510
    7b5c:	001e                	.insn	2, 0x001e
	...
    7b66:	1600                	.insn	2, 0x1600
    7b68:	1b05                	.insn	2, 0x1b05
    7b6a:	0000                	.insn	2, 0x0000
    7b6c:	0000                	.insn	2, 0x0000
    7b6e:	0000                	.insn	2, 0x0000
    7b70:	1300                	.insn	2, 0x1300
    7b72:	1a05                	.insn	2, 0x1a05
    7b74:	0000                	.insn	2, 0x0000
    7b76:	001e050f          	.insn	4, 0x001e050f
    7b7a:	0000                	.insn	2, 0x0000
    7b7c:	0425050f          	.insn	4, 0x0425050f
    7b80:	0000                	.insn	2, 0x0000
    7b82:	1700                	.insn	2, 0x1700
    7b84:	1805                	.insn	2, 0x1805
	...
    7bb2:	0000                	.insn	2, 0x0000
    7bb4:	1205                	.insn	2, 0x1205
    7bb6:	0000                	.insn	2, 0x0000
    7bb8:	0000                	.insn	2, 0x0000
    7bba:	0000                	.insn	2, 0x0000
    7bbc:	001e050f          	.insn	4, 0x001e050f
    7bc0:	0000                	.insn	2, 0x0000
    7bc2:	1400                	.insn	2, 0x1400
    7bc4:	1905                	.insn	2, 0x1905
    7bc6:	0000                	.insn	2, 0x0000
    7bc8:	0000                	.insn	2, 0x0000
    7bca:	19110523          	sb	a7,394(sp) # 15058854 <_stack_end+0x14f4ee4c>
    7bce:	0000                	.insn	2, 0x0000
    7bd0:	0000                	.insn	2, 0x0000
    7bd2:	1a00                	.insn	2, 0x1a00
    7bd4:	1b05                	.insn	2, 0x1b05
    7bd6:	0000                	.insn	2, 0x0000
    7bd8:	001b0517          	auipc	a0,0x1b0
    7bdc:	0000                	.insn	2, 0x0000
    7bde:	0000                	.insn	2, 0x0000
    7be0:	1500                	.insn	2, 0x1500
    7be2:	0f05                	.insn	2, 0x0f05
	...
    7bec:	1200                	.insn	2, 0x1200
    7bee:	0016                	.insn	2, 0x0016
    7bf0:	0000                	.insn	2, 0x0000
    7bf2:	0000                	.insn	2, 0x0000
    7bf4:	1c00                	.insn	2, 0x1c00
    7bf6:	0f05                	.insn	2, 0x0f05
    7bf8:	0000                	.insn	2, 0x0000
    7bfa:	1104                	.insn	2, 0x1104
    7bfc:	1505                	.insn	2, 0x1505
    7bfe:	0000                	.insn	2, 0x0000
    7c00:	0000                	.insn	2, 0x0000
    7c02:	1a00                	.insn	2, 0x1a00
    7c04:	1d1c                	.insn	2, 0x1d1c
    7c06:	0000                	.insn	2, 0x0000
    7c08:	0512                	.insn	2, 0x0512
    7c0a:	0015                	.insn	2, 0x0015
    7c0c:	0000                	.insn	2, 0x0000
    7c0e:	0000                	.insn	2, 0x0000
    7c10:	001b051b          	.insn	4, 0x001b051b
    7c14:	0000                	.insn	2, 0x0000
    7c16:	001e050f          	.insn	4, 0x001e050f
    7c1a:	0000                	.insn	2, 0x0000
    7c1c:	2400                	.insn	2, 0x2400
    7c1e:	1205                	.insn	2, 0x1205
    7c20:	0004                	.insn	2, 0x0004
    7c22:	1700                	.insn	2, 0x1700
    7c24:	1805                	.insn	2, 0x1805
	...
    7c52:	0000                	.insn	2, 0x0000
    7c54:	1205                	.insn	2, 0x1205
    7c56:	0000                	.insn	2, 0x0000
    7c58:	0000                	.insn	2, 0x0000
    7c5a:	0000                	.insn	2, 0x0000
    7c5c:	001e050f          	.insn	4, 0x001e050f
    7c60:	1d00                	.insn	2, 0x1d00
    7c62:	1210                	.insn	2, 0x1210
    7c64:	1f05                	.insn	2, 0x1f05
    7c66:	0010                	.insn	2, 0x0010
    7c68:	0000                	.insn	2, 0x0000
    7c6a:	2400                	.insn	2, 0x2400
    7c6c:	0511                	.insn	2, 0x0511
    7c6e:	1b12                	.insn	2, 0x1b12
    7c70:	1b14                	.insn	2, 0x1b14
    7c72:	1e050513          	addi	a0,a0,480 # 1b7db8 <_stack_end+0xae3b0>
    7c76:	0000                	.insn	2, 0x0000
    7c78:	001b0517          	auipc	a0,0x1b0
    7c7c:	0000                	.insn	2, 0x0000
    7c7e:	0000                	.insn	2, 0x0000
    7c80:	1500                	.insn	2, 0x1500
    7c82:	0f05                	.insn	2, 0x0f05
	...
    7c8c:	1100                	.insn	2, 0x1100
    7c8e:	0505                	.insn	2, 0x0505
    7c90:	18101013          	.insn	4, 0x18101013
    7c94:	0505                	.insn	2, 0x0505
    7c96:	0015                	.insn	2, 0x0015
    7c98:	0000                	.insn	2, 0x0000
    7c9a:	1700                	.insn	2, 0x1700
    7c9c:	0512                	.insn	2, 0x0512
    7c9e:	1f11                	.insn	2, 0x1f11
    7ca0:	1b10                	.insn	2, 0x1b10
    7ca2:	0512                	.insn	2, 0x0512
    7ca4:	1705                	.insn	2, 0x1705
    7ca6:	0000                	.insn	2, 0x0000
    7ca8:	1304                	.insn	2, 0x1304
    7caa:	1105                	.insn	2, 0x1105
    7cac:	1410                	.insn	2, 0x1410
    7cae:	1b05111b          	.insn	4, 0x1b05111b
    7cb2:	0000                	.insn	2, 0x0000
    7cb4:	0000                	.insn	2, 0x0000
    7cb6:	001e050f          	.insn	4, 0x001e050f
    7cba:	0000                	.insn	2, 0x0000
    7cbc:	0000                	.insn	2, 0x0000
    7cbe:	04120523          	sb	ra,74(tp) # 4a <_isr_routine+0x42>
    7cc2:	1700                	.insn	2, 0x1700
    7cc4:	1105                	.insn	2, 0x1105
    7cc6:	13131313          	.insn	4, 0x13131313
    7cca:	001f1313          	slli	t1,t5,0x1
	...
    7cf2:	0000                	.insn	2, 0x0000
    7cf4:	1510                	.insn	2, 0x1510
    7cf6:	0000                	.insn	2, 0x0000
    7cf8:	0000                	.insn	2, 0x0000
    7cfa:	0000                	.insn	2, 0x0000
    7cfc:	101a                	.insn	2, 0x101a
    7cfe:	1d00000f          	.insn	4, 0x1d00000f
    7d02:	1010                	.insn	2, 0x1010
    7d04:	1010                	.insn	2, 0x1010
    7d06:	0010                	.insn	2, 0x0010
    7d08:	0000                	.insn	2, 0x0000
    7d0a:	0000                	.insn	2, 0x0000
    7d0c:	2300                	.insn	2, 0x2300
    7d0e:	1310                	.insn	2, 0x1310
    7d10:	16101313          	.insn	4, 0x16101313
    7d14:	0004                	.insn	2, 0x0004
    7d16:	0000                	.insn	2, 0x0000
    7d18:	1004                	.insn	2, 0x1004
    7d1a:	0016                	.insn	2, 0x0016
    7d1c:	0000                	.insn	2, 0x0000
    7d1e:	0000                	.insn	2, 0x0000
    7d20:	0f00                	.insn	2, 0x0f00
    7d22:	1a10                	.insn	2, 0x1a10
	...
    7d2c:	0000                	.insn	2, 0x0000
    7d2e:	1419                	.insn	2, 0x1419
    7d30:	1f13131b          	.insn	4, 0x1f13131b
    7d34:	2022                	.insn	2, 0x2022
    7d36:	0000                	.insn	2, 0x0000
    7d38:	0000                	.insn	2, 0x0000
    7d3a:	0000                	.insn	2, 0x0000
    7d3c:	0f00                	.insn	2, 0x0f00
    7d3e:	1c10                	.insn	2, 0x1c10
    7d40:	0f101c13          	.insn	4, 0x0f101c13
    7d44:	0000                	.insn	2, 0x0000
    7d46:	0000                	.insn	2, 0x0000
    7d48:	0000                	.insn	2, 0x0000
    7d4a:	1213100f          	.insn	4, 0x1213100f
    7d4e:	001a1413          	slli	s0,s4,0x1
    7d52:	0000                	.insn	2, 0x0000
    7d54:	0000                	.insn	2, 0x0000
    7d56:	101a                	.insn	2, 0x101a
    7d58:	0000000f          	fence	unknown,unknown
    7d5c:	0000                	.insn	2, 0x0000
    7d5e:	2400                	.insn	2, 0x2400
    7d60:	1510                	.insn	2, 0x1510
    7d62:	0400                	.insn	2, 0x0400
    7d64:	1010                	.insn	2, 0x1010
    7d66:	1010                	.insn	2, 0x1010
    7d68:	1010                	.insn	2, 0x1010
    7d6a:	1010                	.insn	2, 0x1010
    7d6c:	0014                	.insn	2, 0x0014
	...
    8f16:	0000                	.insn	2, 0x0000
    8f18:	0f1d                	.insn	2, 0x0f1d
    8f1a:	041d                	.insn	2, 0x041d
	...
    8fb4:	1700                	.insn	2, 0x1700
    8fb6:	0518                	.insn	2, 0x0518
    8fb8:	0505                	.insn	2, 0x0505
    8fba:	0505                	.insn	2, 0x0505
    8fbc:	00001913          	slli	s2,zero,0x0
    8fc0:	0000                	.insn	2, 0x0000
    8fc2:	0022050f          	.insn	4, 0x0022050f
    8fc6:	0000                	.insn	2, 0x0000
    8fc8:	0000                	.insn	2, 0x0000
    8fca:	1000                	.insn	2, 0x1000
    8fcc:	1d05                	.insn	2, 0x1d05
    8fce:	0000                	.insn	2, 0x0000
    8fd0:	0512                	.insn	2, 0x0512
    8fd2:	0505                	.insn	2, 0x0505
    8fd4:	1405                	.insn	2, 0x1405
    8fd6:	05050517          	auipc	a0,0x5050
    8fda:	0505                	.insn	2, 0x0505
    8fdc:	0505                	.insn	2, 0x0505
    8fde:	0505                	.insn	2, 0x0505
    8fe0:	0505                	.insn	2, 0x0505
    8fe2:	0015                	.insn	2, 0x0015
	...
    9054:	051d                	.insn	2, 0x051d
    9056:	1505                	.insn	2, 0x1505
    9058:	001a                	.insn	2, 0x001a
    905a:	05111617          	auipc	a2,0x5111
    905e:	0016                	.insn	2, 0x0016
    9060:	0000                	.insn	2, 0x0000
    9062:	0022050f          	.insn	4, 0x0022050f
    9066:	0000                	.insn	2, 0x0000
    9068:	0000                	.insn	2, 0x0000
    906a:	1000                	.insn	2, 0x1000
    906c:	1d05                	.insn	2, 0x1d05
    906e:	0000                	.insn	2, 0x0000
    9070:	1a04                	.insn	2, 0x1a04
    9072:	1305                	.insn	2, 0x1305
    9074:	0420                	.insn	2, 0x0420
    9076:	0f00                	.insn	2, 0x0f00
    9078:	220f0f0f          	.insn	4, 0x220f0f0f
    907c:	1f05                	.insn	2, 0x1f05
    907e:	0f0f0f0f          	.insn	4, 0x0f0f0f0f
    9082:	00000017          	auipc	zero,0x0
	...
    90f2:	0000                	.insn	2, 0x0000
    90f4:	0511                	.insn	2, 0x0511
    90f6:	001d                	.insn	2, 0x001d
    90f8:	0000                	.insn	2, 0x0000
    90fa:	0000                	.insn	2, 0x0000
    90fc:	1104                	.insn	2, 0x1104
    90fe:	1705                	.insn	2, 0x1705
    9100:	0000                	.insn	2, 0x0000
    9102:	0022050f          	.insn	4, 0x0022050f
    9106:	0000                	.insn	2, 0x0000
    9108:	0000                	.insn	2, 0x0000
    910a:	1000                	.insn	2, 0x1000
    910c:	1d05                	.insn	2, 0x1d05
    910e:	0000                	.insn	2, 0x0000
    9110:	0000                	.insn	2, 0x0000
    9112:	1305                	.insn	2, 0x1305
    9114:	0000                	.insn	2, 0x0000
    9116:	0000                	.insn	2, 0x0000
    9118:	0000                	.insn	2, 0x0000
    911a:	1900                	.insn	2, 0x1900
    911c:	1405                	.insn	2, 0x1405
	...
    9192:	1600                	.insn	2, 0x1600
    9194:	1405                	.insn	2, 0x1405
    9196:	0000                	.insn	2, 0x0000
    9198:	0000                	.insn	2, 0x0000
    919a:	0000                	.insn	2, 0x0000
    919c:	1600                	.insn	2, 0x1600
    919e:	1005                	.insn	2, 0x1005
    91a0:	0000                	.insn	2, 0x0000
    91a2:	0022050f          	.insn	4, 0x0022050f
    91a6:	0000                	.insn	2, 0x0000
    91a8:	0000                	.insn	2, 0x0000
    91aa:	1000                	.insn	2, 0x1000
    91ac:	1d05                	.insn	2, 0x1d05
    91ae:	0000                	.insn	2, 0x0000
    91b0:	0000                	.insn	2, 0x0000
    91b2:	1305                	.insn	2, 0x1305
    91b4:	0000                	.insn	2, 0x0000
    91b6:	0000                	.insn	2, 0x0000
    91b8:	0000                	.insn	2, 0x0000
    91ba:	1900                	.insn	2, 0x1900
    91bc:	1405                	.insn	2, 0x1405
	...
    9232:	1b00                	.insn	2, 0x1b00
    9234:	1905                	.insn	2, 0x1905
	...
    923e:	1205                	.insn	2, 0x1205
    9240:	0000                	.insn	2, 0x0000
    9242:	0022050f          	.insn	4, 0x0022050f
    9246:	0000                	.insn	2, 0x0000
    9248:	0000                	.insn	2, 0x0000
    924a:	1000                	.insn	2, 0x1000
    924c:	1d05                	.insn	2, 0x1d05
    924e:	0000                	.insn	2, 0x0000
    9250:	0000                	.insn	2, 0x0000
    9252:	1305                	.insn	2, 0x1305
    9254:	0000                	.insn	2, 0x0000
    9256:	0000                	.insn	2, 0x0000
    9258:	0000                	.insn	2, 0x0000
    925a:	1900                	.insn	2, 0x1900
    925c:	1405                	.insn	2, 0x1405
	...
    92d2:	1c00                	.insn	2, 0x1c00
    92d4:	1705                	.insn	2, 0x1705
	...
    92de:	0511                	.insn	2, 0x0511
    92e0:	0000                	.insn	2, 0x0000
    92e2:	0022050f          	.insn	4, 0x0022050f
    92e6:	0000                	.insn	2, 0x0000
    92e8:	0000                	.insn	2, 0x0000
    92ea:	1000                	.insn	2, 0x1000
    92ec:	1d05                	.insn	2, 0x1d05
    92ee:	0000                	.insn	2, 0x0000
    92f0:	0000                	.insn	2, 0x0000
    92f2:	1305                	.insn	2, 0x1305
    92f4:	0000                	.insn	2, 0x0000
    92f6:	0000                	.insn	2, 0x0000
    92f8:	0000                	.insn	2, 0x0000
    92fa:	1900                	.insn	2, 0x1900
    92fc:	1405                	.insn	2, 0x1405
	...
    9372:	1c00                	.insn	2, 0x1c00
    9374:	1705                	.insn	2, 0x1705
	...
    937e:	1105                	.insn	2, 0x1105
    9380:	0000                	.insn	2, 0x0000
    9382:	0022050f          	.insn	4, 0x0022050f
    9386:	0000                	.insn	2, 0x0000
    9388:	0000                	.insn	2, 0x0000
    938a:	1000                	.insn	2, 0x1000
    938c:	1d05                	.insn	2, 0x1d05
    938e:	0000                	.insn	2, 0x0000
    9390:	0000                	.insn	2, 0x0000
    9392:	1305                	.insn	2, 0x1305
    9394:	0000                	.insn	2, 0x0000
    9396:	0000                	.insn	2, 0x0000
    9398:	0000                	.insn	2, 0x0000
    939a:	1900                	.insn	2, 0x1900
    939c:	1405                	.insn	2, 0x1405
	...
    9412:	1000                	.insn	2, 0x1000
    9414:	0f05                	.insn	2, 0x0f05
    9416:	0000                	.insn	2, 0x0000
    9418:	0000                	.insn	2, 0x0000
    941a:	0000                	.insn	2, 0x0000
    941c:	0400                	.insn	2, 0x0400
    941e:	1305                	.insn	2, 0x1305
    9420:	0000                	.insn	2, 0x0000
    9422:	0014050f          	.insn	4, 0x0014050f
    9426:	0000                	.insn	2, 0x0000
    9428:	0000                	.insn	2, 0x0000
    942a:	1b00                	.insn	2, 0x1b00
    942c:	1a05                	.insn	2, 0x1a05
    942e:	0000                	.insn	2, 0x0000
    9430:	0000                	.insn	2, 0x0000
    9432:	1305                	.insn	2, 0x1305
    9434:	0000                	.insn	2, 0x0000
    9436:	0000                	.insn	2, 0x0000
    9438:	0000                	.insn	2, 0x0000
    943a:	1900                	.insn	2, 0x1900
    943c:	1405                	.insn	2, 0x1405
	...
    94b2:	0f00                	.insn	2, 0x0f00
    94b4:	1805                	.insn	2, 0x1805
    94b6:	0000                	.insn	2, 0x0000
    94b8:	0000                	.insn	2, 0x0000
    94ba:	0000                	.insn	2, 0x0000
    94bc:	1500                	.insn	2, 0x1500
    94be:	1505                	.insn	2, 0x1505
    94c0:	0000                	.insn	2, 0x0000
    94c2:	051a                	.insn	2, 0x051a
    94c4:	0018                	.insn	2, 0x0018
    94c6:	0000                	.insn	2, 0x0000
    94c8:	0000                	.insn	2, 0x0000
    94ca:	1300                	.insn	2, 0x1300
    94cc:	0405                	.insn	2, 0x0405
    94ce:	0000                	.insn	2, 0x0000
    94d0:	0000                	.insn	2, 0x0000
    94d2:	1305                	.insn	2, 0x1305
    94d4:	0000                	.insn	2, 0x0000
    94d6:	0000                	.insn	2, 0x0000
    94d8:	0000                	.insn	2, 0x0000
    94da:	1900                	.insn	2, 0x1900
    94dc:	1405                	.insn	2, 0x1405
	...
    9552:	0000                	.insn	2, 0x0000
    9554:	0512                	.insn	2, 0x0512
    9556:	0016                	.insn	2, 0x0016
    9558:	0000                	.insn	2, 0x0000
    955a:	0000                	.insn	2, 0x0000
    955c:	051d                	.insn	2, 0x051d
    955e:	0011                	.insn	2, 0x0011
    9560:	0000                	.insn	2, 0x0000
    9562:	1100                	.insn	2, 0x1100
    9564:	2005                	.insn	2, 0x2005
    9566:	0000                	.insn	2, 0x0000
    9568:	0000                	.insn	2, 0x0000
    956a:	051a                	.insn	2, 0x051a
    956c:	00000013          	nop
    9570:	0000                	.insn	2, 0x0000
    9572:	1305                	.insn	2, 0x1305
    9574:	0000                	.insn	2, 0x0000
    9576:	0000                	.insn	2, 0x0000
    9578:	0000                	.insn	2, 0x0000
    957a:	1900                	.insn	2, 0x1900
    957c:	1405                	.insn	2, 0x1405
	...
    95f2:	0000                	.insn	2, 0x0000
    95f4:	1204                	.insn	2, 0x1204
    95f6:	1f05                	.insn	2, 0x1f05
    95f8:	1916                	.insn	2, 0x1916
    95fa:	11051b23          	sh	a6,278(a0) # 50590ec <_stack_end+0x4f4f6e4>
    95fe:	00000017          	auipc	zero,0x0
    9602:	0f00                	.insn	2, 0x0f00
    9604:	1105                	.insn	2, 0x1105
    9606:	0f15                	.insn	2, 0x0f15
    9608:	05111e0f          	.insn	4, 0x05111e0f
    960c:	001d                	.insn	2, 0x001d
    960e:	0000                	.insn	2, 0x0000
    9610:	2319                	.insn	2, 0x2319
    9612:	1205                	.insn	2, 0x1205
    9614:	00001a0f          	.insn	4, 0x1a0f
    9618:	0000                	.insn	2, 0x0000
    961a:	1900                	.insn	2, 0x1900
    961c:	1405                	.insn	2, 0x1405
	...
    9696:	1215                	.insn	2, 0x1215
    9698:	0505                	.insn	2, 0x0505
    969a:	0505                	.insn	2, 0x0505
    969c:	0014                	.insn	2, 0x0014
    969e:	0000                	.insn	2, 0x0000
    96a0:	0000                	.insn	2, 0x0000
    96a2:	0000                	.insn	2, 0x0000
    96a4:	1f1d                	.insn	2, 0x1f1d
    96a6:	0505                	.insn	2, 0x0505
    96a8:	0505                	.insn	2, 0x0505
    96aa:	1a18                	.insn	2, 0x1a18
    96ac:	0000                	.insn	2, 0x0000
    96ae:	0000                	.insn	2, 0x0000
    96b0:	121c                	.insn	2, 0x121c
    96b2:	1212                	.insn	2, 0x1212
    96b4:	1512                	.insn	2, 0x1512
    96b6:	0000                	.insn	2, 0x0000
    96b8:	0000                	.insn	2, 0x0000
    96ba:	1d00                	.insn	2, 0x1d00
    96bc:	1512                	.insn	2, 0x1512
	...
    973a:	0515                	.insn	2, 0x0515
    973c:	0016                	.insn	2, 0x0016
	...
    97da:	1120                	.insn	2, 0x1120
    97dc:	1411                	.insn	2, 0x1411
    97de:	1416                	.insn	2, 0x1416
    97e0:	00000017          	auipc	zero,0x0
	...
    9878:	0000                	.insn	2, 0x0000
    987a:	1a00                	.insn	2, 0x1a00
    987c:	111f 1105 001a      	.insn	6, 0x001a1105111f
	...

00009900 <seed>:
    9900:	0000350b          	.insn	4, 0x350b

00009904 <snake_lastdir>:
    9904:	0004                	.insn	2, 0x0004
	...

Disassembly of section .rodata:

0000991c <CSWTCH.4-0x24>:
    991c:	1998                	.insn	2, 0x1998
    991e:	0000                	.insn	2, 0x0000
    9920:	1ae0                	.insn	2, 0x1ae0
    9922:	0000                	.insn	2, 0x0000
    9924:	1b58                	.insn	2, 0x1b58
    9926:	0000                	.insn	2, 0x0000
    9928:	1c88                	.insn	2, 0x1c88
    992a:	0000                	.insn	2, 0x0000
    992c:	1da8                	.insn	2, 0x1da8
    992e:	0000                	.insn	2, 0x0000
    9930:	1e90                	.insn	2, 0x1e90
    9932:	0000                	.insn	2, 0x0000
    9934:	1fc4                	.insn	2, 0x1fc4
    9936:	0000                	.insn	2, 0x0000
    9938:	1634                	.insn	2, 0x1634
    993a:	0000                	.insn	2, 0x0000
    993c:	1830                	.insn	2, 0x1830
	...

00009940 <CSWTCH.4>:
    9940:	00ff 0000 00e7 0000 	.insn	10, 0x00e7000000e7000000ff
    9948:	00e7 
    994a:	0000                	.insn	2, 0x0000
    994c:	000000e7          	jalr	zero # 0 <_isr_handler>
    9950:	00e0                	.insn	2, 0x00e0
	...

Disassembly of section .rodata.str1.4:

00009954 <.rodata.str1.4>:
    9954:	5b0a                	.insn	2, 0x5b0a
    9956:	5845                	.insn	2, 0x5845
    9958:	54504543          	.insn	4, 0x54504543
    995c:	4f49                	.insn	2, 0x4f49
    995e:	5d4e                	.insn	2, 0x5d4e
    9960:	4920                	.insn	2, 0x4920
    9962:	736e                	.insn	2, 0x736e
    9964:	7274                	.insn	2, 0x7274
    9966:	6375                	.insn	2, 0x6375
    9968:	6974                	.insn	2, 0x6974
    996a:	61206e6f          	jal	t3,ff7c <__global_pointer+0x5e7c>
    996e:	6464                	.insn	2, 0x6464
    9970:	6572                	.insn	2, 0x6572
    9972:	6d207373          	csrrci	t1,0x6d2,0
    9976:	7369                	.insn	2, 0x7369
    9978:	6c61                	.insn	2, 0x6c61
    997a:	6769                	.insn	2, 0x6769
    997c:	6d6e                	.insn	2, 0x6d6e
    997e:	6e65                	.insn	2, 0x6e65
    9980:	2e74                	.insn	2, 0x2e74
    9982:	0020                	.insn	2, 0x0020
    9984:	5b0a                	.insn	2, 0x5b0a
    9986:	5845                	.insn	2, 0x5845
    9988:	54504543          	.insn	4, 0x54504543
    998c:	4f49                	.insn	2, 0x4f49
    998e:	5d4e                	.insn	2, 0x5d4e
    9990:	4920                	.insn	2, 0x4920
    9992:	6c6c                	.insn	2, 0x6c6c
    9994:	6765                	.insn	2, 0x6765
    9996:	6c61                	.insn	2, 0x6c61
    9998:	6920                	.insn	2, 0x6920
    999a:	736e                	.insn	2, 0x736e
    999c:	7274                	.insn	2, 0x7274
    999e:	6375                	.insn	2, 0x6375
    99a0:	6974                	.insn	2, 0x6974
    99a2:	202e6e6f          	jal	t3,efba4 <__global_pointer+0xe5aa4>
    99a6:	0000                	.insn	2, 0x0000
    99a8:	5b0a                	.insn	2, 0x5b0a
    99aa:	5845                	.insn	2, 0x5845
    99ac:	54504543          	.insn	4, 0x54504543
    99b0:	4f49                	.insn	2, 0x4f49
    99b2:	5d4e                	.insn	2, 0x5d4e
    99b4:	5520                	.insn	2, 0x5520
    99b6:	6b6e                	.insn	2, 0x6b6e
    99b8:	6f6e                	.insn	2, 0x6f6e
    99ba:	65206e77          	.insn	4, 0x65206e77
    99be:	7272                	.insn	2, 0x7272
    99c0:	202e726f          	jal	tp,f0bc2 <__global_pointer+0xe6ac2>
    99c4:	0000                	.insn	2, 0x0000
    99c6:	0000                	.insn	2, 0x0000
    99c8:	7845                	.insn	2, 0x7845
    99ca:	74706563          	bltu	zero,t2,a114 <__global_pointer+0x14>
    99ce:	6f69                	.insn	2, 0x6f69
    99d0:	206e                	.insn	2, 0x206e
    99d2:	6441                	.insn	2, 0x6441
    99d4:	7264                	.insn	2, 0x7264
    99d6:	7365                	.insn	2, 0x7365
    99d8:	00203a73          	csrrc	s4,frm,zero

Disassembly of section .srodata.cst8:

000099e0 <.srodata.cst8>:
    99e0:	0000                	.insn	2, 0x0000
    99e2:	0000                	.insn	2, 0x0000
    99e4:	0000                	.insn	2, 0x0000
    99e6:	00004033          	xor	zero,zero,zero
    99ea:	0000                	.insn	2, 0x0000
    99ec:	0000                	.insn	2, 0x0000
    99ee:	4044                	.insn	2, 0x4044
    99f0:	0000                	.insn	2, 0x0000
    99f2:	0000                	.insn	2, 0x0000
    99f4:	e000                	.insn	2, 0xe000
    99f6:	4065                	.insn	2, 0x4065
    99f8:	0000                	.insn	2, 0x0000
    99fa:	0000                	.insn	2, 0x0000
    99fc:	0000                	.insn	2, 0x0000
    99fe:	403e                	.insn	2, 0x403e
    9a00:	0000                	.insn	2, 0x0000
    9a02:	0000                	.insn	2, 0x0000
    9a04:	0000                	.insn	2, 0x0000
    9a06:	4024                	.insn	2, 0x4024

Disassembly of section .comment:

00000000 <.comment>:
   0:	3a434347          	.insn	4, 0x3a434347
   4:	2820                	.insn	2, 0x2820
   6:	2029                	.insn	2, 0x2029
   8:	3531                	.insn	2, 0x3531
   a:	312e                	.insn	2, 0x312e
   c:	302e                	.insn	2, 0x302e
	...

Disassembly of section .riscv.attributes:

00000000 <.riscv.attributes>:
   0:	3641                	.insn	2, 0x3641
   2:	0000                	.insn	2, 0x0000
   4:	7200                	.insn	2, 0x7200
   6:	7369                	.insn	2, 0x7369
   8:	01007663          	bgeu	zero,a6,14 <_isr_routine+0xc>
   c:	002c                	.insn	2, 0x002c
   e:	0000                	.insn	2, 0x0000
  10:	1004                	.insn	2, 0x1004
  12:	7205                	.insn	2, 0x7205
  14:	3376                	.insn	2, 0x3376
  16:	6932                	.insn	2, 0x6932
  18:	7032                	.insn	2, 0x7032
  1a:	5f31                	.insn	2, 0x5f31
  1c:	326d                	.insn	2, 0x326d
  1e:	3070                	.insn	2, 0x3070
  20:	7a5f 6369 7273      	.insn	6, 0x727363697a5f
  26:	7032                	.insn	2, 0x7032
  28:	5f30                	.insn	2, 0x5f30
  2a:	6d7a                	.insn	2, 0x6d7a
  2c:	756d                	.insn	2, 0x756d
  2e:	316c                	.insn	2, 0x316c
  30:	3070                	.insn	2, 0x3070
  32:	0800                	.insn	2, 0x0800
  34:	0a01                	.insn	2, 0x0a01
  36:	0b                	.byte	0x0b
